ARM GAS  /var/folders/41/s_9r3f9s4p3_9jgx7wszdkhh0000gn/T//ccQQceQd.s 			page 1


   1              		.cpu cortex-m7
   2              		.arch armv7e-m
   3              		.fpu fpv5-d16
   4              		.eabi_attribute 28, 1
   5              		.eabi_attribute 20, 1
   6              		.eabi_attribute 21, 1
   7              		.eabi_attribute 23, 3
   8              		.eabi_attribute 24, 1
   9              		.eabi_attribute 25, 1
  10              		.eabi_attribute 26, 1
  11              		.eabi_attribute 30, 2
  12              		.eabi_attribute 34, 1
  13              		.eabi_attribute 18, 4
  14              		.file	"MiniTracker.cpp"
  15              		.text
  16              	.Ltext0:
  17              		.cfi_sections	.debug_frame
  18              		.section	.text._ZN5daisy6SwitchD2Ev,"axG",%progbits,_ZN5daisy6SwitchD5Ev,comdat
  19              		.align	1
  20              		.p2align 2,,3
  21              		.weak	_ZN5daisy6SwitchD2Ev
  22              		.syntax unified
  23              		.thumb
  24              		.thumb_func
  26              	_ZN5daisy6SwitchD2Ev:
  27              	.LVL0:
  28              	.LFB1640:
  29              		.file 1 "../DaisyExamples/libDaisy//src/hid/switch.h"
   1:../DaisyExamples/libDaisy//src/hid/switch.h **** #pragma once
   2:../DaisyExamples/libDaisy//src/hid/switch.h **** #ifndef DSY_SWITCH_H
   3:../DaisyExamples/libDaisy//src/hid/switch.h **** #define DSY_SWITCH_H
   4:../DaisyExamples/libDaisy//src/hid/switch.h **** #include "daisy_core.h"
   5:../DaisyExamples/libDaisy//src/hid/switch.h **** #include "per/gpio.h"
   6:../DaisyExamples/libDaisy//src/hid/switch.h **** #include "sys/system.h"
   7:../DaisyExamples/libDaisy//src/hid/switch.h **** 
   8:../DaisyExamples/libDaisy//src/hid/switch.h **** namespace daisy
   9:../DaisyExamples/libDaisy//src/hid/switch.h **** {
  10:../DaisyExamples/libDaisy//src/hid/switch.h **** /** 
  11:../DaisyExamples/libDaisy//src/hid/switch.h ****     Generic Class for handling momentary/latching switches \n 
  12:../DaisyExamples/libDaisy//src/hid/switch.h ****     Inspired/influenced by Mutable Instruments (pichenettes) Switch classes
  13:../DaisyExamples/libDaisy//src/hid/switch.h ****     @author Stephen Hensley
  14:../DaisyExamples/libDaisy//src/hid/switch.h ****     @date December 2019
  15:../DaisyExamples/libDaisy//src/hid/switch.h ****     @ingroup controls
  16:../DaisyExamples/libDaisy//src/hid/switch.h **** */
  17:../DaisyExamples/libDaisy//src/hid/switch.h **** class Switch
  18:../DaisyExamples/libDaisy//src/hid/switch.h **** {
  19:../DaisyExamples/libDaisy//src/hid/switch.h ****   public:
  20:../DaisyExamples/libDaisy//src/hid/switch.h ****     /** Specifies the expected behavior of the switch */
  21:../DaisyExamples/libDaisy//src/hid/switch.h ****     enum Type
  22:../DaisyExamples/libDaisy//src/hid/switch.h ****     {
  23:../DaisyExamples/libDaisy//src/hid/switch.h ****         TYPE_TOGGLE,    /**< & */
  24:../DaisyExamples/libDaisy//src/hid/switch.h ****         TYPE_MOMENTARY, /**< & */
  25:../DaisyExamples/libDaisy//src/hid/switch.h ****     };
  26:../DaisyExamples/libDaisy//src/hid/switch.h ****     /** Specifies whether the pressed is HIGH or LOW. */
  27:../DaisyExamples/libDaisy//src/hid/switch.h ****     enum Polarity
  28:../DaisyExamples/libDaisy//src/hid/switch.h ****     {
  29:../DaisyExamples/libDaisy//src/hid/switch.h ****         POLARITY_NORMAL,   /**< & */
ARM GAS  /var/folders/41/s_9r3f9s4p3_9jgx7wszdkhh0000gn/T//ccQQceQd.s 			page 2


  30:../DaisyExamples/libDaisy//src/hid/switch.h ****         POLARITY_INVERTED, /**< & */
  31:../DaisyExamples/libDaisy//src/hid/switch.h ****     };
  32:../DaisyExamples/libDaisy//src/hid/switch.h **** 
  33:../DaisyExamples/libDaisy//src/hid/switch.h ****     /** Specifies whether to use built-in Pull Up/Down resistors to hold button at a given state wh
  34:../DaisyExamples/libDaisy//src/hid/switch.h ****     enum Pull
  35:../DaisyExamples/libDaisy//src/hid/switch.h ****     {
  36:../DaisyExamples/libDaisy//src/hid/switch.h ****         PULL_UP,   /**< & */
  37:../DaisyExamples/libDaisy//src/hid/switch.h ****         PULL_DOWN, /**< & */
  38:../DaisyExamples/libDaisy//src/hid/switch.h ****         PULL_NONE, /**< & */
  39:../DaisyExamples/libDaisy//src/hid/switch.h ****     };
  40:../DaisyExamples/libDaisy//src/hid/switch.h **** 
  41:../DaisyExamples/libDaisy//src/hid/switch.h ****     Switch() {}
  42:../DaisyExamples/libDaisy//src/hid/switch.h ****     ~Switch() {}
  30              		.loc 1 42 5 view -0
  31              		.cfi_startproc
  32              		@ args = 0, pretend = 0, frame = 0
  33              		@ frame_needed = 0, uses_anonymous_args = 0
  34              		@ link register save eliminated.
  35              		.loc 1 42 16 is_stmt 0 view .LVU1
  36 0000 7047     		bx	lr
  37              		.cfi_endproc
  38              	.LFE1640:
  40              		.weak	_ZN5daisy6SwitchD1Ev
  41              		.thumb_set _ZN5daisy6SwitchD1Ev,_ZN5daisy6SwitchD2Ev
  42 0002 00BF     		.section	.text._ZN5daisy9DaisySeedD2Ev,"axG",%progbits,_ZN5daisy9DaisySeedD5Ev,comdat
  43              		.align	1
  44              		.p2align 2,,3
  45              		.weak	_ZN5daisy9DaisySeedD2Ev
  46              		.syntax unified
  47              		.thumb
  48              		.thumb_func
  50              	_ZN5daisy9DaisySeedD2Ev:
  51              	.LVL1:
  52              	.LFB2556:
  53              		.file 2 "../DaisyExamples/libDaisy//src/daisy_seed.h"
   1:../DaisyExamples/libDaisy//src/daisy_seed.h **** #pragma once
   2:../DaisyExamples/libDaisy//src/daisy_seed.h **** #ifndef DSY_SEED_H
   3:../DaisyExamples/libDaisy//src/daisy_seed.h **** #define DSY_SEED_H
   4:../DaisyExamples/libDaisy//src/daisy_seed.h **** 
   5:../DaisyExamples/libDaisy//src/daisy_seed.h **** #include "daisy.h"
   6:../DaisyExamples/libDaisy//src/daisy_seed.h **** 
   7:../DaisyExamples/libDaisy//src/daisy_seed.h **** //Uncomment this out if you're still using the rev2 hardware
   8:../DaisyExamples/libDaisy//src/daisy_seed.h **** //#define SEED_REV2
   9:../DaisyExamples/libDaisy//src/daisy_seed.h **** 
  10:../DaisyExamples/libDaisy//src/daisy_seed.h **** namespace daisy
  11:../DaisyExamples/libDaisy//src/daisy_seed.h **** {
  12:../DaisyExamples/libDaisy//src/daisy_seed.h **** /**
  13:../DaisyExamples/libDaisy//src/daisy_seed.h ****    @brief This is the higher-level interface for the Daisy board. \n 
  14:../DaisyExamples/libDaisy//src/daisy_seed.h ****     All basic peripheral configuration/initialization is setup here. \n
  15:../DaisyExamples/libDaisy//src/daisy_seed.h **** 
  16:../DaisyExamples/libDaisy//src/daisy_seed.h ****    @ingroup boards
  17:../DaisyExamples/libDaisy//src/daisy_seed.h **** */
  18:../DaisyExamples/libDaisy//src/daisy_seed.h **** class DaisySeed
  19:../DaisyExamples/libDaisy//src/daisy_seed.h **** {
  20:../DaisyExamples/libDaisy//src/daisy_seed.h ****   public:
  21:../DaisyExamples/libDaisy//src/daisy_seed.h ****     DaisySeed() {}
  22:../DaisyExamples/libDaisy//src/daisy_seed.h ****     ~DaisySeed() {}
ARM GAS  /var/folders/41/s_9r3f9s4p3_9jgx7wszdkhh0000gn/T//ccQQceQd.s 			page 3


  54              		.loc 2 22 5 is_stmt 1 view -0
  55              		.cfi_startproc
  56              		@ args = 0, pretend = 0, frame = 0
  57              		@ frame_needed = 0, uses_anonymous_args = 0
  58              		@ link register save eliminated.
  59              	.LBB1876:
  60              	.LBI1876:
  61              		.file 3 "../DaisyExamples/libDaisy//src/sys/system.h"
   1:../DaisyExamples/libDaisy//src/sys/system.h **** #ifndef DSY_SYSTEM_H
   2:../DaisyExamples/libDaisy//src/sys/system.h **** #define DSY_SYSTEM_H
   3:../DaisyExamples/libDaisy//src/sys/system.h **** 
   4:../DaisyExamples/libDaisy//src/sys/system.h **** #ifndef UNIT_TEST // for unit tests, a dummy implementation is provided below
   5:../DaisyExamples/libDaisy//src/sys/system.h **** 
   6:../DaisyExamples/libDaisy//src/sys/system.h **** #include <cstdint>
   7:../DaisyExamples/libDaisy//src/sys/system.h **** #include "per/tim.h"
   8:../DaisyExamples/libDaisy//src/sys/system.h **** 
   9:../DaisyExamples/libDaisy//src/sys/system.h **** namespace daisy
  10:../DaisyExamples/libDaisy//src/sys/system.h **** {
  11:../DaisyExamples/libDaisy//src/sys/system.h **** /** A handle for interacting with the Core System.
  12:../DaisyExamples/libDaisy//src/sys/system.h ****  ** This includes the Clock tree, MPU, global DMA initialization,
  13:../DaisyExamples/libDaisy//src/sys/system.h ****  ** cache handling, and any other necessary global initiailzation
  14:../DaisyExamples/libDaisy//src/sys/system.h ****  **
  15:../DaisyExamples/libDaisy//src/sys/system.h ****  ** @author shensley
  16:../DaisyExamples/libDaisy//src/sys/system.h ****  ** @ingroup system
  17:../DaisyExamples/libDaisy//src/sys/system.h ****  */
  18:../DaisyExamples/libDaisy//src/sys/system.h **** class System
  19:../DaisyExamples/libDaisy//src/sys/system.h **** {
  20:../DaisyExamples/libDaisy//src/sys/system.h ****   public:
  21:../DaisyExamples/libDaisy//src/sys/system.h ****     /** Contains settings for initializing the System */
  22:../DaisyExamples/libDaisy//src/sys/system.h ****     struct Config
  23:../DaisyExamples/libDaisy//src/sys/system.h ****     {
  24:../DaisyExamples/libDaisy//src/sys/system.h ****         /** Specifies the system clock frequency that feeds APB/AHB clocks, etc. */
  25:../DaisyExamples/libDaisy//src/sys/system.h ****         enum class SysClkFreq
  26:../DaisyExamples/libDaisy//src/sys/system.h ****         {
  27:../DaisyExamples/libDaisy//src/sys/system.h ****             FREQ_400MHZ,
  28:../DaisyExamples/libDaisy//src/sys/system.h ****             FREQ_480MHZ,
  29:../DaisyExamples/libDaisy//src/sys/system.h ****         };
  30:../DaisyExamples/libDaisy//src/sys/system.h **** 
  31:../DaisyExamples/libDaisy//src/sys/system.h ****         /** Method to call on the struct to set to defaults
  32:../DaisyExamples/libDaisy//src/sys/system.h ****          ** CPU Freq set to 400MHz
  33:../DaisyExamples/libDaisy//src/sys/system.h ****          ** Cache Enabled
  34:../DaisyExamples/libDaisy//src/sys/system.h ****          ** */
  35:../DaisyExamples/libDaisy//src/sys/system.h ****         void Defaults()
  36:../DaisyExamples/libDaisy//src/sys/system.h ****         {
  37:../DaisyExamples/libDaisy//src/sys/system.h ****             cpu_freq    = SysClkFreq::FREQ_400MHZ;
  38:../DaisyExamples/libDaisy//src/sys/system.h ****             use_dcache  = true;
  39:../DaisyExamples/libDaisy//src/sys/system.h ****             use_icache  = true;
  40:../DaisyExamples/libDaisy//src/sys/system.h ****             skip_clocks = false;
  41:../DaisyExamples/libDaisy//src/sys/system.h ****         }
  42:../DaisyExamples/libDaisy//src/sys/system.h **** 
  43:../DaisyExamples/libDaisy//src/sys/system.h ****         /** Method to call on the struct to set to boost mode:
  44:../DaisyExamples/libDaisy//src/sys/system.h ****          ** CPU Freq set to 480MHz
  45:../DaisyExamples/libDaisy//src/sys/system.h ****          ** Cache Enabled
  46:../DaisyExamples/libDaisy//src/sys/system.h ****          ** */
  47:../DaisyExamples/libDaisy//src/sys/system.h ****         void Boost()
  48:../DaisyExamples/libDaisy//src/sys/system.h ****         {
  49:../DaisyExamples/libDaisy//src/sys/system.h ****             cpu_freq    = SysClkFreq::FREQ_480MHZ;
ARM GAS  /var/folders/41/s_9r3f9s4p3_9jgx7wszdkhh0000gn/T//ccQQceQd.s 			page 4


  50:../DaisyExamples/libDaisy//src/sys/system.h ****             use_dcache  = true;
  51:../DaisyExamples/libDaisy//src/sys/system.h ****             use_icache  = true;
  52:../DaisyExamples/libDaisy//src/sys/system.h ****             skip_clocks = false;
  53:../DaisyExamples/libDaisy//src/sys/system.h ****         }
  54:../DaisyExamples/libDaisy//src/sys/system.h **** 
  55:../DaisyExamples/libDaisy//src/sys/system.h ****         SysClkFreq cpu_freq;
  56:../DaisyExamples/libDaisy//src/sys/system.h ****         bool       use_dcache;
  57:../DaisyExamples/libDaisy//src/sys/system.h ****         bool       use_icache;
  58:../DaisyExamples/libDaisy//src/sys/system.h ****         bool       skip_clocks;
  59:../DaisyExamples/libDaisy//src/sys/system.h ****     };
  60:../DaisyExamples/libDaisy//src/sys/system.h **** 
  61:../DaisyExamples/libDaisy//src/sys/system.h ****     /** Describes the different regions of memory available to the Daisy */
  62:../DaisyExamples/libDaisy//src/sys/system.h ****     enum MemoryRegion
  63:../DaisyExamples/libDaisy//src/sys/system.h ****     {
  64:../DaisyExamples/libDaisy//src/sys/system.h ****         INTERNAL_FLASH = 0,
  65:../DaisyExamples/libDaisy//src/sys/system.h ****         ITCMRAM,
  66:../DaisyExamples/libDaisy//src/sys/system.h ****         DTCMRAM,
  67:../DaisyExamples/libDaisy//src/sys/system.h ****         SRAM_D1,
  68:../DaisyExamples/libDaisy//src/sys/system.h ****         SRAM_D2,
  69:../DaisyExamples/libDaisy//src/sys/system.h ****         SRAM_D3,
  70:../DaisyExamples/libDaisy//src/sys/system.h ****         SDRAM,
  71:../DaisyExamples/libDaisy//src/sys/system.h ****         QSPI,
  72:../DaisyExamples/libDaisy//src/sys/system.h ****         INVALID_ADDRESS,
  73:../DaisyExamples/libDaisy//src/sys/system.h ****     };
  74:../DaisyExamples/libDaisy//src/sys/system.h **** 
  75:../DaisyExamples/libDaisy//src/sys/system.h ****     /** Bootloader struct for controlling bootloading parameters */
  76:../DaisyExamples/libDaisy//src/sys/system.h ****     struct BootInfo
  77:../DaisyExamples/libDaisy//src/sys/system.h ****     {
  78:../DaisyExamples/libDaisy//src/sys/system.h ****         enum class Type : uint32_t
  79:../DaisyExamples/libDaisy//src/sys/system.h ****         {
  80:../DaisyExamples/libDaisy//src/sys/system.h ****             INVALID      = 0x00000000,
  81:../DaisyExamples/libDaisy//src/sys/system.h ****             JUMP         = 0xDEADBEEF,
  82:../DaisyExamples/libDaisy//src/sys/system.h ****             SKIP_TIMEOUT = 0x5AFEB007,
  83:../DaisyExamples/libDaisy//src/sys/system.h ****             INF_TIMEOUT  = 0xB0074EFA,
  84:../DaisyExamples/libDaisy//src/sys/system.h ****         } status;
  85:../DaisyExamples/libDaisy//src/sys/system.h ****         uint32_t data;
  86:../DaisyExamples/libDaisy//src/sys/system.h ****         enum class Version : uint32_t
  87:../DaisyExamples/libDaisy//src/sys/system.h ****         {
  88:../DaisyExamples/libDaisy//src/sys/system.h ****             LT_v6_0 = 0, // Less than v6.0
  89:../DaisyExamples/libDaisy//src/sys/system.h ****             NONE,        // No bootloader present
  90:../DaisyExamples/libDaisy//src/sys/system.h ****             v6_0,        // v6.0
  91:../DaisyExamples/libDaisy//src/sys/system.h ****             v6_1,        // v6.1 or greater
  92:../DaisyExamples/libDaisy//src/sys/system.h ****             LAST
  93:../DaisyExamples/libDaisy//src/sys/system.h ****         } version;
  94:../DaisyExamples/libDaisy//src/sys/system.h ****     };
  95:../DaisyExamples/libDaisy//src/sys/system.h **** 
  96:../DaisyExamples/libDaisy//src/sys/system.h ****     System() {}
  97:../DaisyExamples/libDaisy//src/sys/system.h ****     ~System() {}
  62              		.loc 3 97 5 view .LVU3
  63              		.loc 3 97 5 is_stmt 0 view .LVU4
  64              	.LBE1876:
  65              	.LBB1877:
  66              	.LBI1877:
  67              		.file 4 "../DaisyExamples/libDaisy//src/hid/usb.h"
   1:../DaisyExamples/libDaisy//src/hid/usb.h **** #pragma once
   2:../DaisyExamples/libDaisy//src/hid/usb.h **** #ifndef DSY_HID_USB_H
   3:../DaisyExamples/libDaisy//src/hid/usb.h **** #define DSY_HID_USB_H
ARM GAS  /var/folders/41/s_9r3f9s4p3_9jgx7wszdkhh0000gn/T//ccQQceQd.s 			page 5


   4:../DaisyExamples/libDaisy//src/hid/usb.h **** #include <stdint.h>
   5:../DaisyExamples/libDaisy//src/hid/usb.h **** #include <stdlib.h>
   6:../DaisyExamples/libDaisy//src/hid/usb.h **** 
   7:../DaisyExamples/libDaisy//src/hid/usb.h **** namespace daisy
   8:../DaisyExamples/libDaisy//src/hid/usb.h **** /** @addtogroup human_interface
   9:../DaisyExamples/libDaisy//src/hid/usb.h ****     @{
  10:../DaisyExamples/libDaisy//src/hid/usb.h **** */
  11:../DaisyExamples/libDaisy//src/hid/usb.h **** 
  12:../DaisyExamples/libDaisy//src/hid/usb.h **** {
  13:../DaisyExamples/libDaisy//src/hid/usb.h **** /** 
  14:../DaisyExamples/libDaisy//src/hid/usb.h ****     @brief Interface for initializing and using the USB Peripherals on the daisy
  15:../DaisyExamples/libDaisy//src/hid/usb.h ****     @author Stephen Hensley
  16:../DaisyExamples/libDaisy//src/hid/usb.h ****     @date December 2019
  17:../DaisyExamples/libDaisy//src/hid/usb.h **** */
  18:../DaisyExamples/libDaisy//src/hid/usb.h **** class UsbHandle
  19:../DaisyExamples/libDaisy//src/hid/usb.h **** {
  20:../DaisyExamples/libDaisy//src/hid/usb.h ****   public:
  21:../DaisyExamples/libDaisy//src/hid/usb.h ****     /** Return values for USBHandle Functions */
  22:../DaisyExamples/libDaisy//src/hid/usb.h ****     enum class Result
  23:../DaisyExamples/libDaisy//src/hid/usb.h ****     {
  24:../DaisyExamples/libDaisy//src/hid/usb.h ****         OK,
  25:../DaisyExamples/libDaisy//src/hid/usb.h ****         ERR,
  26:../DaisyExamples/libDaisy//src/hid/usb.h ****     };
  27:../DaisyExamples/libDaisy//src/hid/usb.h **** 
  28:../DaisyExamples/libDaisy//src/hid/usb.h ****     /** Specified which of the two USB Peripherals to initialize. */
  29:../DaisyExamples/libDaisy//src/hid/usb.h ****     enum UsbPeriph
  30:../DaisyExamples/libDaisy//src/hid/usb.h ****     {
  31:../DaisyExamples/libDaisy//src/hid/usb.h ****         FS_INTERNAL, /**< Internal pin */
  32:../DaisyExamples/libDaisy//src/hid/usb.h ****         FS_EXTERNAL, /**< FS External D+ pin is Pin 38 (GPIO32). FS External D- pin is Pin 37 (GPIO
  33:../DaisyExamples/libDaisy//src/hid/usb.h ****         FS_BOTH,     /**< Both */
  34:../DaisyExamples/libDaisy//src/hid/usb.h ****     };
  35:../DaisyExamples/libDaisy//src/hid/usb.h **** 
  36:../DaisyExamples/libDaisy//src/hid/usb.h **** 
  37:../DaisyExamples/libDaisy//src/hid/usb.h ****     /** Function called upon reception of a buffer */
  38:../DaisyExamples/libDaisy//src/hid/usb.h ****     typedef void (*ReceiveCallback)(uint8_t* buff, uint32_t* len);
  39:../DaisyExamples/libDaisy//src/hid/usb.h **** 
  40:../DaisyExamples/libDaisy//src/hid/usb.h ****     UsbHandle() {}
  41:../DaisyExamples/libDaisy//src/hid/usb.h **** 
  42:../DaisyExamples/libDaisy//src/hid/usb.h ****     ~UsbHandle() {}
  68              		.loc 4 42 5 is_stmt 1 view .LVU5
  69              		.loc 4 42 5 is_stmt 0 view .LVU6
  70              	.LBE1877:
  71              	.LBB1878:
  72              	.LBI1878:
  73              		.file 5 "../DaisyExamples/libDaisy//src/per/adc.h"
   1:../DaisyExamples/libDaisy//src/per/adc.h **** #pragma once
   2:../DaisyExamples/libDaisy//src/per/adc.h **** #ifndef DSY_ADC_H
   3:../DaisyExamples/libDaisy//src/per/adc.h **** #define DSY_ADC_H /**< Macro */
   4:../DaisyExamples/libDaisy//src/per/adc.h **** #include <stdint.h>
   5:../DaisyExamples/libDaisy//src/per/adc.h **** #include <stdlib.h>
   6:../DaisyExamples/libDaisy//src/per/adc.h **** #include "daisy_core.h"
   7:../DaisyExamples/libDaisy//src/per/adc.h **** #include "per/gpio.h"
   8:../DaisyExamples/libDaisy//src/per/adc.h **** 
   9:../DaisyExamples/libDaisy//src/per/adc.h **** #define DSY_ADC_MAX_CHANNELS 16 /**< Maximum number of ADC channels */
  10:../DaisyExamples/libDaisy//src/per/adc.h **** 
  11:../DaisyExamples/libDaisy//src/per/adc.h **** namespace daisy
  12:../DaisyExamples/libDaisy//src/per/adc.h **** {
ARM GAS  /var/folders/41/s_9r3f9s4p3_9jgx7wszdkhh0000gn/T//ccQQceQd.s 			page 6


  13:../DaisyExamples/libDaisy//src/per/adc.h **** /** @addtogroup per_analog
  14:../DaisyExamples/libDaisy//src/per/adc.h ****     @{
  15:../DaisyExamples/libDaisy//src/per/adc.h **** */
  16:../DaisyExamples/libDaisy//src/per/adc.h **** 
  17:../DaisyExamples/libDaisy//src/per/adc.h **** /* While there may not be many configuration options here,
  18:../DaisyExamples/libDaisy//src/per/adc.h **** using a struct like this allows us to add more configuration
  19:../DaisyExamples/libDaisy//src/per/adc.h **** later without breaking existing functionality.
  20:../DaisyExamples/libDaisy//src/per/adc.h **** */
  21:../DaisyExamples/libDaisy//src/per/adc.h **** 
  22:../DaisyExamples/libDaisy//src/per/adc.h **** /** @brief   Configuration Structure for an ADC Channel 
  23:../DaisyExamples/libDaisy//src/per/adc.h ****  *  @details This can be used to configure a a single input, 
  24:../DaisyExamples/libDaisy//src/per/adc.h ****  *           or a multiplexed input, allowing up to 8 inputs on 
  25:../DaisyExamples/libDaisy//src/per/adc.h ****  *           one channel.
  26:../DaisyExamples/libDaisy//src/per/adc.h ****  *  @note    Sharing data lines to multiple muxes _is_ possible, but
  27:../DaisyExamples/libDaisy//src/per/adc.h ****  *           each channel sharing data lines must be set to the maximum
  28:../DaisyExamples/libDaisy//src/per/adc.h ****  *           number of channels, even if some multiplexers have fewer
  29:../DaisyExamples/libDaisy//src/per/adc.h ****  *           inputs connected.
  30:../DaisyExamples/libDaisy//src/per/adc.h **** */
  31:../DaisyExamples/libDaisy//src/per/adc.h **** struct AdcChannelConfig
  32:../DaisyExamples/libDaisy//src/per/adc.h **** {
  33:../DaisyExamples/libDaisy//src/per/adc.h ****     /** Which pin to use for multiplexing */
  34:../DaisyExamples/libDaisy//src/per/adc.h ****     enum MuxPin
  35:../DaisyExamples/libDaisy//src/per/adc.h ****     {
  36:../DaisyExamples/libDaisy//src/per/adc.h ****         MUX_SEL_0,    /**< & */
  37:../DaisyExamples/libDaisy//src/per/adc.h ****         MUX_SEL_1,    /**< & */
  38:../DaisyExamples/libDaisy//src/per/adc.h ****         MUX_SEL_2,    /**< & */
  39:../DaisyExamples/libDaisy//src/per/adc.h ****         MUX_SEL_LAST, /**< & */
  40:../DaisyExamples/libDaisy//src/per/adc.h ****     };
  41:../DaisyExamples/libDaisy//src/per/adc.h **** 
  42:../DaisyExamples/libDaisy//src/per/adc.h ****     /** \brief per channel conversion speed added to fixed time based on bitdepth, etc. */
  43:../DaisyExamples/libDaisy//src/per/adc.h ****     enum ConversionSpeed
  44:../DaisyExamples/libDaisy//src/per/adc.h ****     {
  45:../DaisyExamples/libDaisy//src/per/adc.h ****         SPEED_1CYCLES_5,
  46:../DaisyExamples/libDaisy//src/per/adc.h ****         SPEED_2CYCLES_5,
  47:../DaisyExamples/libDaisy//src/per/adc.h ****         SPEED_8CYCLES_5,
  48:../DaisyExamples/libDaisy//src/per/adc.h ****         SPEED_16CYCLES_5,
  49:../DaisyExamples/libDaisy//src/per/adc.h ****         SPEED_32CYCLES_5,
  50:../DaisyExamples/libDaisy//src/per/adc.h ****         SPEED_64CYCLES_5,
  51:../DaisyExamples/libDaisy//src/per/adc.h ****         SPEED_387CYCLES_5,
  52:../DaisyExamples/libDaisy//src/per/adc.h ****         SPEED_810CYCLES_5,
  53:../DaisyExamples/libDaisy//src/per/adc.h ****     };
  54:../DaisyExamples/libDaisy//src/per/adc.h **** 
  55:../DaisyExamples/libDaisy//src/per/adc.h ****     /** Initializes a single ADC pin as an ADC. 
  56:../DaisyExamples/libDaisy//src/per/adc.h ****     \param pin Pin to init.
  57:../DaisyExamples/libDaisy//src/per/adc.h ****     \param speed conversion speed for this pin defaults to 8.5 cycles
  58:../DaisyExamples/libDaisy//src/per/adc.h ****      */
  59:../DaisyExamples/libDaisy//src/per/adc.h ****     void InitSingle(dsy_gpio_pin pin, ConversionSpeed speed = SPEED_8CYCLES_5);
  60:../DaisyExamples/libDaisy//src/per/adc.h **** 
  61:../DaisyExamples/libDaisy//src/per/adc.h ****     /** 
  62:../DaisyExamples/libDaisy//src/per/adc.h ****     Initializes a single ADC pin as a Multiplexed ADC.
  63:../DaisyExamples/libDaisy//src/per/adc.h ****     Requires a CD405X Multiplexer connected to the pin.
  64:../DaisyExamples/libDaisy//src/per/adc.h ****     You only need to supply the mux pins that are required,
  65:../DaisyExamples/libDaisy//src/per/adc.h ****     e.g. a 4052 mux would only require mux_0 and mux_1.
  66:../DaisyExamples/libDaisy//src/per/adc.h ****     Internal Callbacks handle the pin addressing.
  67:../DaisyExamples/libDaisy//src/per/adc.h ****     \param adc_pin &
  68:../DaisyExamples/libDaisy//src/per/adc.h ****     \param mux_channels must be 1-8
  69:../DaisyExamples/libDaisy//src/per/adc.h ****     \param mux_0 First mux pin
ARM GAS  /var/folders/41/s_9r3f9s4p3_9jgx7wszdkhh0000gn/T//ccQQceQd.s 			page 7


  70:../DaisyExamples/libDaisy//src/per/adc.h ****     \param mux_1 Second mux pin
  71:../DaisyExamples/libDaisy//src/per/adc.h ****     \param mux_2 Third mux pin
  72:../DaisyExamples/libDaisy//src/per/adc.h ****     \param speed conversion speed for this pin defaults to 8.5 cycles
  73:../DaisyExamples/libDaisy//src/per/adc.h ****     */
  74:../DaisyExamples/libDaisy//src/per/adc.h ****     void InitMux(dsy_gpio_pin    adc_pin,
  75:../DaisyExamples/libDaisy//src/per/adc.h ****                  size_t          mux_channels,
  76:../DaisyExamples/libDaisy//src/per/adc.h ****                  dsy_gpio_pin    mux_0,
  77:../DaisyExamples/libDaisy//src/per/adc.h ****                  dsy_gpio_pin    mux_1 = {DSY_GPIOX, 0},
  78:../DaisyExamples/libDaisy//src/per/adc.h ****                  dsy_gpio_pin    mux_2 = {DSY_GPIOX, 0},
  79:../DaisyExamples/libDaisy//src/per/adc.h ****                  ConversionSpeed speed = SPEED_8CYCLES_5);
  80:../DaisyExamples/libDaisy//src/per/adc.h **** 
  81:../DaisyExamples/libDaisy//src/per/adc.h ****     dsy_gpio        pin_;                   /**< & */
  82:../DaisyExamples/libDaisy//src/per/adc.h ****     dsy_gpio        mux_pin_[MUX_SEL_LAST]; /**< & */
  83:../DaisyExamples/libDaisy//src/per/adc.h ****     uint8_t         mux_channels_;          /**< & */
  84:../DaisyExamples/libDaisy//src/per/adc.h ****     ConversionSpeed speed_;
  85:../DaisyExamples/libDaisy//src/per/adc.h **** };
  86:../DaisyExamples/libDaisy//src/per/adc.h **** 
  87:../DaisyExamples/libDaisy//src/per/adc.h **** /**
  88:../DaisyExamples/libDaisy//src/per/adc.h ****    @brief Handler for analog to digital conversion
  89:../DaisyExamples/libDaisy//src/per/adc.h **** */
  90:../DaisyExamples/libDaisy//src/per/adc.h **** class AdcHandle
  91:../DaisyExamples/libDaisy//src/per/adc.h **** {
  92:../DaisyExamples/libDaisy//src/per/adc.h ****   public:
  93:../DaisyExamples/libDaisy//src/per/adc.h ****     /** Supported oversampling amounts */
  94:../DaisyExamples/libDaisy//src/per/adc.h ****     enum OverSampling
  95:../DaisyExamples/libDaisy//src/per/adc.h ****     {
  96:../DaisyExamples/libDaisy//src/per/adc.h ****         OVS_NONE, /**< & */
  97:../DaisyExamples/libDaisy//src/per/adc.h ****         OVS_4,    /**< & */
  98:../DaisyExamples/libDaisy//src/per/adc.h ****         OVS_8,    /**< & */
  99:../DaisyExamples/libDaisy//src/per/adc.h ****         OVS_16,   /**< & */
 100:../DaisyExamples/libDaisy//src/per/adc.h ****         OVS_32,   /**< & */
 101:../DaisyExamples/libDaisy//src/per/adc.h ****         OVS_64,   /**< & */
 102:../DaisyExamples/libDaisy//src/per/adc.h ****         OVS_128,  /**< & */
 103:../DaisyExamples/libDaisy//src/per/adc.h ****         OVS_256,  /**< & */
 104:../DaisyExamples/libDaisy//src/per/adc.h ****         OVS_512,  /**< & */
 105:../DaisyExamples/libDaisy//src/per/adc.h ****         OVS_1024, /**< & */
 106:../DaisyExamples/libDaisy//src/per/adc.h ****         OVS_LAST, /**< & */
 107:../DaisyExamples/libDaisy//src/per/adc.h ****     };
 108:../DaisyExamples/libDaisy//src/per/adc.h **** 
 109:../DaisyExamples/libDaisy//src/per/adc.h ****     AdcHandle() {}
 110:../DaisyExamples/libDaisy//src/per/adc.h ****     ~AdcHandle() {}
  74              		.loc 5 110 5 is_stmt 1 view .LVU7
  75              		.loc 5 110 5 is_stmt 0 view .LVU8
  76              	.LBE1878:
  77              	.LBB1879:
  78              	.LBI1879:
  79              		.file 6 "../DaisyExamples/libDaisy//src/hid/audio.h"
   1:../DaisyExamples/libDaisy//src/hid/audio.h **** #ifndef DSY_AUDIO_H
   2:../DaisyExamples/libDaisy//src/hid/audio.h **** #define DSY_AUDIO_H /**< & */
   3:../DaisyExamples/libDaisy//src/hid/audio.h **** 
   4:../DaisyExamples/libDaisy//src/hid/audio.h **** #include "per/sai.h"
   5:../DaisyExamples/libDaisy//src/hid/audio.h **** 
   6:../DaisyExamples/libDaisy//src/hid/audio.h **** namespace daisy
   7:../DaisyExamples/libDaisy//src/hid/audio.h **** {
   8:../DaisyExamples/libDaisy//src/hid/audio.h **** /** @brief Audio Engine Handle
   9:../DaisyExamples/libDaisy//src/hid/audio.h ****  *  @ingroup audio 
  10:../DaisyExamples/libDaisy//src/hid/audio.h ****  *  @details This class allows for higher level access to an audio engine.
ARM GAS  /var/folders/41/s_9r3f9s4p3_9jgx7wszdkhh0000gn/T//ccQQceQd.s 			page 8


  11:../DaisyExamples/libDaisy//src/hid/audio.h ****  *           If you're using a SOM like the DaisySeed or DaisyPatchSM (or any 
  12:../DaisyExamples/libDaisy//src/hid/audio.h ****  *            board that includes one of those objects) then the intialization
  13:../DaisyExamples/libDaisy//src/hid/audio.h ****  *            is already taken  care of.
  14:../DaisyExamples/libDaisy//src/hid/audio.h ****  *           If you're setting up your own custom hardware, or need to make changes
  15:../DaisyExamples/libDaisy//src/hid/audio.h ****  *           you will have to take the following steps:
  16:../DaisyExamples/libDaisy//src/hid/audio.h ****  *             1. Create and Initialize an SaiHandle or two depending on your requirements
  17:../DaisyExamples/libDaisy//src/hid/audio.h ****  *             2. Initialize the Audio Handle with the desired settings and the Initialized SaiHand
  18:../DaisyExamples/libDaisy//src/hid/audio.h ****  *             3. If the connected codec requires special configuration or initialization, do so
  19:../DaisyExamples/libDaisy//src/hid/audio.h ****  *             4. Write a callback method using either the AudioCallback or the InterleavingAudioCa
  20:../DaisyExamples/libDaisy//src/hid/audio.h ****  *             5. Start the Audio using one of the StartAudio function
  21:../DaisyExamples/libDaisy//src/hid/audio.h ****  */
  22:../DaisyExamples/libDaisy//src/hid/audio.h **** class AudioHandle
  23:../DaisyExamples/libDaisy//src/hid/audio.h **** {
  24:../DaisyExamples/libDaisy//src/hid/audio.h ****   public:
  25:../DaisyExamples/libDaisy//src/hid/audio.h ****     /** Manually configurable details about the Audio Engine */
  26:../DaisyExamples/libDaisy//src/hid/audio.h ****     /** TODO: Figure out how to get samplerate in here. */
  27:../DaisyExamples/libDaisy//src/hid/audio.h ****     struct Config
  28:../DaisyExamples/libDaisy//src/hid/audio.h ****     {
  29:../DaisyExamples/libDaisy//src/hid/audio.h ****         /** number of samples to process per callback */
  30:../DaisyExamples/libDaisy//src/hid/audio.h ****         size_t blocksize;
  31:../DaisyExamples/libDaisy//src/hid/audio.h **** 
  32:../DaisyExamples/libDaisy//src/hid/audio.h ****         /**< Sample rate of audio */
  33:../DaisyExamples/libDaisy//src/hid/audio.h ****         SaiHandle::Config::SampleRate samplerate;
  34:../DaisyExamples/libDaisy//src/hid/audio.h **** 
  35:../DaisyExamples/libDaisy//src/hid/audio.h ****         /** factor for adjustment before and after callback for hardware that may have extra headro
  36:../DaisyExamples/libDaisy//src/hid/audio.h ****         float postgain;
  37:../DaisyExamples/libDaisy//src/hid/audio.h **** 
  38:../DaisyExamples/libDaisy//src/hid/audio.h ****         /** factor for additional one-sided compensation to audio path for hardware that may
  39:../DaisyExamples/libDaisy//src/hid/audio.h ****          *  have unequal input/output ranges
  40:../DaisyExamples/libDaisy//src/hid/audio.h ****          */
  41:../DaisyExamples/libDaisy//src/hid/audio.h ****         float output_compensation;
  42:../DaisyExamples/libDaisy//src/hid/audio.h **** 
  43:../DaisyExamples/libDaisy//src/hid/audio.h ****         /** Sets default values for config struct */
  44:../DaisyExamples/libDaisy//src/hid/audio.h ****         Config()
  45:../DaisyExamples/libDaisy//src/hid/audio.h ****         : blocksize(48),
  46:../DaisyExamples/libDaisy//src/hid/audio.h ****           samplerate(SaiHandle::Config::SampleRate::SAI_48KHZ),
  47:../DaisyExamples/libDaisy//src/hid/audio.h ****           postgain(1.f),
  48:../DaisyExamples/libDaisy//src/hid/audio.h ****           output_compensation(1.f)
  49:../DaisyExamples/libDaisy//src/hid/audio.h ****         {
  50:../DaisyExamples/libDaisy//src/hid/audio.h ****         }
  51:../DaisyExamples/libDaisy//src/hid/audio.h ****     };
  52:../DaisyExamples/libDaisy//src/hid/audio.h **** 
  53:../DaisyExamples/libDaisy//src/hid/audio.h ****     enum class Result
  54:../DaisyExamples/libDaisy//src/hid/audio.h ****     {
  55:../DaisyExamples/libDaisy//src/hid/audio.h ****         OK,
  56:../DaisyExamples/libDaisy//src/hid/audio.h ****         ERR,
  57:../DaisyExamples/libDaisy//src/hid/audio.h ****     };
  58:../DaisyExamples/libDaisy//src/hid/audio.h **** 
  59:../DaisyExamples/libDaisy//src/hid/audio.h ****     /** Non-Interleaving input buffer
  60:../DaisyExamples/libDaisy//src/hid/audio.h ****      * Buffer arranged by float[chn][sample] 
  61:../DaisyExamples/libDaisy//src/hid/audio.h ****      * const so that the user can't modify the input
  62:../DaisyExamples/libDaisy//src/hid/audio.h ****      */
  63:../DaisyExamples/libDaisy//src/hid/audio.h ****     typedef const float* const* InputBuffer;
  64:../DaisyExamples/libDaisy//src/hid/audio.h **** 
  65:../DaisyExamples/libDaisy//src/hid/audio.h ****     /** Non-Interleaving output buffer
  66:../DaisyExamples/libDaisy//src/hid/audio.h ****      * Arranged by float[chn][sample] 
  67:../DaisyExamples/libDaisy//src/hid/audio.h ****      */
ARM GAS  /var/folders/41/s_9r3f9s4p3_9jgx7wszdkhh0000gn/T//ccQQceQd.s 			page 9


  68:../DaisyExamples/libDaisy//src/hid/audio.h ****     typedef float** OutputBuffer;
  69:../DaisyExamples/libDaisy//src/hid/audio.h **** 
  70:../DaisyExamples/libDaisy//src/hid/audio.h ****     /** Type for a Non-Interleaving audio callback 
  71:../DaisyExamples/libDaisy//src/hid/audio.h ****      * Non-Interleaving audio callbacks in daisy will be of this type
  72:../DaisyExamples/libDaisy//src/hid/audio.h ****      */
  73:../DaisyExamples/libDaisy//src/hid/audio.h ****     typedef void (*AudioCallback)(InputBuffer  in,
  74:../DaisyExamples/libDaisy//src/hid/audio.h ****                                   OutputBuffer out,
  75:../DaisyExamples/libDaisy//src/hid/audio.h ****                                   size_t       size);
  76:../DaisyExamples/libDaisy//src/hid/audio.h **** 
  77:../DaisyExamples/libDaisy//src/hid/audio.h ****     /** Interleaving Input buffer
  78:../DaisyExamples/libDaisy//src/hid/audio.h ****      ** audio is prepared as { L0, R0, L1, R1, . . . LN, RN }]
  79:../DaisyExamples/libDaisy//src/hid/audio.h ****      ** this is const, as the user shouldn't modify it
  80:../DaisyExamples/libDaisy//src/hid/audio.h ****     */
  81:../DaisyExamples/libDaisy//src/hid/audio.h ****     typedef const float* InterleavingInputBuffer;
  82:../DaisyExamples/libDaisy//src/hid/audio.h **** 
  83:../DaisyExamples/libDaisy//src/hid/audio.h ****     /** Interleaving Output buffer 
  84:../DaisyExamples/libDaisy//src/hid/audio.h ****      ** audio is prepared as { L0, R0, L1, R1, . . . LN, RN }
  85:../DaisyExamples/libDaisy//src/hid/audio.h ****     */
  86:../DaisyExamples/libDaisy//src/hid/audio.h ****     typedef float* InterleavingOutputBuffer;
  87:../DaisyExamples/libDaisy//src/hid/audio.h **** 
  88:../DaisyExamples/libDaisy//src/hid/audio.h ****     /** Interleaving Audio Callback 
  89:../DaisyExamples/libDaisy//src/hid/audio.h ****      * Interleaving audio callbacks in daisy must be of this type
  90:../DaisyExamples/libDaisy//src/hid/audio.h ****      */
  91:../DaisyExamples/libDaisy//src/hid/audio.h ****     typedef void (*InterleavingAudioCallback)(InterleavingInputBuffer  in,
  92:../DaisyExamples/libDaisy//src/hid/audio.h ****                                               InterleavingOutputBuffer out,
  93:../DaisyExamples/libDaisy//src/hid/audio.h ****                                               size_t                   size);
  94:../DaisyExamples/libDaisy//src/hid/audio.h **** 
  95:../DaisyExamples/libDaisy//src/hid/audio.h ****     AudioHandle() : pimpl_(nullptr) {}
  96:../DaisyExamples/libDaisy//src/hid/audio.h ****     ~AudioHandle() {}
  80              		.loc 6 96 5 is_stmt 1 view .LVU9
  81              		.loc 6 96 5 is_stmt 0 view .LVU10
  82              	.LBE1879:
  83              		.loc 2 22 19 view .LVU11
  84 0000 7047     		bx	lr
  85              		.cfi_endproc
  86              	.LFE2556:
  88              		.weak	_ZN5daisy9DaisySeedD1Ev
  89              		.thumb_set _ZN5daisy9DaisySeedD1Ev,_ZN5daisy9DaisySeedD2Ev
  90 0002 00BF     		.section	.text._ZN6ButtonD2Ev,"axG",%progbits,_ZN6ButtonD5Ev,comdat
  91              		.align	1
  92              		.p2align 2,,3
  93              		.weak	_ZN6ButtonD2Ev
  94              		.syntax unified
  95              		.thumb
  96              		.thumb_func
  98              	_ZN6ButtonD2Ev:
  99              	.LVL2:
 100              	.LFB4939:
 101              		.file 7 "src/UI/button.h"
   1:src/UI/button.h **** #ifndef button_h
   2:src/UI/button.h **** #define button_h
   3:src/UI/button.h **** 
   4:src/UI/button.h **** #include "daisy_seed.h"
   5:src/UI/button.h **** #include "daisysp.h"
   6:src/UI/button.h **** 
   7:src/UI/button.h **** using namespace daisy;
   8:src/UI/button.h **** using namespace daisysp;
ARM GAS  /var/folders/41/s_9r3f9s4p3_9jgx7wszdkhh0000gn/T//ccQQceQd.s 			page 10


   9:src/UI/button.h **** 
  10:src/UI/button.h **** class Button {
  11:src/UI/button.h **** private:
  12:src/UI/button.h ****     Switch button;
  13:src/UI/button.h ****     uint32_t timeAtPress;
  14:src/UI/button.h ****     void (*buttonCallback)();
  15:src/UI/button.h ****     int delay;
  16:src/UI/button.h ****     bool pressed;
  17:src/UI/button.h **** public:
  18:src/UI/button.h ****     Button(){}
  19:src/UI/button.h ****     ~Button(){}
 102              		.loc 7 19 5 is_stmt 1 view -0
 103              		.cfi_startproc
 104              		@ args = 0, pretend = 0, frame = 0
 105              		@ frame_needed = 0, uses_anonymous_args = 0
 106              		@ link register save eliminated.
 107              	.LBB1880:
 108              	.LBI1880:
 109              		.loc 1 42 5 view .LVU13
 110              		.loc 1 42 5 is_stmt 0 view .LVU14
 111              	.LBE1880:
 112              		.loc 7 19 15 view .LVU15
 113 0000 7047     		bx	lr
 114              		.cfi_endproc
 115              	.LFE4939:
 117              		.weak	_ZN6ButtonD1Ev
 118              		.thumb_set _ZN6ButtonD1Ev,_ZN6ButtonD2Ev
 119 0002 00BF     		.section	.text._ZN5daisy11OledDisplayINS_13SSD130xDriverILj128ELj64ENS_19SSD130xI2CTransportEEEED2
 120              		.align	1
 121              		.p2align 2,,3
 122              		.weak	_ZN5daisy11OledDisplayINS_13SSD130xDriverILj128ELj64ENS_19SSD130xI2CTransportEEEED2Ev
 123              		.syntax unified
 124              		.thumb
 125              		.thumb_func
 127              	_ZN5daisy11OledDisplayINS_13SSD130xDriverILj128ELj64ENS_19SSD130xI2CTransportEEEED2Ev:
 128              	.LVL3:
 129              	.LFB6022:
 130              		.file 8 "../DaisyExamples/libDaisy//src/hid/disp/oled_display.h"
   1:../DaisyExamples/libDaisy//src/hid/disp/oled_display.h **** #pragma once
   2:../DaisyExamples/libDaisy//src/hid/disp/oled_display.h **** #ifndef DSY_OLED_DISPLAY_H
   3:../DaisyExamples/libDaisy//src/hid/disp/oled_display.h **** #define DSY_OLED_DISPLAY_H /**< Macro */
   4:../DaisyExamples/libDaisy//src/hid/disp/oled_display.h **** 
   5:../DaisyExamples/libDaisy//src/hid/disp/oled_display.h **** #include "display.h"
   6:../DaisyExamples/libDaisy//src/hid/disp/oled_display.h **** 
   7:../DaisyExamples/libDaisy//src/hid/disp/oled_display.h **** namespace daisy
   8:../DaisyExamples/libDaisy//src/hid/disp/oled_display.h **** {
   9:../DaisyExamples/libDaisy//src/hid/disp/oled_display.h **** /** 
  10:../DaisyExamples/libDaisy//src/hid/disp/oled_display.h ****  * This class is for drawing to a monochrome OLED display. 
  11:../DaisyExamples/libDaisy//src/hid/disp/oled_display.h ****  * @ingroup device
  12:../DaisyExamples/libDaisy//src/hid/disp/oled_display.h **** */
  13:../DaisyExamples/libDaisy//src/hid/disp/oled_display.h **** template <typename DisplayDriver>
  14:../DaisyExamples/libDaisy//src/hid/disp/oled_display.h **** class OledDisplay : public OneBitGraphicsDisplayImpl<OledDisplay<DisplayDriver>>
  15:../DaisyExamples/libDaisy//src/hid/disp/oled_display.h **** {
  16:../DaisyExamples/libDaisy//src/hid/disp/oled_display.h ****   public:
  17:../DaisyExamples/libDaisy//src/hid/disp/oled_display.h ****     OledDisplay() {}
  18:../DaisyExamples/libDaisy//src/hid/disp/oled_display.h ****     virtual ~OledDisplay() {}
 131              		.loc 8 18 13 is_stmt 1 view -0
ARM GAS  /var/folders/41/s_9r3f9s4p3_9jgx7wszdkhh0000gn/T//ccQQceQd.s 			page 11


 132              		.cfi_startproc
 133              		@ args = 0, pretend = 0, frame = 0
 134              		@ frame_needed = 0, uses_anonymous_args = 0
 135              		@ link register save eliminated.
 136              	.LBB1881:
 137              	.LBI1881:
 138              		.file 9 "../DaisyExamples/libDaisy//src/hid/disp/display.h"
   1:../DaisyExamples/libDaisy//src/hid/disp/display.h **** #pragma once
   2:../DaisyExamples/libDaisy//src/hid/disp/display.h **** #ifndef DSY_DISPLAY_H
   3:../DaisyExamples/libDaisy//src/hid/disp/display.h **** #define DSY_DISPLAY_H /**< Macro */
   4:../DaisyExamples/libDaisy//src/hid/disp/display.h **** #include <cmath>
   5:../DaisyExamples/libDaisy//src/hid/disp/display.h **** #include "util/oled_fonts.h"
   6:../DaisyExamples/libDaisy//src/hid/disp/display.h **** #include "daisy_core.h"
   7:../DaisyExamples/libDaisy//src/hid/disp/display.h **** #include "graphics_common.h"
   8:../DaisyExamples/libDaisy//src/hid/disp/display.h **** 
   9:../DaisyExamples/libDaisy//src/hid/disp/display.h **** #ifndef deg2rad
  10:../DaisyExamples/libDaisy//src/hid/disp/display.h **** #define deg2rad(deg) ((deg)*3.141592 / 180.0)
  11:../DaisyExamples/libDaisy//src/hid/disp/display.h **** #endif
  12:../DaisyExamples/libDaisy//src/hid/disp/display.h **** 
  13:../DaisyExamples/libDaisy//src/hid/disp/display.h **** namespace daisy
  14:../DaisyExamples/libDaisy//src/hid/disp/display.h **** {
  15:../DaisyExamples/libDaisy//src/hid/disp/display.h **** /** 
  16:../DaisyExamples/libDaisy//src/hid/disp/display.h ****  * This interface is used as a base class for all types of 1bit-per-pixel
  17:../DaisyExamples/libDaisy//src/hid/disp/display.h ****  * graphics displays.
  18:../DaisyExamples/libDaisy//src/hid/disp/display.h **** */
  19:../DaisyExamples/libDaisy//src/hid/disp/display.h **** class OneBitGraphicsDisplay
  20:../DaisyExamples/libDaisy//src/hid/disp/display.h **** {
  21:../DaisyExamples/libDaisy//src/hid/disp/display.h ****   public:
  22:../DaisyExamples/libDaisy//src/hid/disp/display.h ****     OneBitGraphicsDisplay() {}
  23:../DaisyExamples/libDaisy//src/hid/disp/display.h ****     virtual ~OneBitGraphicsDisplay() {}
  24:../DaisyExamples/libDaisy//src/hid/disp/display.h **** 
  25:../DaisyExamples/libDaisy//src/hid/disp/display.h ****     virtual uint16_t Height() const = 0;
  26:../DaisyExamples/libDaisy//src/hid/disp/display.h ****     virtual uint16_t Width() const  = 0;
  27:../DaisyExamples/libDaisy//src/hid/disp/display.h **** 
  28:../DaisyExamples/libDaisy//src/hid/disp/display.h ****     Rectangle GetBounds() const
  29:../DaisyExamples/libDaisy//src/hid/disp/display.h ****     {
  30:../DaisyExamples/libDaisy//src/hid/disp/display.h ****         return Rectangle(int16_t(Width()), int16_t(Height()));
  31:../DaisyExamples/libDaisy//src/hid/disp/display.h ****     }
  32:../DaisyExamples/libDaisy//src/hid/disp/display.h **** 
  33:../DaisyExamples/libDaisy//src/hid/disp/display.h **** 
  34:../DaisyExamples/libDaisy//src/hid/disp/display.h ****     size_t CurrentX() { return currentX_; };
  35:../DaisyExamples/libDaisy//src/hid/disp/display.h ****     size_t CurrentY() { return currentY_; };
  36:../DaisyExamples/libDaisy//src/hid/disp/display.h **** 
  37:../DaisyExamples/libDaisy//src/hid/disp/display.h ****     /** 
  38:../DaisyExamples/libDaisy//src/hid/disp/display.h ****     Fills the entire display with either on/off.
  39:../DaisyExamples/libDaisy//src/hid/disp/display.h ****     \param on Sets on or off.
  40:../DaisyExamples/libDaisy//src/hid/disp/display.h ****     */
  41:../DaisyExamples/libDaisy//src/hid/disp/display.h ****     virtual void Fill(bool on) = 0;
  42:../DaisyExamples/libDaisy//src/hid/disp/display.h **** 
  43:../DaisyExamples/libDaisy//src/hid/disp/display.h ****     /**
  44:../DaisyExamples/libDaisy//src/hid/disp/display.h ****     Sets the pixel at the specified coordinate to be on/off.
  45:../DaisyExamples/libDaisy//src/hid/disp/display.h ****     \param x   x Coordinate
  46:../DaisyExamples/libDaisy//src/hid/disp/display.h ****     \param y   y coordinate
  47:../DaisyExamples/libDaisy//src/hid/disp/display.h ****     \param on  on or off
  48:../DaisyExamples/libDaisy//src/hid/disp/display.h ****     */
  49:../DaisyExamples/libDaisy//src/hid/disp/display.h ****     virtual void DrawPixel(uint_fast8_t x, uint_fast8_t y, bool on) = 0;
  50:../DaisyExamples/libDaisy//src/hid/disp/display.h **** 
ARM GAS  /var/folders/41/s_9r3f9s4p3_9jgx7wszdkhh0000gn/T//ccQQceQd.s 			page 12


  51:../DaisyExamples/libDaisy//src/hid/disp/display.h ****     /**
  52:../DaisyExamples/libDaisy//src/hid/disp/display.h ****     Draws a line from (x1, y1) to (y1, y2)
  53:../DaisyExamples/libDaisy//src/hid/disp/display.h ****     \param x1  x Coordinate of the starting point
  54:../DaisyExamples/libDaisy//src/hid/disp/display.h ****     \param y1  y Coordinate of the starting point
  55:../DaisyExamples/libDaisy//src/hid/disp/display.h ****     \param x2  x Coordinate of the ending point
  56:../DaisyExamples/libDaisy//src/hid/disp/display.h ****     \param y2  y Coordinate of the ending point
  57:../DaisyExamples/libDaisy//src/hid/disp/display.h ****     \param on  on or off
  58:../DaisyExamples/libDaisy//src/hid/disp/display.h ****     */
  59:../DaisyExamples/libDaisy//src/hid/disp/display.h ****     virtual void DrawLine(uint_fast8_t x1,
  60:../DaisyExamples/libDaisy//src/hid/disp/display.h ****                           uint_fast8_t y1,
  61:../DaisyExamples/libDaisy//src/hid/disp/display.h ****                           uint_fast8_t x2,
  62:../DaisyExamples/libDaisy//src/hid/disp/display.h ****                           uint_fast8_t y2,
  63:../DaisyExamples/libDaisy//src/hid/disp/display.h ****                           bool         on)
  64:../DaisyExamples/libDaisy//src/hid/disp/display.h ****         = 0;
  65:../DaisyExamples/libDaisy//src/hid/disp/display.h **** 
  66:../DaisyExamples/libDaisy//src/hid/disp/display.h ****     /**
  67:../DaisyExamples/libDaisy//src/hid/disp/display.h ****     Draws a rectangle based on two coordinates.
  68:../DaisyExamples/libDaisy//src/hid/disp/display.h ****     \param x1 x Coordinate of the first point
  69:../DaisyExamples/libDaisy//src/hid/disp/display.h ****     \param y1 y Coordinate of the first point
  70:../DaisyExamples/libDaisy//src/hid/disp/display.h ****     \param x2 x Coordinate of the second point
  71:../DaisyExamples/libDaisy//src/hid/disp/display.h ****     \param y2 y Coordinate of the second point
  72:../DaisyExamples/libDaisy//src/hid/disp/display.h ****     \param on on or off
  73:../DaisyExamples/libDaisy//src/hid/disp/display.h ****     \param fill fill the rectangle or draw only the outline
  74:../DaisyExamples/libDaisy//src/hid/disp/display.h ****     */
  75:../DaisyExamples/libDaisy//src/hid/disp/display.h ****     virtual void DrawRect(uint_fast8_t x1,
  76:../DaisyExamples/libDaisy//src/hid/disp/display.h ****                           uint_fast8_t y1,
  77:../DaisyExamples/libDaisy//src/hid/disp/display.h ****                           uint_fast8_t x2,
  78:../DaisyExamples/libDaisy//src/hid/disp/display.h ****                           uint_fast8_t y2,
  79:../DaisyExamples/libDaisy//src/hid/disp/display.h ****                           bool         on,
  80:../DaisyExamples/libDaisy//src/hid/disp/display.h ****                           bool         fill = false)
  81:../DaisyExamples/libDaisy//src/hid/disp/display.h ****         = 0;
  82:../DaisyExamples/libDaisy//src/hid/disp/display.h **** 
  83:../DaisyExamples/libDaisy//src/hid/disp/display.h ****     /**
  84:../DaisyExamples/libDaisy//src/hid/disp/display.h ****     Draws a rectangle.
  85:../DaisyExamples/libDaisy//src/hid/disp/display.h ****     \param rect the rectangle
  86:../DaisyExamples/libDaisy//src/hid/disp/display.h ****     \param on   on or off
  87:../DaisyExamples/libDaisy//src/hid/disp/display.h ****     \param fill fill the rectangle or draw only the outline
  88:../DaisyExamples/libDaisy//src/hid/disp/display.h ****     */
  89:../DaisyExamples/libDaisy//src/hid/disp/display.h ****     void DrawRect(const Rectangle& rect, bool on, bool fill = false)
  90:../DaisyExamples/libDaisy//src/hid/disp/display.h ****     {
  91:../DaisyExamples/libDaisy//src/hid/disp/display.h ****         DrawRect(rect.GetX(),
  92:../DaisyExamples/libDaisy//src/hid/disp/display.h ****                  rect.GetY(),
  93:../DaisyExamples/libDaisy//src/hid/disp/display.h ****                  rect.GetRight(),
  94:../DaisyExamples/libDaisy//src/hid/disp/display.h ****                  rect.GetBottom(),
  95:../DaisyExamples/libDaisy//src/hid/disp/display.h ****                  on,
  96:../DaisyExamples/libDaisy//src/hid/disp/display.h ****                  fill);
  97:../DaisyExamples/libDaisy//src/hid/disp/display.h ****     }
  98:../DaisyExamples/libDaisy//src/hid/disp/display.h **** 
  99:../DaisyExamples/libDaisy//src/hid/disp/display.h ****     /**
 100:../DaisyExamples/libDaisy//src/hid/disp/display.h ****     Draws an arc around the specified coordinate
 101:../DaisyExamples/libDaisy//src/hid/disp/display.h ****     \param x           x Coordinate of the center of the arc
 102:../DaisyExamples/libDaisy//src/hid/disp/display.h ****     \param y           y Coordinate of the center of the arc
 103:../DaisyExamples/libDaisy//src/hid/disp/display.h ****     \param radius      radius of the arc
 104:../DaisyExamples/libDaisy//src/hid/disp/display.h ****     \param start_angle angle where to start the arc
 105:../DaisyExamples/libDaisy//src/hid/disp/display.h ****     \param sweep       total angle of the arc
 106:../DaisyExamples/libDaisy//src/hid/disp/display.h ****     \param on  on or off
 107:../DaisyExamples/libDaisy//src/hid/disp/display.h ****     */
ARM GAS  /var/folders/41/s_9r3f9s4p3_9jgx7wszdkhh0000gn/T//ccQQceQd.s 			page 13


 108:../DaisyExamples/libDaisy//src/hid/disp/display.h ****     virtual void DrawArc(uint_fast8_t x,
 109:../DaisyExamples/libDaisy//src/hid/disp/display.h ****                          uint_fast8_t y,
 110:../DaisyExamples/libDaisy//src/hid/disp/display.h ****                          uint_fast8_t radius,
 111:../DaisyExamples/libDaisy//src/hid/disp/display.h ****                          int_fast16_t start_angle,
 112:../DaisyExamples/libDaisy//src/hid/disp/display.h ****                          int_fast16_t sweep,
 113:../DaisyExamples/libDaisy//src/hid/disp/display.h ****                          bool         on)
 114:../DaisyExamples/libDaisy//src/hid/disp/display.h ****         = 0;
 115:../DaisyExamples/libDaisy//src/hid/disp/display.h **** 
 116:../DaisyExamples/libDaisy//src/hid/disp/display.h ****     /**
 117:../DaisyExamples/libDaisy//src/hid/disp/display.h ****     Draws a circle around the specified coordinate
 118:../DaisyExamples/libDaisy//src/hid/disp/display.h ****     \param x           x Coordinate of the center of the circle
 119:../DaisyExamples/libDaisy//src/hid/disp/display.h ****     \param y           y Coordinate of the center of the circle
 120:../DaisyExamples/libDaisy//src/hid/disp/display.h ****     \param radius      radius of the circle
 121:../DaisyExamples/libDaisy//src/hid/disp/display.h ****     \param on  on or off
 122:../DaisyExamples/libDaisy//src/hid/disp/display.h ****     */
 123:../DaisyExamples/libDaisy//src/hid/disp/display.h ****     void
 124:../DaisyExamples/libDaisy//src/hid/disp/display.h ****     DrawCircle(uint_fast8_t x, uint_fast8_t y, uint_fast8_t radius, bool on)
 125:../DaisyExamples/libDaisy//src/hid/disp/display.h ****     {
 126:../DaisyExamples/libDaisy//src/hid/disp/display.h ****         DrawArc(x, y, radius, 0, 360, on);
 127:../DaisyExamples/libDaisy//src/hid/disp/display.h ****     };
 128:../DaisyExamples/libDaisy//src/hid/disp/display.h **** 
 129:../DaisyExamples/libDaisy//src/hid/disp/display.h ****     /** 
 130:../DaisyExamples/libDaisy//src/hid/disp/display.h ****     Writes the character with the specific FontDef
 131:../DaisyExamples/libDaisy//src/hid/disp/display.h ****     to the display buffer at the current Cursor position.
 132:../DaisyExamples/libDaisy//src/hid/disp/display.h ****     \param ch character to be written
 133:../DaisyExamples/libDaisy//src/hid/disp/display.h ****     \param font font to be written in
 134:../DaisyExamples/libDaisy//src/hid/disp/display.h ****     \param on    on or off
 135:../DaisyExamples/libDaisy//src/hid/disp/display.h ****     \return &
 136:../DaisyExamples/libDaisy//src/hid/disp/display.h ****     */
 137:../DaisyExamples/libDaisy//src/hid/disp/display.h ****     virtual char WriteChar(char ch, FontDef font, bool on) = 0;
 138:../DaisyExamples/libDaisy//src/hid/disp/display.h **** 
 139:../DaisyExamples/libDaisy//src/hid/disp/display.h ****     /** 
 140:../DaisyExamples/libDaisy//src/hid/disp/display.h ****     Similar to WriteChar, except it will handle an entire String.
 141:../DaisyExamples/libDaisy//src/hid/disp/display.h ****     Wrapping does not happen automatically, so the width
 142:../DaisyExamples/libDaisy//src/hid/disp/display.h ****     of the string must be kept within the dimensions of the screen.
 143:../DaisyExamples/libDaisy//src/hid/disp/display.h ****     \param str string to be written
 144:../DaisyExamples/libDaisy//src/hid/disp/display.h ****     \param font font to use
 145:../DaisyExamples/libDaisy//src/hid/disp/display.h ****     \param on  on or off
 146:../DaisyExamples/libDaisy//src/hid/disp/display.h ****     \return &
 147:../DaisyExamples/libDaisy//src/hid/disp/display.h ****     */
 148:../DaisyExamples/libDaisy//src/hid/disp/display.h ****     virtual char WriteString(const char* str, FontDef font, bool on) = 0;
 149:../DaisyExamples/libDaisy//src/hid/disp/display.h **** 
 150:../DaisyExamples/libDaisy//src/hid/disp/display.h ****     /** 
 151:../DaisyExamples/libDaisy//src/hid/disp/display.h ****     Similar to WriteString but justified within a bounding box.
 152:../DaisyExamples/libDaisy//src/hid/disp/display.h ****     \param str          string to be written
 153:../DaisyExamples/libDaisy//src/hid/disp/display.h ****     \param font         font to use
 154:../DaisyExamples/libDaisy//src/hid/disp/display.h ****     \param boundingBox  the bounding box to draw the text in
 155:../DaisyExamples/libDaisy//src/hid/disp/display.h ****     \param alignment    the alignment to use
 156:../DaisyExamples/libDaisy//src/hid/disp/display.h ****     \param on           on or off
 157:../DaisyExamples/libDaisy//src/hid/disp/display.h ****     \return The rectangle that was drawn to
 158:../DaisyExamples/libDaisy//src/hid/disp/display.h ****     */
 159:../DaisyExamples/libDaisy//src/hid/disp/display.h ****     virtual Rectangle WriteStringAligned(const char*    str,
 160:../DaisyExamples/libDaisy//src/hid/disp/display.h ****                                          const FontDef& font,
 161:../DaisyExamples/libDaisy//src/hid/disp/display.h ****                                          Rectangle      boundingBox,
 162:../DaisyExamples/libDaisy//src/hid/disp/display.h ****                                          Alignment      alignment,
 163:../DaisyExamples/libDaisy//src/hid/disp/display.h ****                                          bool           on)
 164:../DaisyExamples/libDaisy//src/hid/disp/display.h ****         = 0;
ARM GAS  /var/folders/41/s_9r3f9s4p3_9jgx7wszdkhh0000gn/T//ccQQceQd.s 			page 14


 165:../DaisyExamples/libDaisy//src/hid/disp/display.h **** 
 166:../DaisyExamples/libDaisy//src/hid/disp/display.h ****     /** 
 167:../DaisyExamples/libDaisy//src/hid/disp/display.h ****     Moves the 'Cursor' position used for WriteChar, and WriteStr to the specified coordinate.
 168:../DaisyExamples/libDaisy//src/hid/disp/display.h ****     \param x x pos
 169:../DaisyExamples/libDaisy//src/hid/disp/display.h ****     \param y y pos
 170:../DaisyExamples/libDaisy//src/hid/disp/display.h ****     */
 171:../DaisyExamples/libDaisy//src/hid/disp/display.h ****     void SetCursor(uint16_t x, uint16_t y)
 172:../DaisyExamples/libDaisy//src/hid/disp/display.h ****     {
 173:../DaisyExamples/libDaisy//src/hid/disp/display.h ****         currentX_ = (x >= Width()) ? Width() - 1 : x;
 174:../DaisyExamples/libDaisy//src/hid/disp/display.h ****         currentY_ = (y >= Height()) ? Height() - 1 : y;
 175:../DaisyExamples/libDaisy//src/hid/disp/display.h ****     }
 176:../DaisyExamples/libDaisy//src/hid/disp/display.h **** 
 177:../DaisyExamples/libDaisy//src/hid/disp/display.h ****     /** 
 178:../DaisyExamples/libDaisy//src/hid/disp/display.h ****     Writes the current display buffer to the OLED device using SPI or I2C depending on 
 179:../DaisyExamples/libDaisy//src/hid/disp/display.h ****     how the object was initialized.
 180:../DaisyExamples/libDaisy//src/hid/disp/display.h ****     */
 181:../DaisyExamples/libDaisy//src/hid/disp/display.h ****     virtual void Update() = 0;
 182:../DaisyExamples/libDaisy//src/hid/disp/display.h **** 
 183:../DaisyExamples/libDaisy//src/hid/disp/display.h ****   protected:
 184:../DaisyExamples/libDaisy//src/hid/disp/display.h ****     uint16_t currentX_;
 185:../DaisyExamples/libDaisy//src/hid/disp/display.h ****     uint16_t currentY_;
 186:../DaisyExamples/libDaisy//src/hid/disp/display.h **** };
 187:../DaisyExamples/libDaisy//src/hid/disp/display.h **** 
 188:../DaisyExamples/libDaisy//src/hid/disp/display.h **** /** This class is intended as a intermediary class for your actual implementation of the OneBitGrap
 189:../DaisyExamples/libDaisy//src/hid/disp/display.h ****  *  interface. It uses the CRTP design pattern where the template argument is the child class. It p
 190:../DaisyExamples/libDaisy//src/hid/disp/display.h ****  *  implementations for most of the functions, except DrawPixel(), Update() and Fill(), which you'l
 191:../DaisyExamples/libDaisy//src/hid/disp/display.h ****  *  to provide in your child class.
 192:../DaisyExamples/libDaisy//src/hid/disp/display.h ****  *  The main goal of this class is to provide common drawing functions without relying on massive a
 193:../DaisyExamples/libDaisy//src/hid/disp/display.h ****  *  virtual function calls that would result in a performance loss. To achieve this, any drawing fu
 194:../DaisyExamples/libDaisy//src/hid/disp/display.h ****  *  is implemented here and internally calls other drawing functions (e.g. DrawRect() which interna
 195:../DaisyExamples/libDaisy//src/hid/disp/display.h ****  *  DrawPixel() and DrawLine()) makes these calls via the qualified name of these functions to expl
 196:../DaisyExamples/libDaisy//src/hid/disp/display.h ****  *  suppress the virtual dispatch mechanism like this:
 197:../DaisyExamples/libDaisy//src/hid/disp/display.h ****  * 
 198:../DaisyExamples/libDaisy//src/hid/disp/display.h ****  *      ChildType::DrawPixel(...); // no virtual function call; direct call into the child class fu
 199:../DaisyExamples/libDaisy//src/hid/disp/display.h ****  *  
 200:../DaisyExamples/libDaisy//src/hid/disp/display.h ****  *  To create a custom OneBitGraphicsDisplay implementation, you can 
 201:../DaisyExamples/libDaisy//src/hid/disp/display.h ****  *  A) inherit from OneBitGraphicsDisplay directly and provide all the drawing functions yourself
 202:../DaisyExamples/libDaisy//src/hid/disp/display.h ****  *  B) Inherit from OneBitGraphicsDisplayImpl and only provide DrawPixel(), Fill() and Update()
 203:../DaisyExamples/libDaisy//src/hid/disp/display.h ****  *     like this:
 204:../DaisyExamples/libDaisy//src/hid/disp/display.h ****  *  
 205:../DaisyExamples/libDaisy//src/hid/disp/display.h ****  *      class MyDisplayClass : public OneBitGraphicsDisplayImpl<MyDisplayClass> 
 206:../DaisyExamples/libDaisy//src/hid/disp/display.h ****  *      {
 207:../DaisyExamples/libDaisy//src/hid/disp/display.h ****  *      public:
 208:../DaisyExamples/libDaisy//src/hid/disp/display.h ****  *          void Fill() override { ... };
 209:../DaisyExamples/libDaisy//src/hid/disp/display.h ****  *          void DrawPixel(uint_fast8_t x, uint_fast8_t y, bool on) override { ... };
 210:../DaisyExamples/libDaisy//src/hid/disp/display.h ****  *          void Update() override { ... }
 211:../DaisyExamples/libDaisy//src/hid/disp/display.h ****  *      };
 212:../DaisyExamples/libDaisy//src/hid/disp/display.h ****  *  
 213:../DaisyExamples/libDaisy//src/hid/disp/display.h ****  */
 214:../DaisyExamples/libDaisy//src/hid/disp/display.h **** template <class ChildType>
 215:../DaisyExamples/libDaisy//src/hid/disp/display.h **** class OneBitGraphicsDisplayImpl : public OneBitGraphicsDisplay
 216:../DaisyExamples/libDaisy//src/hid/disp/display.h **** {
 217:../DaisyExamples/libDaisy//src/hid/disp/display.h ****   public:
 218:../DaisyExamples/libDaisy//src/hid/disp/display.h ****     OneBitGraphicsDisplayImpl() {}
 219:../DaisyExamples/libDaisy//src/hid/disp/display.h ****     virtual ~OneBitGraphicsDisplayImpl() {}
 139              		.loc 9 219 13 view .LVU17
 140              	.LBB1882:
ARM GAS  /var/folders/41/s_9r3f9s4p3_9jgx7wszdkhh0000gn/T//ccQQceQd.s 			page 15


 141              	.LBI1882:
  23:../DaisyExamples/libDaisy//src/hid/disp/display.h **** 
 142              		.loc 9 23 13 view .LVU18
  23:../DaisyExamples/libDaisy//src/hid/disp/display.h **** 
 143              		.loc 9 23 13 is_stmt 0 view .LVU19
 144              	.LBE1882:
 145              	.LBE1881:
 146              		.loc 8 18 29 view .LVU20
 147 0000 7047     		bx	lr
 148              		.cfi_endproc
 149              	.LFE6022:
 151              		.weak	_ZN5daisy11OledDisplayINS_13SSD130xDriverILj128ELj64ENS_19SSD130xI2CTransportEEEED1Ev
 152              		.thumb_set _ZN5daisy11OledDisplayINS_13SSD130xDriverILj128ELj64ENS_19SSD130xI2CTransportEEEED1Ev,_
 153 0002 00BF     		.section	.text._ZNK5daisy11OledDisplayINS_13SSD130xDriverILj128ELj64ENS_19SSD130xI2CTransportEEEE6
 154              		.align	1
 155              		.p2align 2,,3
 156              		.weak	_ZNK5daisy11OledDisplayINS_13SSD130xDriverILj128ELj64ENS_19SSD130xI2CTransportEEEE6HeightEv
 157              		.syntax unified
 158              		.thumb
 159              		.thumb_func
 161              	_ZNK5daisy11OledDisplayINS_13SSD130xDriverILj128ELj64ENS_19SSD130xI2CTransportEEEE6HeightEv:
 162              	.LVL4:
 163              	.LFB6025:
  19:../DaisyExamples/libDaisy//src/hid/disp/oled_display.h **** 
  20:../DaisyExamples/libDaisy//src/hid/disp/oled_display.h ****     struct Config
  21:../DaisyExamples/libDaisy//src/hid/disp/oled_display.h ****     {
  22:../DaisyExamples/libDaisy//src/hid/disp/oled_display.h ****         typename DisplayDriver::Config driver_config;
  23:../DaisyExamples/libDaisy//src/hid/disp/oled_display.h ****     };
  24:../DaisyExamples/libDaisy//src/hid/disp/oled_display.h **** 
  25:../DaisyExamples/libDaisy//src/hid/disp/oled_display.h ****     void Init(Config config) { driver_.Init(config.driver_config); }
  26:../DaisyExamples/libDaisy//src/hid/disp/oled_display.h **** 
  27:../DaisyExamples/libDaisy//src/hid/disp/oled_display.h ****     uint16_t Height() const override { return driver_.Height(); }
 164              		.loc 8 27 14 is_stmt 1 view -0
 165              		.cfi_startproc
 166              		@ args = 0, pretend = 0, frame = 0
 167              		@ frame_needed = 0, uses_anonymous_args = 0
 168              		@ link register save eliminated.
 169              		.loc 8 27 65 is_stmt 0 view .LVU22
 170 0000 4020     		movs	r0, #64
 171              	.LVL5:
 172              		.loc 8 27 65 view .LVU23
 173 0002 7047     		bx	lr
 174              		.cfi_endproc
 175              	.LFE6025:
 177              		.section	.text._ZNK5daisy11OledDisplayINS_13SSD130xDriverILj128ELj64ENS_19SSD130xI2CTransportEEEE5
 178              		.align	1
 179              		.p2align 2,,3
 180              		.weak	_ZNK5daisy11OledDisplayINS_13SSD130xDriverILj128ELj64ENS_19SSD130xI2CTransportEEEE5WidthEv
 181              		.syntax unified
 182              		.thumb
 183              		.thumb_func
 185              	_ZNK5daisy11OledDisplayINS_13SSD130xDriverILj128ELj64ENS_19SSD130xI2CTransportEEEE5WidthEv:
 186              	.LVL6:
 187              	.LFB6026:
  28:../DaisyExamples/libDaisy//src/hid/disp/oled_display.h ****     uint16_t Width() const override { return driver_.Width(); }
 188              		.loc 8 28 14 is_stmt 1 view -0
 189              		.cfi_startproc
ARM GAS  /var/folders/41/s_9r3f9s4p3_9jgx7wszdkhh0000gn/T//ccQQceQd.s 			page 16


 190              		@ args = 0, pretend = 0, frame = 0
 191              		@ frame_needed = 0, uses_anonymous_args = 0
 192              		@ link register save eliminated.
 193              		.loc 8 28 63 is_stmt 0 view .LVU25
 194 0000 8020     		movs	r0, #128
 195              	.LVL7:
 196              		.loc 8 28 63 view .LVU26
 197 0002 7047     		bx	lr
 198              		.cfi_endproc
 199              	.LFE6026:
 201              		.section	.text._ZN5daisy11OledDisplayINS_13SSD130xDriverILj128ELj64ENS_19SSD130xI2CTransportEEEE4F
 202              		.align	1
 203              		.p2align 2,,3
 204              		.weak	_ZN5daisy11OledDisplayINS_13SSD130xDriverILj128ELj64ENS_19SSD130xI2CTransportEEEE4FillEb
 205              		.syntax unified
 206              		.thumb
 207              		.thumb_func
 209              	_ZN5daisy11OledDisplayINS_13SSD130xDriverILj128ELj64ENS_19SSD130xI2CTransportEEEE4FillEb:
 210              	.LVL8:
 211              	.LFB6027:
  29:../DaisyExamples/libDaisy//src/hid/disp/oled_display.h **** 
  30:../DaisyExamples/libDaisy//src/hid/disp/oled_display.h ****     /** 
  31:../DaisyExamples/libDaisy//src/hid/disp/oled_display.h ****     Fills the entire display with either on/off.
  32:../DaisyExamples/libDaisy//src/hid/disp/oled_display.h ****     \param on Sets on or off.
  33:../DaisyExamples/libDaisy//src/hid/disp/oled_display.h ****     */
  34:../DaisyExamples/libDaisy//src/hid/disp/oled_display.h ****     void Fill(bool on) override { driver_.Fill(on); }
 212              		.loc 8 34 10 is_stmt 1 view -0
 213              		.cfi_startproc
 214              		@ args = 0, pretend = 0, frame = 0
 215              		@ frame_needed = 0, uses_anonymous_args = 0
 216              		@ link register save eliminated.
 217              	.LBB1883:
 218              	.LBI1883:
 219              		.file 10 "../DaisyExamples/libDaisy//src/dev/oled_ssd130x.h"
   1:../DaisyExamples/libDaisy//src/dev/oled_ssd130x.h **** #pragma once
   2:../DaisyExamples/libDaisy//src/dev/oled_ssd130x.h **** #ifndef SA_OLED_SSD130X_H
   3:../DaisyExamples/libDaisy//src/dev/oled_ssd130x.h **** #define SA_OLED_SSD130X_H /**< & */
   4:../DaisyExamples/libDaisy//src/dev/oled_ssd130x.h **** 
   5:../DaisyExamples/libDaisy//src/dev/oled_ssd130x.h **** #include "per/i2c.h"
   6:../DaisyExamples/libDaisy//src/dev/oled_ssd130x.h **** #include "per/spi.h"
   7:../DaisyExamples/libDaisy//src/dev/oled_ssd130x.h **** #include "per/gpio.h"
   8:../DaisyExamples/libDaisy//src/dev/oled_ssd130x.h **** #include "sys/system.h"
   9:../DaisyExamples/libDaisy//src/dev/oled_ssd130x.h **** 
  10:../DaisyExamples/libDaisy//src/dev/oled_ssd130x.h **** namespace daisy
  11:../DaisyExamples/libDaisy//src/dev/oled_ssd130x.h **** {
  12:../DaisyExamples/libDaisy//src/dev/oled_ssd130x.h **** /**
  13:../DaisyExamples/libDaisy//src/dev/oled_ssd130x.h ****  * I2C Transport for SSD1306 / SSD1309 OLED display devices
  14:../DaisyExamples/libDaisy//src/dev/oled_ssd130x.h ****  */
  15:../DaisyExamples/libDaisy//src/dev/oled_ssd130x.h **** class SSD130xI2CTransport
  16:../DaisyExamples/libDaisy//src/dev/oled_ssd130x.h **** {
  17:../DaisyExamples/libDaisy//src/dev/oled_ssd130x.h ****   public:
  18:../DaisyExamples/libDaisy//src/dev/oled_ssd130x.h ****     struct Config
  19:../DaisyExamples/libDaisy//src/dev/oled_ssd130x.h ****     {
  20:../DaisyExamples/libDaisy//src/dev/oled_ssd130x.h ****         Config()
  21:../DaisyExamples/libDaisy//src/dev/oled_ssd130x.h ****         {
  22:../DaisyExamples/libDaisy//src/dev/oled_ssd130x.h ****             // Intialize using defaults
  23:../DaisyExamples/libDaisy//src/dev/oled_ssd130x.h ****             Defaults();
ARM GAS  /var/folders/41/s_9r3f9s4p3_9jgx7wszdkhh0000gn/T//ccQQceQd.s 			page 17


  24:../DaisyExamples/libDaisy//src/dev/oled_ssd130x.h ****         }
  25:../DaisyExamples/libDaisy//src/dev/oled_ssd130x.h ****         I2CHandle::Config i2c_config;
  26:../DaisyExamples/libDaisy//src/dev/oled_ssd130x.h ****         uint8_t           i2c_address;
  27:../DaisyExamples/libDaisy//src/dev/oled_ssd130x.h ****         void              Defaults()
  28:../DaisyExamples/libDaisy//src/dev/oled_ssd130x.h ****         {
  29:../DaisyExamples/libDaisy//src/dev/oled_ssd130x.h ****             i2c_config.periph         = I2CHandle::Config::Peripheral::I2C_1;
  30:../DaisyExamples/libDaisy//src/dev/oled_ssd130x.h ****             i2c_config.speed          = I2CHandle::Config::Speed::I2C_1MHZ;
  31:../DaisyExamples/libDaisy//src/dev/oled_ssd130x.h ****             i2c_config.mode           = I2CHandle::Config::Mode::I2C_MASTER;
  32:../DaisyExamples/libDaisy//src/dev/oled_ssd130x.h ****             i2c_config.pin_config.scl = {DSY_GPIOB, 8};
  33:../DaisyExamples/libDaisy//src/dev/oled_ssd130x.h ****             i2c_config.pin_config.sda = {DSY_GPIOB, 9};
  34:../DaisyExamples/libDaisy//src/dev/oled_ssd130x.h ****             i2c_address               = 0x3C;
  35:../DaisyExamples/libDaisy//src/dev/oled_ssd130x.h ****         }
  36:../DaisyExamples/libDaisy//src/dev/oled_ssd130x.h ****     };
  37:../DaisyExamples/libDaisy//src/dev/oled_ssd130x.h ****     void Init(const Config& config)
  38:../DaisyExamples/libDaisy//src/dev/oled_ssd130x.h ****     {
  39:../DaisyExamples/libDaisy//src/dev/oled_ssd130x.h ****         i2c_address_ = config.i2c_address;
  40:../DaisyExamples/libDaisy//src/dev/oled_ssd130x.h ****         i2c_.Init(config.i2c_config);
  41:../DaisyExamples/libDaisy//src/dev/oled_ssd130x.h ****     };
  42:../DaisyExamples/libDaisy//src/dev/oled_ssd130x.h ****     void SendCommand(uint8_t cmd)
  43:../DaisyExamples/libDaisy//src/dev/oled_ssd130x.h ****     {
  44:../DaisyExamples/libDaisy//src/dev/oled_ssd130x.h ****         uint8_t buf[2] = {0X00, cmd};
  45:../DaisyExamples/libDaisy//src/dev/oled_ssd130x.h ****         i2c_.TransmitBlocking(i2c_address_, buf, 2, 1000);
  46:../DaisyExamples/libDaisy//src/dev/oled_ssd130x.h ****     };
  47:../DaisyExamples/libDaisy//src/dev/oled_ssd130x.h **** 
  48:../DaisyExamples/libDaisy//src/dev/oled_ssd130x.h ****     void SendData(uint8_t* buff, size_t size)
  49:../DaisyExamples/libDaisy//src/dev/oled_ssd130x.h ****     {
  50:../DaisyExamples/libDaisy//src/dev/oled_ssd130x.h ****         for(size_t i = 0; i < size; i++)
  51:../DaisyExamples/libDaisy//src/dev/oled_ssd130x.h ****         {
  52:../DaisyExamples/libDaisy//src/dev/oled_ssd130x.h ****             uint8_t buf[2] = {0X40, buff[i]};
  53:../DaisyExamples/libDaisy//src/dev/oled_ssd130x.h ****             i2c_.TransmitBlocking(i2c_address_, buf, 2, 1000);
  54:../DaisyExamples/libDaisy//src/dev/oled_ssd130x.h ****         }
  55:../DaisyExamples/libDaisy//src/dev/oled_ssd130x.h ****     };
  56:../DaisyExamples/libDaisy//src/dev/oled_ssd130x.h **** 
  57:../DaisyExamples/libDaisy//src/dev/oled_ssd130x.h ****   private:
  58:../DaisyExamples/libDaisy//src/dev/oled_ssd130x.h ****     daisy::I2CHandle i2c_;
  59:../DaisyExamples/libDaisy//src/dev/oled_ssd130x.h ****     uint8_t          i2c_address_;
  60:../DaisyExamples/libDaisy//src/dev/oled_ssd130x.h **** };
  61:../DaisyExamples/libDaisy//src/dev/oled_ssd130x.h **** 
  62:../DaisyExamples/libDaisy//src/dev/oled_ssd130x.h **** /**
  63:../DaisyExamples/libDaisy//src/dev/oled_ssd130x.h ****  * 4 Wire SPI Transport for SSD1306 / SSD1309 OLED display devices
  64:../DaisyExamples/libDaisy//src/dev/oled_ssd130x.h ****  */
  65:../DaisyExamples/libDaisy//src/dev/oled_ssd130x.h **** class SSD130x4WireSpiTransport
  66:../DaisyExamples/libDaisy//src/dev/oled_ssd130x.h **** {
  67:../DaisyExamples/libDaisy//src/dev/oled_ssd130x.h ****   public:
  68:../DaisyExamples/libDaisy//src/dev/oled_ssd130x.h ****     struct Config
  69:../DaisyExamples/libDaisy//src/dev/oled_ssd130x.h ****     {
  70:../DaisyExamples/libDaisy//src/dev/oled_ssd130x.h ****         Config()
  71:../DaisyExamples/libDaisy//src/dev/oled_ssd130x.h ****         {
  72:../DaisyExamples/libDaisy//src/dev/oled_ssd130x.h ****             // Initialize using defaults
  73:../DaisyExamples/libDaisy//src/dev/oled_ssd130x.h ****             Defaults();
  74:../DaisyExamples/libDaisy//src/dev/oled_ssd130x.h ****         }
  75:../DaisyExamples/libDaisy//src/dev/oled_ssd130x.h ****         SpiHandle::Config spi_config;
  76:../DaisyExamples/libDaisy//src/dev/oled_ssd130x.h ****         struct
  77:../DaisyExamples/libDaisy//src/dev/oled_ssd130x.h ****         {
  78:../DaisyExamples/libDaisy//src/dev/oled_ssd130x.h ****             dsy_gpio_pin dc;    /**< & */
  79:../DaisyExamples/libDaisy//src/dev/oled_ssd130x.h ****             dsy_gpio_pin reset; /**< & */
  80:../DaisyExamples/libDaisy//src/dev/oled_ssd130x.h ****         } pin_config;
ARM GAS  /var/folders/41/s_9r3f9s4p3_9jgx7wszdkhh0000gn/T//ccQQceQd.s 			page 18


  81:../DaisyExamples/libDaisy//src/dev/oled_ssd130x.h ****         void Defaults()
  82:../DaisyExamples/libDaisy//src/dev/oled_ssd130x.h ****         {
  83:../DaisyExamples/libDaisy//src/dev/oled_ssd130x.h ****             // SPI peripheral config
  84:../DaisyExamples/libDaisy//src/dev/oled_ssd130x.h ****             spi_config.periph = SpiHandle::Config::Peripheral::SPI_1;
  85:../DaisyExamples/libDaisy//src/dev/oled_ssd130x.h ****             spi_config.mode   = SpiHandle::Config::Mode::MASTER;
  86:../DaisyExamples/libDaisy//src/dev/oled_ssd130x.h ****             spi_config.direction
  87:../DaisyExamples/libDaisy//src/dev/oled_ssd130x.h ****                 = SpiHandle::Config::Direction::TWO_LINES_TX_ONLY;
  88:../DaisyExamples/libDaisy//src/dev/oled_ssd130x.h ****             spi_config.datasize       = 8;
  89:../DaisyExamples/libDaisy//src/dev/oled_ssd130x.h ****             spi_config.clock_polarity = SpiHandle::Config::ClockPolarity::LOW;
  90:../DaisyExamples/libDaisy//src/dev/oled_ssd130x.h ****             spi_config.clock_phase    = SpiHandle::Config::ClockPhase::ONE_EDGE;
  91:../DaisyExamples/libDaisy//src/dev/oled_ssd130x.h ****             spi_config.nss            = SpiHandle::Config::NSS::HARD_OUTPUT;
  92:../DaisyExamples/libDaisy//src/dev/oled_ssd130x.h ****             spi_config.baud_prescaler = SpiHandle::Config::BaudPrescaler::PS_8;
  93:../DaisyExamples/libDaisy//src/dev/oled_ssd130x.h ****             // SPI pin config
  94:../DaisyExamples/libDaisy//src/dev/oled_ssd130x.h ****             spi_config.pin_config.sclk = {DSY_GPIOG, 11};
  95:../DaisyExamples/libDaisy//src/dev/oled_ssd130x.h ****             spi_config.pin_config.miso = {DSY_GPIOX, 0};
  96:../DaisyExamples/libDaisy//src/dev/oled_ssd130x.h ****             spi_config.pin_config.mosi = {DSY_GPIOB, 5};
  97:../DaisyExamples/libDaisy//src/dev/oled_ssd130x.h ****             spi_config.pin_config.nss  = {DSY_GPIOG, 10};
  98:../DaisyExamples/libDaisy//src/dev/oled_ssd130x.h ****             // SSD130x control pin config
  99:../DaisyExamples/libDaisy//src/dev/oled_ssd130x.h ****             pin_config.dc    = {DSY_GPIOB, 4};
 100:../DaisyExamples/libDaisy//src/dev/oled_ssd130x.h ****             pin_config.reset = {DSY_GPIOB, 15};
 101:../DaisyExamples/libDaisy//src/dev/oled_ssd130x.h ****         }
 102:../DaisyExamples/libDaisy//src/dev/oled_ssd130x.h ****     };
 103:../DaisyExamples/libDaisy//src/dev/oled_ssd130x.h ****     void Init(const Config& config)
 104:../DaisyExamples/libDaisy//src/dev/oled_ssd130x.h ****     {
 105:../DaisyExamples/libDaisy//src/dev/oled_ssd130x.h ****         // Initialize both GPIO
 106:../DaisyExamples/libDaisy//src/dev/oled_ssd130x.h ****         pin_dc_.mode = DSY_GPIO_MODE_OUTPUT_PP;
 107:../DaisyExamples/libDaisy//src/dev/oled_ssd130x.h ****         pin_dc_.pin  = config.pin_config.dc;
 108:../DaisyExamples/libDaisy//src/dev/oled_ssd130x.h ****         dsy_gpio_init(&pin_dc_);
 109:../DaisyExamples/libDaisy//src/dev/oled_ssd130x.h ****         pin_reset_.mode = DSY_GPIO_MODE_OUTPUT_PP;
 110:../DaisyExamples/libDaisy//src/dev/oled_ssd130x.h ****         pin_reset_.pin  = config.pin_config.reset;
 111:../DaisyExamples/libDaisy//src/dev/oled_ssd130x.h ****         dsy_gpio_init(&pin_reset_);
 112:../DaisyExamples/libDaisy//src/dev/oled_ssd130x.h **** 
 113:../DaisyExamples/libDaisy//src/dev/oled_ssd130x.h ****         // Initialize SPI
 114:../DaisyExamples/libDaisy//src/dev/oled_ssd130x.h ****         spi_.Init(config.spi_config);
 115:../DaisyExamples/libDaisy//src/dev/oled_ssd130x.h **** 
 116:../DaisyExamples/libDaisy//src/dev/oled_ssd130x.h ****         // Reset and Configure OLED.
 117:../DaisyExamples/libDaisy//src/dev/oled_ssd130x.h ****         dsy_gpio_write(&pin_reset_, 0);
 118:../DaisyExamples/libDaisy//src/dev/oled_ssd130x.h ****         System::Delay(10);
 119:../DaisyExamples/libDaisy//src/dev/oled_ssd130x.h ****         dsy_gpio_write(&pin_reset_, 1);
 120:../DaisyExamples/libDaisy//src/dev/oled_ssd130x.h ****         System::Delay(10);
 121:../DaisyExamples/libDaisy//src/dev/oled_ssd130x.h ****     };
 122:../DaisyExamples/libDaisy//src/dev/oled_ssd130x.h ****     void SendCommand(uint8_t cmd)
 123:../DaisyExamples/libDaisy//src/dev/oled_ssd130x.h ****     {
 124:../DaisyExamples/libDaisy//src/dev/oled_ssd130x.h ****         dsy_gpio_write(&pin_dc_, 0);
 125:../DaisyExamples/libDaisy//src/dev/oled_ssd130x.h ****         spi_.BlockingTransmit(&cmd, 1);
 126:../DaisyExamples/libDaisy//src/dev/oled_ssd130x.h ****     };
 127:../DaisyExamples/libDaisy//src/dev/oled_ssd130x.h **** 
 128:../DaisyExamples/libDaisy//src/dev/oled_ssd130x.h ****     void SendData(uint8_t* buff, size_t size)
 129:../DaisyExamples/libDaisy//src/dev/oled_ssd130x.h ****     {
 130:../DaisyExamples/libDaisy//src/dev/oled_ssd130x.h ****         dsy_gpio_write(&pin_dc_, 1);
 131:../DaisyExamples/libDaisy//src/dev/oled_ssd130x.h ****         spi_.BlockingTransmit(buff, size);
 132:../DaisyExamples/libDaisy//src/dev/oled_ssd130x.h ****     };
 133:../DaisyExamples/libDaisy//src/dev/oled_ssd130x.h **** 
 134:../DaisyExamples/libDaisy//src/dev/oled_ssd130x.h ****   private:
 135:../DaisyExamples/libDaisy//src/dev/oled_ssd130x.h ****     SpiHandle spi_;
 136:../DaisyExamples/libDaisy//src/dev/oled_ssd130x.h ****     dsy_gpio  pin_reset_;
 137:../DaisyExamples/libDaisy//src/dev/oled_ssd130x.h ****     dsy_gpio  pin_dc_;
ARM GAS  /var/folders/41/s_9r3f9s4p3_9jgx7wszdkhh0000gn/T//ccQQceQd.s 			page 19


 138:../DaisyExamples/libDaisy//src/dev/oled_ssd130x.h **** };
 139:../DaisyExamples/libDaisy//src/dev/oled_ssd130x.h **** 
 140:../DaisyExamples/libDaisy//src/dev/oled_ssd130x.h **** /**
 141:../DaisyExamples/libDaisy//src/dev/oled_ssd130x.h ****  * Soft SPI Transport for SSD1306 / SSD1309 OLED display devices
 142:../DaisyExamples/libDaisy//src/dev/oled_ssd130x.h ****  */
 143:../DaisyExamples/libDaisy//src/dev/oled_ssd130x.h **** class SSD130x4WireSoftSpiTransport
 144:../DaisyExamples/libDaisy//src/dev/oled_ssd130x.h **** {
 145:../DaisyExamples/libDaisy//src/dev/oled_ssd130x.h ****   public:
 146:../DaisyExamples/libDaisy//src/dev/oled_ssd130x.h ****     struct Config
 147:../DaisyExamples/libDaisy//src/dev/oled_ssd130x.h ****     {
 148:../DaisyExamples/libDaisy//src/dev/oled_ssd130x.h ****         Config()
 149:../DaisyExamples/libDaisy//src/dev/oled_ssd130x.h ****         {
 150:../DaisyExamples/libDaisy//src/dev/oled_ssd130x.h ****             // Initialize using defaults
 151:../DaisyExamples/libDaisy//src/dev/oled_ssd130x.h ****             Defaults();
 152:../DaisyExamples/libDaisy//src/dev/oled_ssd130x.h ****         }
 153:../DaisyExamples/libDaisy//src/dev/oled_ssd130x.h ****         struct
 154:../DaisyExamples/libDaisy//src/dev/oled_ssd130x.h ****         {
 155:../DaisyExamples/libDaisy//src/dev/oled_ssd130x.h ****             uint32_t     sclk_delay;
 156:../DaisyExamples/libDaisy//src/dev/oled_ssd130x.h ****             dsy_gpio_pin sclk;
 157:../DaisyExamples/libDaisy//src/dev/oled_ssd130x.h ****             dsy_gpio_pin mosi;
 158:../DaisyExamples/libDaisy//src/dev/oled_ssd130x.h ****             dsy_gpio_pin dc;
 159:../DaisyExamples/libDaisy//src/dev/oled_ssd130x.h ****             dsy_gpio_pin reset;
 160:../DaisyExamples/libDaisy//src/dev/oled_ssd130x.h ****         } pin_config;
 161:../DaisyExamples/libDaisy//src/dev/oled_ssd130x.h ****         void Defaults()
 162:../DaisyExamples/libDaisy//src/dev/oled_ssd130x.h ****         {
 163:../DaisyExamples/libDaisy//src/dev/oled_ssd130x.h ****             pin_config.sclk_delay = 0; // fast as possible?!
 164:../DaisyExamples/libDaisy//src/dev/oled_ssd130x.h ****             // SPI peripheral config
 165:../DaisyExamples/libDaisy//src/dev/oled_ssd130x.h ****             pin_config.sclk = {DSY_GPIOD, 3}; /**< D10 - SPI2 SCK  */
 166:../DaisyExamples/libDaisy//src/dev/oled_ssd130x.h ****             pin_config.mosi = {DSY_GPIOC, 3}; /**< D9  - SPI2 MOSI */
 167:../DaisyExamples/libDaisy//src/dev/oled_ssd130x.h ****             // SSD130x control pin config
 168:../DaisyExamples/libDaisy//src/dev/oled_ssd130x.h ****             pin_config.dc    = {DSY_GPIOC, 11}; //D2
 169:../DaisyExamples/libDaisy//src/dev/oled_ssd130x.h ****             pin_config.reset = {DSY_GPIOC, 10}; //D3
 170:../DaisyExamples/libDaisy//src/dev/oled_ssd130x.h ****         }
 171:../DaisyExamples/libDaisy//src/dev/oled_ssd130x.h ****     };
 172:../DaisyExamples/libDaisy//src/dev/oled_ssd130x.h ****     void Init(const Config& config)
 173:../DaisyExamples/libDaisy//src/dev/oled_ssd130x.h ****     {
 174:../DaisyExamples/libDaisy//src/dev/oled_ssd130x.h ****         // Initialize both GPIO
 175:../DaisyExamples/libDaisy//src/dev/oled_ssd130x.h ****         pin_sclk_.mode = DSY_GPIO_MODE_OUTPUT_PP;
 176:../DaisyExamples/libDaisy//src/dev/oled_ssd130x.h ****         pin_sclk_.pin  = config.pin_config.sclk;
 177:../DaisyExamples/libDaisy//src/dev/oled_ssd130x.h ****         dsy_gpio_init(&pin_sclk_);
 178:../DaisyExamples/libDaisy//src/dev/oled_ssd130x.h ****         dsy_gpio_write(&pin_sclk_, 1); //ClockPolarity::LOW
 179:../DaisyExamples/libDaisy//src/dev/oled_ssd130x.h ****         clk_delay      = config.pin_config.sclk_delay;
 180:../DaisyExamples/libDaisy//src/dev/oled_ssd130x.h ****         pin_mosi_.mode = DSY_GPIO_MODE_OUTPUT_PP;
 181:../DaisyExamples/libDaisy//src/dev/oled_ssd130x.h ****         pin_mosi_.pin  = config.pin_config.mosi;
 182:../DaisyExamples/libDaisy//src/dev/oled_ssd130x.h ****         dsy_gpio_init(&pin_mosi_);
 183:../DaisyExamples/libDaisy//src/dev/oled_ssd130x.h ****         dsy_gpio_write(&pin_mosi_, 0);
 184:../DaisyExamples/libDaisy//src/dev/oled_ssd130x.h **** 
 185:../DaisyExamples/libDaisy//src/dev/oled_ssd130x.h ****         pin_dc_.mode = DSY_GPIO_MODE_OUTPUT_PP;
 186:../DaisyExamples/libDaisy//src/dev/oled_ssd130x.h ****         pin_dc_.pin  = config.pin_config.dc;
 187:../DaisyExamples/libDaisy//src/dev/oled_ssd130x.h ****         dsy_gpio_init(&pin_dc_);
 188:../DaisyExamples/libDaisy//src/dev/oled_ssd130x.h ****         pin_reset_.mode = DSY_GPIO_MODE_OUTPUT_PP;
 189:../DaisyExamples/libDaisy//src/dev/oled_ssd130x.h ****         pin_reset_.pin  = config.pin_config.reset;
 190:../DaisyExamples/libDaisy//src/dev/oled_ssd130x.h ****         dsy_gpio_init(&pin_reset_);
 191:../DaisyExamples/libDaisy//src/dev/oled_ssd130x.h **** 
 192:../DaisyExamples/libDaisy//src/dev/oled_ssd130x.h ****         // Reset and Configure OLED.
 193:../DaisyExamples/libDaisy//src/dev/oled_ssd130x.h ****         dsy_gpio_write(&pin_reset_, 0);
 194:../DaisyExamples/libDaisy//src/dev/oled_ssd130x.h ****         System::Delay(10);
ARM GAS  /var/folders/41/s_9r3f9s4p3_9jgx7wszdkhh0000gn/T//ccQQceQd.s 			page 20


 195:../DaisyExamples/libDaisy//src/dev/oled_ssd130x.h ****         dsy_gpio_write(&pin_reset_, 1);
 196:../DaisyExamples/libDaisy//src/dev/oled_ssd130x.h ****         System::Delay(10);
 197:../DaisyExamples/libDaisy//src/dev/oled_ssd130x.h ****     };
 198:../DaisyExamples/libDaisy//src/dev/oled_ssd130x.h ****     void SendCommand(uint8_t cmd)
 199:../DaisyExamples/libDaisy//src/dev/oled_ssd130x.h ****     {
 200:../DaisyExamples/libDaisy//src/dev/oled_ssd130x.h ****         dsy_gpio_write(&pin_dc_, 0);
 201:../DaisyExamples/libDaisy//src/dev/oled_ssd130x.h ****         SoftSpiTransmit(cmd);
 202:../DaisyExamples/libDaisy//src/dev/oled_ssd130x.h ****     };
 203:../DaisyExamples/libDaisy//src/dev/oled_ssd130x.h **** 
 204:../DaisyExamples/libDaisy//src/dev/oled_ssd130x.h ****     void SendData(uint8_t* buff, size_t size)
 205:../DaisyExamples/libDaisy//src/dev/oled_ssd130x.h ****     {
 206:../DaisyExamples/libDaisy//src/dev/oled_ssd130x.h ****         dsy_gpio_write(&pin_dc_, 1);
 207:../DaisyExamples/libDaisy//src/dev/oled_ssd130x.h ****         for(size_t i = 0; i < size; i++)
 208:../DaisyExamples/libDaisy//src/dev/oled_ssd130x.h ****             SoftSpiTransmit(buff[i]);
 209:../DaisyExamples/libDaisy//src/dev/oled_ssd130x.h ****     };
 210:../DaisyExamples/libDaisy//src/dev/oled_ssd130x.h **** 
 211:../DaisyExamples/libDaisy//src/dev/oled_ssd130x.h ****   private:
 212:../DaisyExamples/libDaisy//src/dev/oled_ssd130x.h ****     void SoftSpiTransmit(uint8_t val)
 213:../DaisyExamples/libDaisy//src/dev/oled_ssd130x.h ****     {
 214:../DaisyExamples/libDaisy//src/dev/oled_ssd130x.h ****         // bit flip
 215:../DaisyExamples/libDaisy//src/dev/oled_ssd130x.h ****         val = ((val & 0x01) << 7) | ((val & 0x02) << 5) | ((val & 0x04) << 3)
 216:../DaisyExamples/libDaisy//src/dev/oled_ssd130x.h ****               | ((val & 0x08) << 1) | ((val & 0x10) >> 1) | ((val & 0x20) >> 3)
 217:../DaisyExamples/libDaisy//src/dev/oled_ssd130x.h ****               | ((val & 0x40) >> 5) | ((val & 0x80) >> 7);
 218:../DaisyExamples/libDaisy//src/dev/oled_ssd130x.h **** 
 219:../DaisyExamples/libDaisy//src/dev/oled_ssd130x.h ****         for(uint8_t bit = 0u; bit < 8u; bit++)
 220:../DaisyExamples/libDaisy//src/dev/oled_ssd130x.h ****         {
 221:../DaisyExamples/libDaisy//src/dev/oled_ssd130x.h ****             dsy_gpio_write(&pin_mosi_, ((val & (1 << bit)) ? 1 : 0));
 222:../DaisyExamples/libDaisy//src/dev/oled_ssd130x.h **** 
 223:../DaisyExamples/libDaisy//src/dev/oled_ssd130x.h ****             System::DelayTicks(clk_delay);
 224:../DaisyExamples/libDaisy//src/dev/oled_ssd130x.h **** 
 225:../DaisyExamples/libDaisy//src/dev/oled_ssd130x.h ****             dsy_gpio_toggle(&pin_sclk_);
 226:../DaisyExamples/libDaisy//src/dev/oled_ssd130x.h **** 
 227:../DaisyExamples/libDaisy//src/dev/oled_ssd130x.h ****             System::DelayTicks(clk_delay);
 228:../DaisyExamples/libDaisy//src/dev/oled_ssd130x.h **** 
 229:../DaisyExamples/libDaisy//src/dev/oled_ssd130x.h ****             dsy_gpio_toggle(&pin_sclk_);
 230:../DaisyExamples/libDaisy//src/dev/oled_ssd130x.h ****         }
 231:../DaisyExamples/libDaisy//src/dev/oled_ssd130x.h ****     }
 232:../DaisyExamples/libDaisy//src/dev/oled_ssd130x.h **** 
 233:../DaisyExamples/libDaisy//src/dev/oled_ssd130x.h ****     uint32_t clk_delay;
 234:../DaisyExamples/libDaisy//src/dev/oled_ssd130x.h ****     dsy_gpio pin_sclk_;
 235:../DaisyExamples/libDaisy//src/dev/oled_ssd130x.h ****     dsy_gpio pin_mosi_;
 236:../DaisyExamples/libDaisy//src/dev/oled_ssd130x.h ****     dsy_gpio pin_reset_;
 237:../DaisyExamples/libDaisy//src/dev/oled_ssd130x.h ****     dsy_gpio pin_dc_;
 238:../DaisyExamples/libDaisy//src/dev/oled_ssd130x.h **** };
 239:../DaisyExamples/libDaisy//src/dev/oled_ssd130x.h **** 
 240:../DaisyExamples/libDaisy//src/dev/oled_ssd130x.h **** 
 241:../DaisyExamples/libDaisy//src/dev/oled_ssd130x.h **** /**
 242:../DaisyExamples/libDaisy//src/dev/oled_ssd130x.h ****  * A driver implementation for the SSD1306/SSD1309
 243:../DaisyExamples/libDaisy//src/dev/oled_ssd130x.h ****  */
 244:../DaisyExamples/libDaisy//src/dev/oled_ssd130x.h **** template <size_t width, size_t height, typename Transport>
 245:../DaisyExamples/libDaisy//src/dev/oled_ssd130x.h **** class SSD130xDriver
 246:../DaisyExamples/libDaisy//src/dev/oled_ssd130x.h **** {
 247:../DaisyExamples/libDaisy//src/dev/oled_ssd130x.h ****   public:
 248:../DaisyExamples/libDaisy//src/dev/oled_ssd130x.h ****     struct Config
 249:../DaisyExamples/libDaisy//src/dev/oled_ssd130x.h ****     {
 250:../DaisyExamples/libDaisy//src/dev/oled_ssd130x.h ****         typename Transport::Config transport_config;
 251:../DaisyExamples/libDaisy//src/dev/oled_ssd130x.h ****     };
ARM GAS  /var/folders/41/s_9r3f9s4p3_9jgx7wszdkhh0000gn/T//ccQQceQd.s 			page 21


 252:../DaisyExamples/libDaisy//src/dev/oled_ssd130x.h **** 
 253:../DaisyExamples/libDaisy//src/dev/oled_ssd130x.h ****     void Init(Config config)
 254:../DaisyExamples/libDaisy//src/dev/oled_ssd130x.h ****     {
 255:../DaisyExamples/libDaisy//src/dev/oled_ssd130x.h ****         transport_.Init(config.transport_config);
 256:../DaisyExamples/libDaisy//src/dev/oled_ssd130x.h **** 
 257:../DaisyExamples/libDaisy//src/dev/oled_ssd130x.h ****         // Init routine...
 258:../DaisyExamples/libDaisy//src/dev/oled_ssd130x.h **** 
 259:../DaisyExamples/libDaisy//src/dev/oled_ssd130x.h ****         // Display Off
 260:../DaisyExamples/libDaisy//src/dev/oled_ssd130x.h ****         transport_.SendCommand(0xaE);
 261:../DaisyExamples/libDaisy//src/dev/oled_ssd130x.h ****         // Dimension dependent commands...
 262:../DaisyExamples/libDaisy//src/dev/oled_ssd130x.h ****         switch(height)
 263:../DaisyExamples/libDaisy//src/dev/oled_ssd130x.h ****         {
 264:../DaisyExamples/libDaisy//src/dev/oled_ssd130x.h ****             case 16:
 265:../DaisyExamples/libDaisy//src/dev/oled_ssd130x.h ****                 // Display Clock Divide Ratio
 266:../DaisyExamples/libDaisy//src/dev/oled_ssd130x.h ****                 transport_.SendCommand(0xD5);
 267:../DaisyExamples/libDaisy//src/dev/oled_ssd130x.h ****                 transport_.SendCommand(0x60);
 268:../DaisyExamples/libDaisy//src/dev/oled_ssd130x.h ****                 // Multiplex Ratio
 269:../DaisyExamples/libDaisy//src/dev/oled_ssd130x.h ****                 transport_.SendCommand(0xA8);
 270:../DaisyExamples/libDaisy//src/dev/oled_ssd130x.h ****                 transport_.SendCommand(0x0F);
 271:../DaisyExamples/libDaisy//src/dev/oled_ssd130x.h ****                 // COM Pins
 272:../DaisyExamples/libDaisy//src/dev/oled_ssd130x.h ****                 transport_.SendCommand(0xDA);
 273:../DaisyExamples/libDaisy//src/dev/oled_ssd130x.h ****                 transport_.SendCommand(0x02);
 274:../DaisyExamples/libDaisy//src/dev/oled_ssd130x.h ****                 break;
 275:../DaisyExamples/libDaisy//src/dev/oled_ssd130x.h ****             case 32:
 276:../DaisyExamples/libDaisy//src/dev/oled_ssd130x.h ****                 // Display Clock Divide Ratio
 277:../DaisyExamples/libDaisy//src/dev/oled_ssd130x.h ****                 transport_.SendCommand(0xD5);
 278:../DaisyExamples/libDaisy//src/dev/oled_ssd130x.h ****                 transport_.SendCommand(0x80);
 279:../DaisyExamples/libDaisy//src/dev/oled_ssd130x.h ****                 // Multiplex Ratio
 280:../DaisyExamples/libDaisy//src/dev/oled_ssd130x.h ****                 transport_.SendCommand(0xA8);
 281:../DaisyExamples/libDaisy//src/dev/oled_ssd130x.h ****                 transport_.SendCommand(0x1F);
 282:../DaisyExamples/libDaisy//src/dev/oled_ssd130x.h ****                 // COM Pins
 283:../DaisyExamples/libDaisy//src/dev/oled_ssd130x.h ****                 transport_.SendCommand(0xDA);
 284:../DaisyExamples/libDaisy//src/dev/oled_ssd130x.h ****                 if(width == 64)
 285:../DaisyExamples/libDaisy//src/dev/oled_ssd130x.h ****                 {
 286:../DaisyExamples/libDaisy//src/dev/oled_ssd130x.h ****                     transport_.SendCommand(0x12);
 287:../DaisyExamples/libDaisy//src/dev/oled_ssd130x.h ****                 }
 288:../DaisyExamples/libDaisy//src/dev/oled_ssd130x.h ****                 else
 289:../DaisyExamples/libDaisy//src/dev/oled_ssd130x.h ****                 {
 290:../DaisyExamples/libDaisy//src/dev/oled_ssd130x.h ****                     transport_.SendCommand(0x02);
 291:../DaisyExamples/libDaisy//src/dev/oled_ssd130x.h ****                 }
 292:../DaisyExamples/libDaisy//src/dev/oled_ssd130x.h **** 
 293:../DaisyExamples/libDaisy//src/dev/oled_ssd130x.h ****                 break;
 294:../DaisyExamples/libDaisy//src/dev/oled_ssd130x.h ****             case 48:
 295:../DaisyExamples/libDaisy//src/dev/oled_ssd130x.h ****                 // Display Clock Divide Ratio
 296:../DaisyExamples/libDaisy//src/dev/oled_ssd130x.h ****                 transport_.SendCommand(0xD5);
 297:../DaisyExamples/libDaisy//src/dev/oled_ssd130x.h ****                 transport_.SendCommand(0x80);
 298:../DaisyExamples/libDaisy//src/dev/oled_ssd130x.h ****                 // Multiplex Ratio
 299:../DaisyExamples/libDaisy//src/dev/oled_ssd130x.h ****                 transport_.SendCommand(0xA8);
 300:../DaisyExamples/libDaisy//src/dev/oled_ssd130x.h ****                 transport_.SendCommand(0x2F);
 301:../DaisyExamples/libDaisy//src/dev/oled_ssd130x.h ****                 // COM Pins
 302:../DaisyExamples/libDaisy//src/dev/oled_ssd130x.h ****                 transport_.SendCommand(0xDA);
 303:../DaisyExamples/libDaisy//src/dev/oled_ssd130x.h ****                 transport_.SendCommand(0x12);
 304:../DaisyExamples/libDaisy//src/dev/oled_ssd130x.h ****                 break;
 305:../DaisyExamples/libDaisy//src/dev/oled_ssd130x.h ****             default: // 128
 306:../DaisyExamples/libDaisy//src/dev/oled_ssd130x.h ****                 // Display Clock Divide Ratio
 307:../DaisyExamples/libDaisy//src/dev/oled_ssd130x.h ****                 transport_.SendCommand(0xD5);
 308:../DaisyExamples/libDaisy//src/dev/oled_ssd130x.h ****                 transport_.SendCommand(0x80);
ARM GAS  /var/folders/41/s_9r3f9s4p3_9jgx7wszdkhh0000gn/T//ccQQceQd.s 			page 22


 309:../DaisyExamples/libDaisy//src/dev/oled_ssd130x.h ****                 // Multiplex Ratio
 310:../DaisyExamples/libDaisy//src/dev/oled_ssd130x.h ****                 transport_.SendCommand(0xA8);
 311:../DaisyExamples/libDaisy//src/dev/oled_ssd130x.h ****                 transport_.SendCommand(0x3F);
 312:../DaisyExamples/libDaisy//src/dev/oled_ssd130x.h ****                 // COM Pins
 313:../DaisyExamples/libDaisy//src/dev/oled_ssd130x.h ****                 transport_.SendCommand(0xDA);
 314:../DaisyExamples/libDaisy//src/dev/oled_ssd130x.h ****                 transport_.SendCommand(0x12);
 315:../DaisyExamples/libDaisy//src/dev/oled_ssd130x.h ****                 break;
 316:../DaisyExamples/libDaisy//src/dev/oled_ssd130x.h ****         }
 317:../DaisyExamples/libDaisy//src/dev/oled_ssd130x.h **** 
 318:../DaisyExamples/libDaisy//src/dev/oled_ssd130x.h ****         // Display Offset
 319:../DaisyExamples/libDaisy//src/dev/oled_ssd130x.h ****         transport_.SendCommand(0xD3);
 320:../DaisyExamples/libDaisy//src/dev/oled_ssd130x.h ****         transport_.SendCommand(0x00);
 321:../DaisyExamples/libDaisy//src/dev/oled_ssd130x.h ****         // Start Line Address
 322:../DaisyExamples/libDaisy//src/dev/oled_ssd130x.h ****         transport_.SendCommand(0x40);
 323:../DaisyExamples/libDaisy//src/dev/oled_ssd130x.h ****         // Normal Display
 324:../DaisyExamples/libDaisy//src/dev/oled_ssd130x.h ****         transport_.SendCommand(0xA6);
 325:../DaisyExamples/libDaisy//src/dev/oled_ssd130x.h ****         // All On Resume
 326:../DaisyExamples/libDaisy//src/dev/oled_ssd130x.h ****         transport_.SendCommand(0xA4);
 327:../DaisyExamples/libDaisy//src/dev/oled_ssd130x.h ****         // Charge Pump
 328:../DaisyExamples/libDaisy//src/dev/oled_ssd130x.h ****         transport_.SendCommand(0x8D);
 329:../DaisyExamples/libDaisy//src/dev/oled_ssd130x.h ****         transport_.SendCommand(0x14);
 330:../DaisyExamples/libDaisy//src/dev/oled_ssd130x.h ****         // Set Segment Remap
 331:../DaisyExamples/libDaisy//src/dev/oled_ssd130x.h ****         transport_.SendCommand(0xA1);
 332:../DaisyExamples/libDaisy//src/dev/oled_ssd130x.h ****         // COM Output Scan Direction
 333:../DaisyExamples/libDaisy//src/dev/oled_ssd130x.h ****         transport_.SendCommand(0xC8);
 334:../DaisyExamples/libDaisy//src/dev/oled_ssd130x.h ****         // Contrast Control
 335:../DaisyExamples/libDaisy//src/dev/oled_ssd130x.h ****         transport_.SendCommand(0x81);
 336:../DaisyExamples/libDaisy//src/dev/oled_ssd130x.h ****         transport_.SendCommand(0x8F);
 337:../DaisyExamples/libDaisy//src/dev/oled_ssd130x.h ****         // Pre Charge
 338:../DaisyExamples/libDaisy//src/dev/oled_ssd130x.h ****         transport_.SendCommand(0xD9);
 339:../DaisyExamples/libDaisy//src/dev/oled_ssd130x.h ****         transport_.SendCommand(0x25);
 340:../DaisyExamples/libDaisy//src/dev/oled_ssd130x.h ****         // VCOM Detect
 341:../DaisyExamples/libDaisy//src/dev/oled_ssd130x.h ****         transport_.SendCommand(0xDB);
 342:../DaisyExamples/libDaisy//src/dev/oled_ssd130x.h ****         transport_.SendCommand(0x34);
 343:../DaisyExamples/libDaisy//src/dev/oled_ssd130x.h **** 
 344:../DaisyExamples/libDaisy//src/dev/oled_ssd130x.h **** 
 345:../DaisyExamples/libDaisy//src/dev/oled_ssd130x.h ****         // Display On
 346:../DaisyExamples/libDaisy//src/dev/oled_ssd130x.h ****         transport_.SendCommand(0xAF); //--turn on oled panel
 347:../DaisyExamples/libDaisy//src/dev/oled_ssd130x.h ****     };
 348:../DaisyExamples/libDaisy//src/dev/oled_ssd130x.h **** 
 349:../DaisyExamples/libDaisy//src/dev/oled_ssd130x.h ****     size_t Width() const { return width; };
 350:../DaisyExamples/libDaisy//src/dev/oled_ssd130x.h ****     size_t Height() const { return height; };
 351:../DaisyExamples/libDaisy//src/dev/oled_ssd130x.h **** 
 352:../DaisyExamples/libDaisy//src/dev/oled_ssd130x.h ****     void DrawPixel(uint_fast8_t x, uint_fast8_t y, bool on)
 353:../DaisyExamples/libDaisy//src/dev/oled_ssd130x.h ****     {
 354:../DaisyExamples/libDaisy//src/dev/oled_ssd130x.h ****         if(x >= width || y >= height)
 355:../DaisyExamples/libDaisy//src/dev/oled_ssd130x.h ****             return;
 356:../DaisyExamples/libDaisy//src/dev/oled_ssd130x.h ****         if(on)
 357:../DaisyExamples/libDaisy//src/dev/oled_ssd130x.h ****             buffer_[x + (y / 8) * width] |= (1 << (y % 8));
 358:../DaisyExamples/libDaisy//src/dev/oled_ssd130x.h ****         else
 359:../DaisyExamples/libDaisy//src/dev/oled_ssd130x.h ****             buffer_[x + (y / 8) * width] &= ~(1 << (y % 8));
 360:../DaisyExamples/libDaisy//src/dev/oled_ssd130x.h ****     }
 361:../DaisyExamples/libDaisy//src/dev/oled_ssd130x.h **** 
 362:../DaisyExamples/libDaisy//src/dev/oled_ssd130x.h ****     void Fill(bool on)
 220              		.loc 10 362 10 view .LVU28
 221              	.LBB1884:
 363:../DaisyExamples/libDaisy//src/dev/oled_ssd130x.h ****     {
ARM GAS  /var/folders/41/s_9r3f9s4p3_9jgx7wszdkhh0000gn/T//ccQQceQd.s 			page 23


 364:../DaisyExamples/libDaisy//src/dev/oled_ssd130x.h ****         for(size_t i = 0; i < sizeof(buffer_); i++)
 222              		.loc 10 364 29 view .LVU29
 365:../DaisyExamples/libDaisy//src/dev/oled_ssd130x.h ****         {
 366:../DaisyExamples/libDaisy//src/dev/oled_ssd130x.h ****             buffer_[i] = on ? 0xff : 0x00;
 223              		.loc 10 366 24 is_stmt 0 view .LVU30
 224 0000 4942     		rsbs	r1, r1, #0
 225              	.LVL9:
 226              		.loc 10 366 24 view .LVU31
 227 0002 4FF48062 		mov	r2, #1024
 228 0006 1030     		adds	r0, r0, #16
 229              	.LVL10:
 230              		.loc 10 366 24 view .LVU32
 231 0008 C9B2     		uxtb	r1, r1
 232 000a FFF7FEBF 		b	memset
 233              	.LVL11:
 234              		.loc 10 366 24 view .LVU33
 235              	.LBE1884:
 236              	.LBE1883:
 237              		.cfi_endproc
 238              	.LFE6027:
 240 000e 00BF     		.section	.text._ZN5daisy11OledDisplayINS_13SSD130xDriverILj128ELj64ENS_19SSD130xI2CTransportEEEED0
 241              		.align	1
 242              		.p2align 2,,3
 243              		.weak	_ZN5daisy11OledDisplayINS_13SSD130xDriverILj128ELj64ENS_19SSD130xI2CTransportEEEED0Ev
 244              		.syntax unified
 245              		.thumb
 246              		.thumb_func
 248              	_ZN5daisy11OledDisplayINS_13SSD130xDriverILj128ELj64ENS_19SSD130xI2CTransportEEEED0Ev:
 249              	.LVL12:
 250              	.LFB6024:
  18:../DaisyExamples/libDaisy//src/hid/disp/oled_display.h **** 
 251              		.loc 8 18 13 is_stmt 1 view -0
 252              		.cfi_startproc
 253              		@ args = 0, pretend = 0, frame = 0
 254              		@ frame_needed = 0, uses_anonymous_args = 0
  18:../DaisyExamples/libDaisy//src/hid/disp/oled_display.h **** 
 255              		.loc 8 18 13 is_stmt 0 view .LVU35
 256 0000 10B5     		push	{r4, lr}
 257              		.cfi_def_cfa_offset 8
 258              		.cfi_offset 4, -8
 259              		.cfi_offset 14, -4
  18:../DaisyExamples/libDaisy//src/hid/disp/oled_display.h **** 
 260              		.loc 8 18 13 view .LVU36
 261 0002 0446     		mov	r4, r0
 262              	.LVL13:
 263              	.LBB1885:
 264              	.LBI1885:
  18:../DaisyExamples/libDaisy//src/hid/disp/oled_display.h **** 
 265              		.loc 8 18 13 is_stmt 1 view .LVU37
 266              	.LBB1886:
 267              	.LBI1886:
 268              		.loc 9 219 13 view .LVU38
 269              	.LBB1887:
 270              	.LBI1887:
  23:../DaisyExamples/libDaisy//src/hid/disp/display.h **** 
 271              		.loc 9 23 13 view .LVU39
  23:../DaisyExamples/libDaisy//src/hid/disp/display.h **** 
ARM GAS  /var/folders/41/s_9r3f9s4p3_9jgx7wszdkhh0000gn/T//ccQQceQd.s 			page 24


 272              		.loc 9 23 13 is_stmt 0 view .LVU40
 273              	.LBE1887:
 274              	.LBE1886:
 275              	.LBE1885:
  18:../DaisyExamples/libDaisy//src/hid/disp/oled_display.h **** 
 276              		.loc 8 18 29 view .LVU41
 277 0004 4FF48261 		mov	r1, #1040
 278 0008 FFF7FEFF 		bl	_ZdlPvj
 279              	.LVL14:
  18:../DaisyExamples/libDaisy//src/hid/disp/oled_display.h **** 
 280              		.loc 8 18 29 view .LVU42
 281 000c 2046     		mov	r0, r4
 282 000e 10BD     		pop	{r4, pc}
  18:../DaisyExamples/libDaisy//src/hid/disp/oled_display.h **** 
 283              		.loc 8 18 29 view .LVU43
 284              		.cfi_endproc
 285              	.LFE6024:
 287              		.section	.text._ZNSt6vectorIP10InstrumentSaIS1_EED2Ev,"axG",%progbits,_ZNSt6vectorIP10InstrumentSa
 288              		.align	1
 289              		.p2align 2,,3
 290              		.weak	_ZNSt6vectorIP10InstrumentSaIS1_EED2Ev
 291              		.syntax unified
 292              		.thumb
 293              		.thumb_func
 295              	_ZNSt6vectorIP10InstrumentSaIS1_EED2Ev:
 296              	.LVL15:
 297              	.LFB6037:
 298              		.file 11 "/Library/DaisyToolchain/0.2.0/arm/arm-none-eabi/include/c++/10.3.1/bits/stl_vector.h"
   1:/Library/DaisyToolchain/0.2.0/arm/arm-none-eabi/include/c++/10.3.1/bits/stl_vector.h **** // Vector implementation -*- C++ -*-
   2:/Library/DaisyToolchain/0.2.0/arm/arm-none-eabi/include/c++/10.3.1/bits/stl_vector.h **** 
   3:/Library/DaisyToolchain/0.2.0/arm/arm-none-eabi/include/c++/10.3.1/bits/stl_vector.h **** // Copyright (C) 2001-2020 Free Software Foundation, Inc.
   4:/Library/DaisyToolchain/0.2.0/arm/arm-none-eabi/include/c++/10.3.1/bits/stl_vector.h **** //
   5:/Library/DaisyToolchain/0.2.0/arm/arm-none-eabi/include/c++/10.3.1/bits/stl_vector.h **** // This file is part of the GNU ISO C++ Library.  This library is free
   6:/Library/DaisyToolchain/0.2.0/arm/arm-none-eabi/include/c++/10.3.1/bits/stl_vector.h **** // software; you can redistribute it and/or modify it under the
   7:/Library/DaisyToolchain/0.2.0/arm/arm-none-eabi/include/c++/10.3.1/bits/stl_vector.h **** // terms of the GNU General Public License as published by the
   8:/Library/DaisyToolchain/0.2.0/arm/arm-none-eabi/include/c++/10.3.1/bits/stl_vector.h **** // Free Software Foundation; either version 3, or (at your option)
   9:/Library/DaisyToolchain/0.2.0/arm/arm-none-eabi/include/c++/10.3.1/bits/stl_vector.h **** // any later version.
  10:/Library/DaisyToolchain/0.2.0/arm/arm-none-eabi/include/c++/10.3.1/bits/stl_vector.h **** 
  11:/Library/DaisyToolchain/0.2.0/arm/arm-none-eabi/include/c++/10.3.1/bits/stl_vector.h **** // This library is distributed in the hope that it will be useful,
  12:/Library/DaisyToolchain/0.2.0/arm/arm-none-eabi/include/c++/10.3.1/bits/stl_vector.h **** // but WITHOUT ANY WARRANTY; without even the implied warranty of
  13:/Library/DaisyToolchain/0.2.0/arm/arm-none-eabi/include/c++/10.3.1/bits/stl_vector.h **** // MERCHANTABILITY or FITNESS FOR A PARTICULAR PURPOSE.  See the
  14:/Library/DaisyToolchain/0.2.0/arm/arm-none-eabi/include/c++/10.3.1/bits/stl_vector.h **** // GNU General Public License for more details.
  15:/Library/DaisyToolchain/0.2.0/arm/arm-none-eabi/include/c++/10.3.1/bits/stl_vector.h **** 
  16:/Library/DaisyToolchain/0.2.0/arm/arm-none-eabi/include/c++/10.3.1/bits/stl_vector.h **** // Under Section 7 of GPL version 3, you are granted additional
  17:/Library/DaisyToolchain/0.2.0/arm/arm-none-eabi/include/c++/10.3.1/bits/stl_vector.h **** // permissions described in the GCC Runtime Library Exception, version
  18:/Library/DaisyToolchain/0.2.0/arm/arm-none-eabi/include/c++/10.3.1/bits/stl_vector.h **** // 3.1, as published by the Free Software Foundation.
  19:/Library/DaisyToolchain/0.2.0/arm/arm-none-eabi/include/c++/10.3.1/bits/stl_vector.h **** 
  20:/Library/DaisyToolchain/0.2.0/arm/arm-none-eabi/include/c++/10.3.1/bits/stl_vector.h **** // You should have received a copy of the GNU General Public License and
  21:/Library/DaisyToolchain/0.2.0/arm/arm-none-eabi/include/c++/10.3.1/bits/stl_vector.h **** // a copy of the GCC Runtime Library Exception along with this program;
  22:/Library/DaisyToolchain/0.2.0/arm/arm-none-eabi/include/c++/10.3.1/bits/stl_vector.h **** // see the files COPYING3 and COPYING.RUNTIME respectively.  If not, see
  23:/Library/DaisyToolchain/0.2.0/arm/arm-none-eabi/include/c++/10.3.1/bits/stl_vector.h **** // <http://www.gnu.org/licenses/>.
  24:/Library/DaisyToolchain/0.2.0/arm/arm-none-eabi/include/c++/10.3.1/bits/stl_vector.h **** 
  25:/Library/DaisyToolchain/0.2.0/arm/arm-none-eabi/include/c++/10.3.1/bits/stl_vector.h **** /*
  26:/Library/DaisyToolchain/0.2.0/arm/arm-none-eabi/include/c++/10.3.1/bits/stl_vector.h ****  *
  27:/Library/DaisyToolchain/0.2.0/arm/arm-none-eabi/include/c++/10.3.1/bits/stl_vector.h ****  * Copyright (c) 1994
  28:/Library/DaisyToolchain/0.2.0/arm/arm-none-eabi/include/c++/10.3.1/bits/stl_vector.h ****  * Hewlett-Packard Company
  29:/Library/DaisyToolchain/0.2.0/arm/arm-none-eabi/include/c++/10.3.1/bits/stl_vector.h ****  *
ARM GAS  /var/folders/41/s_9r3f9s4p3_9jgx7wszdkhh0000gn/T//ccQQceQd.s 			page 25


  30:/Library/DaisyToolchain/0.2.0/arm/arm-none-eabi/include/c++/10.3.1/bits/stl_vector.h ****  * Permission to use, copy, modify, distribute and sell this software
  31:/Library/DaisyToolchain/0.2.0/arm/arm-none-eabi/include/c++/10.3.1/bits/stl_vector.h ****  * and its documentation for any purpose is hereby granted without fee,
  32:/Library/DaisyToolchain/0.2.0/arm/arm-none-eabi/include/c++/10.3.1/bits/stl_vector.h ****  * provided that the above copyright notice appear in all copies and
  33:/Library/DaisyToolchain/0.2.0/arm/arm-none-eabi/include/c++/10.3.1/bits/stl_vector.h ****  * that both that copyright notice and this permission notice appear
  34:/Library/DaisyToolchain/0.2.0/arm/arm-none-eabi/include/c++/10.3.1/bits/stl_vector.h ****  * in supporting documentation.  Hewlett-Packard Company makes no
  35:/Library/DaisyToolchain/0.2.0/arm/arm-none-eabi/include/c++/10.3.1/bits/stl_vector.h ****  * representations about the suitability of this software for any
  36:/Library/DaisyToolchain/0.2.0/arm/arm-none-eabi/include/c++/10.3.1/bits/stl_vector.h ****  * purpose.  It is provided "as is" without express or implied warranty.
  37:/Library/DaisyToolchain/0.2.0/arm/arm-none-eabi/include/c++/10.3.1/bits/stl_vector.h ****  *
  38:/Library/DaisyToolchain/0.2.0/arm/arm-none-eabi/include/c++/10.3.1/bits/stl_vector.h ****  *
  39:/Library/DaisyToolchain/0.2.0/arm/arm-none-eabi/include/c++/10.3.1/bits/stl_vector.h ****  * Copyright (c) 1996
  40:/Library/DaisyToolchain/0.2.0/arm/arm-none-eabi/include/c++/10.3.1/bits/stl_vector.h ****  * Silicon Graphics Computer Systems, Inc.
  41:/Library/DaisyToolchain/0.2.0/arm/arm-none-eabi/include/c++/10.3.1/bits/stl_vector.h ****  *
  42:/Library/DaisyToolchain/0.2.0/arm/arm-none-eabi/include/c++/10.3.1/bits/stl_vector.h ****  * Permission to use, copy, modify, distribute and sell this software
  43:/Library/DaisyToolchain/0.2.0/arm/arm-none-eabi/include/c++/10.3.1/bits/stl_vector.h ****  * and its documentation for any purpose is hereby granted without fee,
  44:/Library/DaisyToolchain/0.2.0/arm/arm-none-eabi/include/c++/10.3.1/bits/stl_vector.h ****  * provided that the above copyright notice appear in all copies and
  45:/Library/DaisyToolchain/0.2.0/arm/arm-none-eabi/include/c++/10.3.1/bits/stl_vector.h ****  * that both that copyright notice and this permission notice appear
  46:/Library/DaisyToolchain/0.2.0/arm/arm-none-eabi/include/c++/10.3.1/bits/stl_vector.h ****  * in supporting documentation.  Silicon Graphics makes no
  47:/Library/DaisyToolchain/0.2.0/arm/arm-none-eabi/include/c++/10.3.1/bits/stl_vector.h ****  * representations about the suitability of this  software for any
  48:/Library/DaisyToolchain/0.2.0/arm/arm-none-eabi/include/c++/10.3.1/bits/stl_vector.h ****  * purpose.  It is provided "as is" without express or implied warranty.
  49:/Library/DaisyToolchain/0.2.0/arm/arm-none-eabi/include/c++/10.3.1/bits/stl_vector.h ****  */
  50:/Library/DaisyToolchain/0.2.0/arm/arm-none-eabi/include/c++/10.3.1/bits/stl_vector.h **** 
  51:/Library/DaisyToolchain/0.2.0/arm/arm-none-eabi/include/c++/10.3.1/bits/stl_vector.h **** /** @file bits/stl_vector.h
  52:/Library/DaisyToolchain/0.2.0/arm/arm-none-eabi/include/c++/10.3.1/bits/stl_vector.h ****  *  This is an internal header file, included by other library headers.
  53:/Library/DaisyToolchain/0.2.0/arm/arm-none-eabi/include/c++/10.3.1/bits/stl_vector.h ****  *  Do not attempt to use it directly. @headername{vector}
  54:/Library/DaisyToolchain/0.2.0/arm/arm-none-eabi/include/c++/10.3.1/bits/stl_vector.h ****  */
  55:/Library/DaisyToolchain/0.2.0/arm/arm-none-eabi/include/c++/10.3.1/bits/stl_vector.h **** 
  56:/Library/DaisyToolchain/0.2.0/arm/arm-none-eabi/include/c++/10.3.1/bits/stl_vector.h **** #ifndef _STL_VECTOR_H
  57:/Library/DaisyToolchain/0.2.0/arm/arm-none-eabi/include/c++/10.3.1/bits/stl_vector.h **** #define _STL_VECTOR_H 1
  58:/Library/DaisyToolchain/0.2.0/arm/arm-none-eabi/include/c++/10.3.1/bits/stl_vector.h **** 
  59:/Library/DaisyToolchain/0.2.0/arm/arm-none-eabi/include/c++/10.3.1/bits/stl_vector.h **** #include <bits/stl_iterator_base_funcs.h>
  60:/Library/DaisyToolchain/0.2.0/arm/arm-none-eabi/include/c++/10.3.1/bits/stl_vector.h **** #include <bits/functexcept.h>
  61:/Library/DaisyToolchain/0.2.0/arm/arm-none-eabi/include/c++/10.3.1/bits/stl_vector.h **** #include <bits/concept_check.h>
  62:/Library/DaisyToolchain/0.2.0/arm/arm-none-eabi/include/c++/10.3.1/bits/stl_vector.h **** #if __cplusplus >= 201103L
  63:/Library/DaisyToolchain/0.2.0/arm/arm-none-eabi/include/c++/10.3.1/bits/stl_vector.h **** #include <initializer_list>
  64:/Library/DaisyToolchain/0.2.0/arm/arm-none-eabi/include/c++/10.3.1/bits/stl_vector.h **** #endif
  65:/Library/DaisyToolchain/0.2.0/arm/arm-none-eabi/include/c++/10.3.1/bits/stl_vector.h **** #if __cplusplus > 201703L
  66:/Library/DaisyToolchain/0.2.0/arm/arm-none-eabi/include/c++/10.3.1/bits/stl_vector.h **** # include <compare>
  67:/Library/DaisyToolchain/0.2.0/arm/arm-none-eabi/include/c++/10.3.1/bits/stl_vector.h **** #endif
  68:/Library/DaisyToolchain/0.2.0/arm/arm-none-eabi/include/c++/10.3.1/bits/stl_vector.h **** 
  69:/Library/DaisyToolchain/0.2.0/arm/arm-none-eabi/include/c++/10.3.1/bits/stl_vector.h **** #include <debug/assertions.h>
  70:/Library/DaisyToolchain/0.2.0/arm/arm-none-eabi/include/c++/10.3.1/bits/stl_vector.h **** 
  71:/Library/DaisyToolchain/0.2.0/arm/arm-none-eabi/include/c++/10.3.1/bits/stl_vector.h **** #if _GLIBCXX_SANITIZE_STD_ALLOCATOR && _GLIBCXX_SANITIZE_VECTOR
  72:/Library/DaisyToolchain/0.2.0/arm/arm-none-eabi/include/c++/10.3.1/bits/stl_vector.h **** extern "C" void
  73:/Library/DaisyToolchain/0.2.0/arm/arm-none-eabi/include/c++/10.3.1/bits/stl_vector.h **** __sanitizer_annotate_contiguous_container(const void*, const void*,
  74:/Library/DaisyToolchain/0.2.0/arm/arm-none-eabi/include/c++/10.3.1/bits/stl_vector.h **** 					  const void*, const void*);
  75:/Library/DaisyToolchain/0.2.0/arm/arm-none-eabi/include/c++/10.3.1/bits/stl_vector.h **** #endif
  76:/Library/DaisyToolchain/0.2.0/arm/arm-none-eabi/include/c++/10.3.1/bits/stl_vector.h **** 
  77:/Library/DaisyToolchain/0.2.0/arm/arm-none-eabi/include/c++/10.3.1/bits/stl_vector.h **** namespace std _GLIBCXX_VISIBILITY(default)
  78:/Library/DaisyToolchain/0.2.0/arm/arm-none-eabi/include/c++/10.3.1/bits/stl_vector.h **** {
  79:/Library/DaisyToolchain/0.2.0/arm/arm-none-eabi/include/c++/10.3.1/bits/stl_vector.h **** _GLIBCXX_BEGIN_NAMESPACE_VERSION
  80:/Library/DaisyToolchain/0.2.0/arm/arm-none-eabi/include/c++/10.3.1/bits/stl_vector.h **** _GLIBCXX_BEGIN_NAMESPACE_CONTAINER
  81:/Library/DaisyToolchain/0.2.0/arm/arm-none-eabi/include/c++/10.3.1/bits/stl_vector.h **** 
  82:/Library/DaisyToolchain/0.2.0/arm/arm-none-eabi/include/c++/10.3.1/bits/stl_vector.h ****   /// See bits/stl_deque.h's _Deque_base for an explanation.
  83:/Library/DaisyToolchain/0.2.0/arm/arm-none-eabi/include/c++/10.3.1/bits/stl_vector.h ****   template<typename _Tp, typename _Alloc>
  84:/Library/DaisyToolchain/0.2.0/arm/arm-none-eabi/include/c++/10.3.1/bits/stl_vector.h ****     struct _Vector_base
  85:/Library/DaisyToolchain/0.2.0/arm/arm-none-eabi/include/c++/10.3.1/bits/stl_vector.h ****     {
  86:/Library/DaisyToolchain/0.2.0/arm/arm-none-eabi/include/c++/10.3.1/bits/stl_vector.h ****       typedef typename __gnu_cxx::__alloc_traits<_Alloc>::template
ARM GAS  /var/folders/41/s_9r3f9s4p3_9jgx7wszdkhh0000gn/T//ccQQceQd.s 			page 26


  87:/Library/DaisyToolchain/0.2.0/arm/arm-none-eabi/include/c++/10.3.1/bits/stl_vector.h **** 	rebind<_Tp>::other _Tp_alloc_type;
  88:/Library/DaisyToolchain/0.2.0/arm/arm-none-eabi/include/c++/10.3.1/bits/stl_vector.h ****       typedef typename __gnu_cxx::__alloc_traits<_Tp_alloc_type>::pointer
  89:/Library/DaisyToolchain/0.2.0/arm/arm-none-eabi/include/c++/10.3.1/bits/stl_vector.h ****        	pointer;
  90:/Library/DaisyToolchain/0.2.0/arm/arm-none-eabi/include/c++/10.3.1/bits/stl_vector.h **** 
  91:/Library/DaisyToolchain/0.2.0/arm/arm-none-eabi/include/c++/10.3.1/bits/stl_vector.h ****       struct _Vector_impl_data
  92:/Library/DaisyToolchain/0.2.0/arm/arm-none-eabi/include/c++/10.3.1/bits/stl_vector.h ****       {
  93:/Library/DaisyToolchain/0.2.0/arm/arm-none-eabi/include/c++/10.3.1/bits/stl_vector.h **** 	pointer _M_start;
  94:/Library/DaisyToolchain/0.2.0/arm/arm-none-eabi/include/c++/10.3.1/bits/stl_vector.h **** 	pointer _M_finish;
  95:/Library/DaisyToolchain/0.2.0/arm/arm-none-eabi/include/c++/10.3.1/bits/stl_vector.h **** 	pointer _M_end_of_storage;
  96:/Library/DaisyToolchain/0.2.0/arm/arm-none-eabi/include/c++/10.3.1/bits/stl_vector.h **** 
  97:/Library/DaisyToolchain/0.2.0/arm/arm-none-eabi/include/c++/10.3.1/bits/stl_vector.h **** 	_Vector_impl_data() _GLIBCXX_NOEXCEPT
  98:/Library/DaisyToolchain/0.2.0/arm/arm-none-eabi/include/c++/10.3.1/bits/stl_vector.h **** 	: _M_start(), _M_finish(), _M_end_of_storage()
  99:/Library/DaisyToolchain/0.2.0/arm/arm-none-eabi/include/c++/10.3.1/bits/stl_vector.h **** 	{ }
 100:/Library/DaisyToolchain/0.2.0/arm/arm-none-eabi/include/c++/10.3.1/bits/stl_vector.h **** 
 101:/Library/DaisyToolchain/0.2.0/arm/arm-none-eabi/include/c++/10.3.1/bits/stl_vector.h **** #if __cplusplus >= 201103L
 102:/Library/DaisyToolchain/0.2.0/arm/arm-none-eabi/include/c++/10.3.1/bits/stl_vector.h **** 	_Vector_impl_data(_Vector_impl_data&& __x) noexcept
 103:/Library/DaisyToolchain/0.2.0/arm/arm-none-eabi/include/c++/10.3.1/bits/stl_vector.h **** 	: _M_start(__x._M_start), _M_finish(__x._M_finish),
 104:/Library/DaisyToolchain/0.2.0/arm/arm-none-eabi/include/c++/10.3.1/bits/stl_vector.h **** 	  _M_end_of_storage(__x._M_end_of_storage)
 105:/Library/DaisyToolchain/0.2.0/arm/arm-none-eabi/include/c++/10.3.1/bits/stl_vector.h **** 	{ __x._M_start = __x._M_finish = __x._M_end_of_storage = pointer(); }
 106:/Library/DaisyToolchain/0.2.0/arm/arm-none-eabi/include/c++/10.3.1/bits/stl_vector.h **** #endif
 107:/Library/DaisyToolchain/0.2.0/arm/arm-none-eabi/include/c++/10.3.1/bits/stl_vector.h **** 
 108:/Library/DaisyToolchain/0.2.0/arm/arm-none-eabi/include/c++/10.3.1/bits/stl_vector.h **** 	void
 109:/Library/DaisyToolchain/0.2.0/arm/arm-none-eabi/include/c++/10.3.1/bits/stl_vector.h **** 	_M_copy_data(_Vector_impl_data const& __x) _GLIBCXX_NOEXCEPT
 110:/Library/DaisyToolchain/0.2.0/arm/arm-none-eabi/include/c++/10.3.1/bits/stl_vector.h **** 	{
 111:/Library/DaisyToolchain/0.2.0/arm/arm-none-eabi/include/c++/10.3.1/bits/stl_vector.h **** 	  _M_start = __x._M_start;
 112:/Library/DaisyToolchain/0.2.0/arm/arm-none-eabi/include/c++/10.3.1/bits/stl_vector.h **** 	  _M_finish = __x._M_finish;
 113:/Library/DaisyToolchain/0.2.0/arm/arm-none-eabi/include/c++/10.3.1/bits/stl_vector.h **** 	  _M_end_of_storage = __x._M_end_of_storage;
 114:/Library/DaisyToolchain/0.2.0/arm/arm-none-eabi/include/c++/10.3.1/bits/stl_vector.h **** 	}
 115:/Library/DaisyToolchain/0.2.0/arm/arm-none-eabi/include/c++/10.3.1/bits/stl_vector.h **** 
 116:/Library/DaisyToolchain/0.2.0/arm/arm-none-eabi/include/c++/10.3.1/bits/stl_vector.h **** 	void
 117:/Library/DaisyToolchain/0.2.0/arm/arm-none-eabi/include/c++/10.3.1/bits/stl_vector.h **** 	_M_swap_data(_Vector_impl_data& __x) _GLIBCXX_NOEXCEPT
 118:/Library/DaisyToolchain/0.2.0/arm/arm-none-eabi/include/c++/10.3.1/bits/stl_vector.h **** 	{
 119:/Library/DaisyToolchain/0.2.0/arm/arm-none-eabi/include/c++/10.3.1/bits/stl_vector.h **** 	  // Do not use std::swap(_M_start, __x._M_start), etc as it loses
 120:/Library/DaisyToolchain/0.2.0/arm/arm-none-eabi/include/c++/10.3.1/bits/stl_vector.h **** 	  // information used by TBAA.
 121:/Library/DaisyToolchain/0.2.0/arm/arm-none-eabi/include/c++/10.3.1/bits/stl_vector.h **** 	  _Vector_impl_data __tmp;
 122:/Library/DaisyToolchain/0.2.0/arm/arm-none-eabi/include/c++/10.3.1/bits/stl_vector.h **** 	  __tmp._M_copy_data(*this);
 123:/Library/DaisyToolchain/0.2.0/arm/arm-none-eabi/include/c++/10.3.1/bits/stl_vector.h **** 	  _M_copy_data(__x);
 124:/Library/DaisyToolchain/0.2.0/arm/arm-none-eabi/include/c++/10.3.1/bits/stl_vector.h **** 	  __x._M_copy_data(__tmp);
 125:/Library/DaisyToolchain/0.2.0/arm/arm-none-eabi/include/c++/10.3.1/bits/stl_vector.h **** 	}
 126:/Library/DaisyToolchain/0.2.0/arm/arm-none-eabi/include/c++/10.3.1/bits/stl_vector.h ****       };
 127:/Library/DaisyToolchain/0.2.0/arm/arm-none-eabi/include/c++/10.3.1/bits/stl_vector.h **** 
 128:/Library/DaisyToolchain/0.2.0/arm/arm-none-eabi/include/c++/10.3.1/bits/stl_vector.h ****       struct _Vector_impl
 129:/Library/DaisyToolchain/0.2.0/arm/arm-none-eabi/include/c++/10.3.1/bits/stl_vector.h **** 	: public _Tp_alloc_type, public _Vector_impl_data
 130:/Library/DaisyToolchain/0.2.0/arm/arm-none-eabi/include/c++/10.3.1/bits/stl_vector.h ****       {
 131:/Library/DaisyToolchain/0.2.0/arm/arm-none-eabi/include/c++/10.3.1/bits/stl_vector.h **** 	_Vector_impl() _GLIBCXX_NOEXCEPT_IF(
 132:/Library/DaisyToolchain/0.2.0/arm/arm-none-eabi/include/c++/10.3.1/bits/stl_vector.h **** 	    is_nothrow_default_constructible<_Tp_alloc_type>::value)
 133:/Library/DaisyToolchain/0.2.0/arm/arm-none-eabi/include/c++/10.3.1/bits/stl_vector.h **** 	: _Tp_alloc_type()
 134:/Library/DaisyToolchain/0.2.0/arm/arm-none-eabi/include/c++/10.3.1/bits/stl_vector.h **** 	{ }
 135:/Library/DaisyToolchain/0.2.0/arm/arm-none-eabi/include/c++/10.3.1/bits/stl_vector.h **** 
 136:/Library/DaisyToolchain/0.2.0/arm/arm-none-eabi/include/c++/10.3.1/bits/stl_vector.h **** 	_Vector_impl(_Tp_alloc_type const& __a) _GLIBCXX_NOEXCEPT
 137:/Library/DaisyToolchain/0.2.0/arm/arm-none-eabi/include/c++/10.3.1/bits/stl_vector.h **** 	: _Tp_alloc_type(__a)
 138:/Library/DaisyToolchain/0.2.0/arm/arm-none-eabi/include/c++/10.3.1/bits/stl_vector.h **** 	{ }
 139:/Library/DaisyToolchain/0.2.0/arm/arm-none-eabi/include/c++/10.3.1/bits/stl_vector.h **** 
 140:/Library/DaisyToolchain/0.2.0/arm/arm-none-eabi/include/c++/10.3.1/bits/stl_vector.h **** #if __cplusplus >= 201103L
 141:/Library/DaisyToolchain/0.2.0/arm/arm-none-eabi/include/c++/10.3.1/bits/stl_vector.h **** 	// Not defaulted, to enforce noexcept(true) even when
 142:/Library/DaisyToolchain/0.2.0/arm/arm-none-eabi/include/c++/10.3.1/bits/stl_vector.h **** 	// !is_nothrow_move_constructible<_Tp_alloc_type>.
 143:/Library/DaisyToolchain/0.2.0/arm/arm-none-eabi/include/c++/10.3.1/bits/stl_vector.h **** 	_Vector_impl(_Vector_impl&& __x) noexcept
ARM GAS  /var/folders/41/s_9r3f9s4p3_9jgx7wszdkhh0000gn/T//ccQQceQd.s 			page 27


 144:/Library/DaisyToolchain/0.2.0/arm/arm-none-eabi/include/c++/10.3.1/bits/stl_vector.h **** 	: _Tp_alloc_type(std::move(__x)), _Vector_impl_data(std::move(__x))
 145:/Library/DaisyToolchain/0.2.0/arm/arm-none-eabi/include/c++/10.3.1/bits/stl_vector.h **** 	{ }
 146:/Library/DaisyToolchain/0.2.0/arm/arm-none-eabi/include/c++/10.3.1/bits/stl_vector.h **** 
 147:/Library/DaisyToolchain/0.2.0/arm/arm-none-eabi/include/c++/10.3.1/bits/stl_vector.h **** 	_Vector_impl(_Tp_alloc_type&& __a) noexcept
 148:/Library/DaisyToolchain/0.2.0/arm/arm-none-eabi/include/c++/10.3.1/bits/stl_vector.h **** 	: _Tp_alloc_type(std::move(__a))
 149:/Library/DaisyToolchain/0.2.0/arm/arm-none-eabi/include/c++/10.3.1/bits/stl_vector.h **** 	{ }
 150:/Library/DaisyToolchain/0.2.0/arm/arm-none-eabi/include/c++/10.3.1/bits/stl_vector.h **** 
 151:/Library/DaisyToolchain/0.2.0/arm/arm-none-eabi/include/c++/10.3.1/bits/stl_vector.h **** 	_Vector_impl(_Tp_alloc_type&& __a, _Vector_impl&& __rv) noexcept
 152:/Library/DaisyToolchain/0.2.0/arm/arm-none-eabi/include/c++/10.3.1/bits/stl_vector.h **** 	: _Tp_alloc_type(std::move(__a)), _Vector_impl_data(std::move(__rv))
 153:/Library/DaisyToolchain/0.2.0/arm/arm-none-eabi/include/c++/10.3.1/bits/stl_vector.h **** 	{ }
 154:/Library/DaisyToolchain/0.2.0/arm/arm-none-eabi/include/c++/10.3.1/bits/stl_vector.h **** #endif
 155:/Library/DaisyToolchain/0.2.0/arm/arm-none-eabi/include/c++/10.3.1/bits/stl_vector.h **** 
 156:/Library/DaisyToolchain/0.2.0/arm/arm-none-eabi/include/c++/10.3.1/bits/stl_vector.h **** #if _GLIBCXX_SANITIZE_STD_ALLOCATOR && _GLIBCXX_SANITIZE_VECTOR
 157:/Library/DaisyToolchain/0.2.0/arm/arm-none-eabi/include/c++/10.3.1/bits/stl_vector.h **** 	template<typename = _Tp_alloc_type>
 158:/Library/DaisyToolchain/0.2.0/arm/arm-none-eabi/include/c++/10.3.1/bits/stl_vector.h **** 	  struct _Asan
 159:/Library/DaisyToolchain/0.2.0/arm/arm-none-eabi/include/c++/10.3.1/bits/stl_vector.h **** 	  {
 160:/Library/DaisyToolchain/0.2.0/arm/arm-none-eabi/include/c++/10.3.1/bits/stl_vector.h **** 	    typedef typename __gnu_cxx::__alloc_traits<_Tp_alloc_type>
 161:/Library/DaisyToolchain/0.2.0/arm/arm-none-eabi/include/c++/10.3.1/bits/stl_vector.h **** 	      ::size_type size_type;
 162:/Library/DaisyToolchain/0.2.0/arm/arm-none-eabi/include/c++/10.3.1/bits/stl_vector.h **** 
 163:/Library/DaisyToolchain/0.2.0/arm/arm-none-eabi/include/c++/10.3.1/bits/stl_vector.h **** 	    static void _S_shrink(_Vector_impl&, size_type) { }
 164:/Library/DaisyToolchain/0.2.0/arm/arm-none-eabi/include/c++/10.3.1/bits/stl_vector.h **** 	    static void _S_on_dealloc(_Vector_impl&) { }
 165:/Library/DaisyToolchain/0.2.0/arm/arm-none-eabi/include/c++/10.3.1/bits/stl_vector.h **** 
 166:/Library/DaisyToolchain/0.2.0/arm/arm-none-eabi/include/c++/10.3.1/bits/stl_vector.h **** 	    typedef _Vector_impl& _Reinit;
 167:/Library/DaisyToolchain/0.2.0/arm/arm-none-eabi/include/c++/10.3.1/bits/stl_vector.h **** 
 168:/Library/DaisyToolchain/0.2.0/arm/arm-none-eabi/include/c++/10.3.1/bits/stl_vector.h **** 	    struct _Grow
 169:/Library/DaisyToolchain/0.2.0/arm/arm-none-eabi/include/c++/10.3.1/bits/stl_vector.h **** 	    {
 170:/Library/DaisyToolchain/0.2.0/arm/arm-none-eabi/include/c++/10.3.1/bits/stl_vector.h **** 	      _Grow(_Vector_impl&, size_type) { }
 171:/Library/DaisyToolchain/0.2.0/arm/arm-none-eabi/include/c++/10.3.1/bits/stl_vector.h **** 	      void _M_grew(size_type) { }
 172:/Library/DaisyToolchain/0.2.0/arm/arm-none-eabi/include/c++/10.3.1/bits/stl_vector.h **** 	    };
 173:/Library/DaisyToolchain/0.2.0/arm/arm-none-eabi/include/c++/10.3.1/bits/stl_vector.h **** 	  };
 174:/Library/DaisyToolchain/0.2.0/arm/arm-none-eabi/include/c++/10.3.1/bits/stl_vector.h **** 
 175:/Library/DaisyToolchain/0.2.0/arm/arm-none-eabi/include/c++/10.3.1/bits/stl_vector.h **** 	// Enable ASan annotations for memory obtained from std::allocator.
 176:/Library/DaisyToolchain/0.2.0/arm/arm-none-eabi/include/c++/10.3.1/bits/stl_vector.h **** 	template<typename _Up>
 177:/Library/DaisyToolchain/0.2.0/arm/arm-none-eabi/include/c++/10.3.1/bits/stl_vector.h **** 	  struct _Asan<allocator<_Up> >
 178:/Library/DaisyToolchain/0.2.0/arm/arm-none-eabi/include/c++/10.3.1/bits/stl_vector.h **** 	  {
 179:/Library/DaisyToolchain/0.2.0/arm/arm-none-eabi/include/c++/10.3.1/bits/stl_vector.h **** 	    typedef typename __gnu_cxx::__alloc_traits<_Tp_alloc_type>
 180:/Library/DaisyToolchain/0.2.0/arm/arm-none-eabi/include/c++/10.3.1/bits/stl_vector.h **** 	      ::size_type size_type;
 181:/Library/DaisyToolchain/0.2.0/arm/arm-none-eabi/include/c++/10.3.1/bits/stl_vector.h **** 
 182:/Library/DaisyToolchain/0.2.0/arm/arm-none-eabi/include/c++/10.3.1/bits/stl_vector.h **** 	    // Adjust ASan annotation for [_M_start, _M_end_of_storage) to
 183:/Library/DaisyToolchain/0.2.0/arm/arm-none-eabi/include/c++/10.3.1/bits/stl_vector.h **** 	    // mark end of valid region as __curr instead of __prev.
 184:/Library/DaisyToolchain/0.2.0/arm/arm-none-eabi/include/c++/10.3.1/bits/stl_vector.h **** 	    static void
 185:/Library/DaisyToolchain/0.2.0/arm/arm-none-eabi/include/c++/10.3.1/bits/stl_vector.h **** 	    _S_adjust(_Vector_impl& __impl, pointer __prev, pointer __curr)
 186:/Library/DaisyToolchain/0.2.0/arm/arm-none-eabi/include/c++/10.3.1/bits/stl_vector.h **** 	    {
 187:/Library/DaisyToolchain/0.2.0/arm/arm-none-eabi/include/c++/10.3.1/bits/stl_vector.h **** 	      __sanitizer_annotate_contiguous_container(__impl._M_start,
 188:/Library/DaisyToolchain/0.2.0/arm/arm-none-eabi/include/c++/10.3.1/bits/stl_vector.h **** 		  __impl._M_end_of_storage, __prev, __curr);
 189:/Library/DaisyToolchain/0.2.0/arm/arm-none-eabi/include/c++/10.3.1/bits/stl_vector.h **** 	    }
 190:/Library/DaisyToolchain/0.2.0/arm/arm-none-eabi/include/c++/10.3.1/bits/stl_vector.h **** 
 191:/Library/DaisyToolchain/0.2.0/arm/arm-none-eabi/include/c++/10.3.1/bits/stl_vector.h **** 	    static void
 192:/Library/DaisyToolchain/0.2.0/arm/arm-none-eabi/include/c++/10.3.1/bits/stl_vector.h **** 	    _S_grow(_Vector_impl& __impl, size_type __n)
 193:/Library/DaisyToolchain/0.2.0/arm/arm-none-eabi/include/c++/10.3.1/bits/stl_vector.h **** 	    { _S_adjust(__impl, __impl._M_finish, __impl._M_finish + __n); }
 194:/Library/DaisyToolchain/0.2.0/arm/arm-none-eabi/include/c++/10.3.1/bits/stl_vector.h **** 
 195:/Library/DaisyToolchain/0.2.0/arm/arm-none-eabi/include/c++/10.3.1/bits/stl_vector.h **** 	    static void
 196:/Library/DaisyToolchain/0.2.0/arm/arm-none-eabi/include/c++/10.3.1/bits/stl_vector.h **** 	    _S_shrink(_Vector_impl& __impl, size_type __n)
 197:/Library/DaisyToolchain/0.2.0/arm/arm-none-eabi/include/c++/10.3.1/bits/stl_vector.h **** 	    { _S_adjust(__impl, __impl._M_finish + __n, __impl._M_finish); }
 198:/Library/DaisyToolchain/0.2.0/arm/arm-none-eabi/include/c++/10.3.1/bits/stl_vector.h **** 
 199:/Library/DaisyToolchain/0.2.0/arm/arm-none-eabi/include/c++/10.3.1/bits/stl_vector.h **** 	    static void
 200:/Library/DaisyToolchain/0.2.0/arm/arm-none-eabi/include/c++/10.3.1/bits/stl_vector.h **** 	    _S_on_dealloc(_Vector_impl& __impl)
ARM GAS  /var/folders/41/s_9r3f9s4p3_9jgx7wszdkhh0000gn/T//ccQQceQd.s 			page 28


 201:/Library/DaisyToolchain/0.2.0/arm/arm-none-eabi/include/c++/10.3.1/bits/stl_vector.h **** 	    {
 202:/Library/DaisyToolchain/0.2.0/arm/arm-none-eabi/include/c++/10.3.1/bits/stl_vector.h **** 	      if (__impl._M_start)
 203:/Library/DaisyToolchain/0.2.0/arm/arm-none-eabi/include/c++/10.3.1/bits/stl_vector.h **** 		_S_adjust(__impl, __impl._M_finish, __impl._M_end_of_storage);
 204:/Library/DaisyToolchain/0.2.0/arm/arm-none-eabi/include/c++/10.3.1/bits/stl_vector.h **** 	    }
 205:/Library/DaisyToolchain/0.2.0/arm/arm-none-eabi/include/c++/10.3.1/bits/stl_vector.h **** 
 206:/Library/DaisyToolchain/0.2.0/arm/arm-none-eabi/include/c++/10.3.1/bits/stl_vector.h **** 	    // Used on reallocation to tell ASan unused capacity is invalid.
 207:/Library/DaisyToolchain/0.2.0/arm/arm-none-eabi/include/c++/10.3.1/bits/stl_vector.h **** 	    struct _Reinit
 208:/Library/DaisyToolchain/0.2.0/arm/arm-none-eabi/include/c++/10.3.1/bits/stl_vector.h **** 	    {
 209:/Library/DaisyToolchain/0.2.0/arm/arm-none-eabi/include/c++/10.3.1/bits/stl_vector.h **** 	      explicit _Reinit(_Vector_impl& __impl) : _M_impl(__impl)
 210:/Library/DaisyToolchain/0.2.0/arm/arm-none-eabi/include/c++/10.3.1/bits/stl_vector.h **** 	      {
 211:/Library/DaisyToolchain/0.2.0/arm/arm-none-eabi/include/c++/10.3.1/bits/stl_vector.h **** 		// Mark unused capacity as valid again before deallocating it.
 212:/Library/DaisyToolchain/0.2.0/arm/arm-none-eabi/include/c++/10.3.1/bits/stl_vector.h **** 		_S_on_dealloc(_M_impl);
 213:/Library/DaisyToolchain/0.2.0/arm/arm-none-eabi/include/c++/10.3.1/bits/stl_vector.h **** 	      }
 214:/Library/DaisyToolchain/0.2.0/arm/arm-none-eabi/include/c++/10.3.1/bits/stl_vector.h **** 
 215:/Library/DaisyToolchain/0.2.0/arm/arm-none-eabi/include/c++/10.3.1/bits/stl_vector.h **** 	      ~_Reinit()
 216:/Library/DaisyToolchain/0.2.0/arm/arm-none-eabi/include/c++/10.3.1/bits/stl_vector.h **** 	      {
 217:/Library/DaisyToolchain/0.2.0/arm/arm-none-eabi/include/c++/10.3.1/bits/stl_vector.h **** 		// Mark unused capacity as invalid after reallocation.
 218:/Library/DaisyToolchain/0.2.0/arm/arm-none-eabi/include/c++/10.3.1/bits/stl_vector.h **** 		if (_M_impl._M_start)
 219:/Library/DaisyToolchain/0.2.0/arm/arm-none-eabi/include/c++/10.3.1/bits/stl_vector.h **** 		  _S_adjust(_M_impl, _M_impl._M_end_of_storage,
 220:/Library/DaisyToolchain/0.2.0/arm/arm-none-eabi/include/c++/10.3.1/bits/stl_vector.h **** 			    _M_impl._M_finish);
 221:/Library/DaisyToolchain/0.2.0/arm/arm-none-eabi/include/c++/10.3.1/bits/stl_vector.h **** 	      }
 222:/Library/DaisyToolchain/0.2.0/arm/arm-none-eabi/include/c++/10.3.1/bits/stl_vector.h **** 
 223:/Library/DaisyToolchain/0.2.0/arm/arm-none-eabi/include/c++/10.3.1/bits/stl_vector.h **** 	      _Vector_impl& _M_impl;
 224:/Library/DaisyToolchain/0.2.0/arm/arm-none-eabi/include/c++/10.3.1/bits/stl_vector.h **** 
 225:/Library/DaisyToolchain/0.2.0/arm/arm-none-eabi/include/c++/10.3.1/bits/stl_vector.h **** #if __cplusplus >= 201103L
 226:/Library/DaisyToolchain/0.2.0/arm/arm-none-eabi/include/c++/10.3.1/bits/stl_vector.h **** 	      _Reinit(const _Reinit&) = delete;
 227:/Library/DaisyToolchain/0.2.0/arm/arm-none-eabi/include/c++/10.3.1/bits/stl_vector.h **** 	      _Reinit& operator=(const _Reinit&) = delete;
 228:/Library/DaisyToolchain/0.2.0/arm/arm-none-eabi/include/c++/10.3.1/bits/stl_vector.h **** #endif
 229:/Library/DaisyToolchain/0.2.0/arm/arm-none-eabi/include/c++/10.3.1/bits/stl_vector.h **** 	    };
 230:/Library/DaisyToolchain/0.2.0/arm/arm-none-eabi/include/c++/10.3.1/bits/stl_vector.h **** 
 231:/Library/DaisyToolchain/0.2.0/arm/arm-none-eabi/include/c++/10.3.1/bits/stl_vector.h **** 	    // Tell ASan when unused capacity is initialized to be valid.
 232:/Library/DaisyToolchain/0.2.0/arm/arm-none-eabi/include/c++/10.3.1/bits/stl_vector.h **** 	    struct _Grow
 233:/Library/DaisyToolchain/0.2.0/arm/arm-none-eabi/include/c++/10.3.1/bits/stl_vector.h **** 	    {
 234:/Library/DaisyToolchain/0.2.0/arm/arm-none-eabi/include/c++/10.3.1/bits/stl_vector.h **** 	      _Grow(_Vector_impl& __impl, size_type __n)
 235:/Library/DaisyToolchain/0.2.0/arm/arm-none-eabi/include/c++/10.3.1/bits/stl_vector.h **** 	      : _M_impl(__impl), _M_n(__n)
 236:/Library/DaisyToolchain/0.2.0/arm/arm-none-eabi/include/c++/10.3.1/bits/stl_vector.h **** 	      { _S_grow(_M_impl, __n); }
 237:/Library/DaisyToolchain/0.2.0/arm/arm-none-eabi/include/c++/10.3.1/bits/stl_vector.h **** 
 238:/Library/DaisyToolchain/0.2.0/arm/arm-none-eabi/include/c++/10.3.1/bits/stl_vector.h **** 	      ~_Grow() { if (_M_n) _S_shrink(_M_impl, _M_n); }
 239:/Library/DaisyToolchain/0.2.0/arm/arm-none-eabi/include/c++/10.3.1/bits/stl_vector.h **** 
 240:/Library/DaisyToolchain/0.2.0/arm/arm-none-eabi/include/c++/10.3.1/bits/stl_vector.h **** 	      void _M_grew(size_type __n) { _M_n -= __n; }
 241:/Library/DaisyToolchain/0.2.0/arm/arm-none-eabi/include/c++/10.3.1/bits/stl_vector.h **** 
 242:/Library/DaisyToolchain/0.2.0/arm/arm-none-eabi/include/c++/10.3.1/bits/stl_vector.h **** #if __cplusplus >= 201103L
 243:/Library/DaisyToolchain/0.2.0/arm/arm-none-eabi/include/c++/10.3.1/bits/stl_vector.h **** 	      _Grow(const _Grow&) = delete;
 244:/Library/DaisyToolchain/0.2.0/arm/arm-none-eabi/include/c++/10.3.1/bits/stl_vector.h **** 	      _Grow& operator=(const _Grow&) = delete;
 245:/Library/DaisyToolchain/0.2.0/arm/arm-none-eabi/include/c++/10.3.1/bits/stl_vector.h **** #endif
 246:/Library/DaisyToolchain/0.2.0/arm/arm-none-eabi/include/c++/10.3.1/bits/stl_vector.h **** 	    private:
 247:/Library/DaisyToolchain/0.2.0/arm/arm-none-eabi/include/c++/10.3.1/bits/stl_vector.h **** 	      _Vector_impl& _M_impl;
 248:/Library/DaisyToolchain/0.2.0/arm/arm-none-eabi/include/c++/10.3.1/bits/stl_vector.h **** 	      size_type _M_n;
 249:/Library/DaisyToolchain/0.2.0/arm/arm-none-eabi/include/c++/10.3.1/bits/stl_vector.h **** 	    };
 250:/Library/DaisyToolchain/0.2.0/arm/arm-none-eabi/include/c++/10.3.1/bits/stl_vector.h **** 	  };
 251:/Library/DaisyToolchain/0.2.0/arm/arm-none-eabi/include/c++/10.3.1/bits/stl_vector.h **** 
 252:/Library/DaisyToolchain/0.2.0/arm/arm-none-eabi/include/c++/10.3.1/bits/stl_vector.h **** #define _GLIBCXX_ASAN_ANNOTATE_REINIT \
 253:/Library/DaisyToolchain/0.2.0/arm/arm-none-eabi/include/c++/10.3.1/bits/stl_vector.h ****   typename _Base::_Vector_impl::template _Asan<>::_Reinit const \
 254:/Library/DaisyToolchain/0.2.0/arm/arm-none-eabi/include/c++/10.3.1/bits/stl_vector.h **** 	__attribute__((__unused__)) __reinit_guard(this->_M_impl)
 255:/Library/DaisyToolchain/0.2.0/arm/arm-none-eabi/include/c++/10.3.1/bits/stl_vector.h **** #define _GLIBCXX_ASAN_ANNOTATE_GROW(n) \
 256:/Library/DaisyToolchain/0.2.0/arm/arm-none-eabi/include/c++/10.3.1/bits/stl_vector.h ****   typename _Base::_Vector_impl::template _Asan<>::_Grow \
 257:/Library/DaisyToolchain/0.2.0/arm/arm-none-eabi/include/c++/10.3.1/bits/stl_vector.h **** 	__attribute__((__unused__)) __grow_guard(this->_M_impl, (n))
ARM GAS  /var/folders/41/s_9r3f9s4p3_9jgx7wszdkhh0000gn/T//ccQQceQd.s 			page 29


 258:/Library/DaisyToolchain/0.2.0/arm/arm-none-eabi/include/c++/10.3.1/bits/stl_vector.h **** #define _GLIBCXX_ASAN_ANNOTATE_GREW(n) __grow_guard._M_grew(n)
 259:/Library/DaisyToolchain/0.2.0/arm/arm-none-eabi/include/c++/10.3.1/bits/stl_vector.h **** #define _GLIBCXX_ASAN_ANNOTATE_SHRINK(n) \
 260:/Library/DaisyToolchain/0.2.0/arm/arm-none-eabi/include/c++/10.3.1/bits/stl_vector.h ****   _Base::_Vector_impl::template _Asan<>::_S_shrink(this->_M_impl, n)
 261:/Library/DaisyToolchain/0.2.0/arm/arm-none-eabi/include/c++/10.3.1/bits/stl_vector.h **** #define _GLIBCXX_ASAN_ANNOTATE_BEFORE_DEALLOC \
 262:/Library/DaisyToolchain/0.2.0/arm/arm-none-eabi/include/c++/10.3.1/bits/stl_vector.h ****   _Base::_Vector_impl::template _Asan<>::_S_on_dealloc(this->_M_impl)
 263:/Library/DaisyToolchain/0.2.0/arm/arm-none-eabi/include/c++/10.3.1/bits/stl_vector.h **** #else // ! (_GLIBCXX_SANITIZE_STD_ALLOCATOR && _GLIBCXX_SANITIZE_VECTOR)
 264:/Library/DaisyToolchain/0.2.0/arm/arm-none-eabi/include/c++/10.3.1/bits/stl_vector.h **** #define _GLIBCXX_ASAN_ANNOTATE_REINIT
 265:/Library/DaisyToolchain/0.2.0/arm/arm-none-eabi/include/c++/10.3.1/bits/stl_vector.h **** #define _GLIBCXX_ASAN_ANNOTATE_GROW(n)
 266:/Library/DaisyToolchain/0.2.0/arm/arm-none-eabi/include/c++/10.3.1/bits/stl_vector.h **** #define _GLIBCXX_ASAN_ANNOTATE_GREW(n)
 267:/Library/DaisyToolchain/0.2.0/arm/arm-none-eabi/include/c++/10.3.1/bits/stl_vector.h **** #define _GLIBCXX_ASAN_ANNOTATE_SHRINK(n)
 268:/Library/DaisyToolchain/0.2.0/arm/arm-none-eabi/include/c++/10.3.1/bits/stl_vector.h **** #define _GLIBCXX_ASAN_ANNOTATE_BEFORE_DEALLOC
 269:/Library/DaisyToolchain/0.2.0/arm/arm-none-eabi/include/c++/10.3.1/bits/stl_vector.h **** #endif // _GLIBCXX_SANITIZE_STD_ALLOCATOR && _GLIBCXX_SANITIZE_VECTOR
 270:/Library/DaisyToolchain/0.2.0/arm/arm-none-eabi/include/c++/10.3.1/bits/stl_vector.h ****       };
 271:/Library/DaisyToolchain/0.2.0/arm/arm-none-eabi/include/c++/10.3.1/bits/stl_vector.h **** 
 272:/Library/DaisyToolchain/0.2.0/arm/arm-none-eabi/include/c++/10.3.1/bits/stl_vector.h ****     public:
 273:/Library/DaisyToolchain/0.2.0/arm/arm-none-eabi/include/c++/10.3.1/bits/stl_vector.h ****       typedef _Alloc allocator_type;
 274:/Library/DaisyToolchain/0.2.0/arm/arm-none-eabi/include/c++/10.3.1/bits/stl_vector.h **** 
 275:/Library/DaisyToolchain/0.2.0/arm/arm-none-eabi/include/c++/10.3.1/bits/stl_vector.h ****       _Tp_alloc_type&
 276:/Library/DaisyToolchain/0.2.0/arm/arm-none-eabi/include/c++/10.3.1/bits/stl_vector.h ****       _M_get_Tp_allocator() _GLIBCXX_NOEXCEPT
 277:/Library/DaisyToolchain/0.2.0/arm/arm-none-eabi/include/c++/10.3.1/bits/stl_vector.h ****       { return this->_M_impl; }
 278:/Library/DaisyToolchain/0.2.0/arm/arm-none-eabi/include/c++/10.3.1/bits/stl_vector.h **** 
 279:/Library/DaisyToolchain/0.2.0/arm/arm-none-eabi/include/c++/10.3.1/bits/stl_vector.h ****       const _Tp_alloc_type&
 280:/Library/DaisyToolchain/0.2.0/arm/arm-none-eabi/include/c++/10.3.1/bits/stl_vector.h ****       _M_get_Tp_allocator() const _GLIBCXX_NOEXCEPT
 281:/Library/DaisyToolchain/0.2.0/arm/arm-none-eabi/include/c++/10.3.1/bits/stl_vector.h ****       { return this->_M_impl; }
 282:/Library/DaisyToolchain/0.2.0/arm/arm-none-eabi/include/c++/10.3.1/bits/stl_vector.h **** 
 283:/Library/DaisyToolchain/0.2.0/arm/arm-none-eabi/include/c++/10.3.1/bits/stl_vector.h ****       allocator_type
 284:/Library/DaisyToolchain/0.2.0/arm/arm-none-eabi/include/c++/10.3.1/bits/stl_vector.h ****       get_allocator() const _GLIBCXX_NOEXCEPT
 285:/Library/DaisyToolchain/0.2.0/arm/arm-none-eabi/include/c++/10.3.1/bits/stl_vector.h ****       { return allocator_type(_M_get_Tp_allocator()); }
 286:/Library/DaisyToolchain/0.2.0/arm/arm-none-eabi/include/c++/10.3.1/bits/stl_vector.h **** 
 287:/Library/DaisyToolchain/0.2.0/arm/arm-none-eabi/include/c++/10.3.1/bits/stl_vector.h **** #if __cplusplus >= 201103L
 288:/Library/DaisyToolchain/0.2.0/arm/arm-none-eabi/include/c++/10.3.1/bits/stl_vector.h ****       _Vector_base() = default;
 289:/Library/DaisyToolchain/0.2.0/arm/arm-none-eabi/include/c++/10.3.1/bits/stl_vector.h **** #else
 290:/Library/DaisyToolchain/0.2.0/arm/arm-none-eabi/include/c++/10.3.1/bits/stl_vector.h ****       _Vector_base() { }
 291:/Library/DaisyToolchain/0.2.0/arm/arm-none-eabi/include/c++/10.3.1/bits/stl_vector.h **** #endif
 292:/Library/DaisyToolchain/0.2.0/arm/arm-none-eabi/include/c++/10.3.1/bits/stl_vector.h **** 
 293:/Library/DaisyToolchain/0.2.0/arm/arm-none-eabi/include/c++/10.3.1/bits/stl_vector.h ****       _Vector_base(const allocator_type& __a) _GLIBCXX_NOEXCEPT
 294:/Library/DaisyToolchain/0.2.0/arm/arm-none-eabi/include/c++/10.3.1/bits/stl_vector.h ****       : _M_impl(__a) { }
 295:/Library/DaisyToolchain/0.2.0/arm/arm-none-eabi/include/c++/10.3.1/bits/stl_vector.h **** 
 296:/Library/DaisyToolchain/0.2.0/arm/arm-none-eabi/include/c++/10.3.1/bits/stl_vector.h ****       // Kept for ABI compatibility.
 297:/Library/DaisyToolchain/0.2.0/arm/arm-none-eabi/include/c++/10.3.1/bits/stl_vector.h **** #if !_GLIBCXX_INLINE_VERSION
 298:/Library/DaisyToolchain/0.2.0/arm/arm-none-eabi/include/c++/10.3.1/bits/stl_vector.h ****       _Vector_base(size_t __n)
 299:/Library/DaisyToolchain/0.2.0/arm/arm-none-eabi/include/c++/10.3.1/bits/stl_vector.h ****       : _M_impl()
 300:/Library/DaisyToolchain/0.2.0/arm/arm-none-eabi/include/c++/10.3.1/bits/stl_vector.h ****       { _M_create_storage(__n); }
 301:/Library/DaisyToolchain/0.2.0/arm/arm-none-eabi/include/c++/10.3.1/bits/stl_vector.h **** #endif
 302:/Library/DaisyToolchain/0.2.0/arm/arm-none-eabi/include/c++/10.3.1/bits/stl_vector.h **** 
 303:/Library/DaisyToolchain/0.2.0/arm/arm-none-eabi/include/c++/10.3.1/bits/stl_vector.h ****       _Vector_base(size_t __n, const allocator_type& __a)
 304:/Library/DaisyToolchain/0.2.0/arm/arm-none-eabi/include/c++/10.3.1/bits/stl_vector.h ****       : _M_impl(__a)
 305:/Library/DaisyToolchain/0.2.0/arm/arm-none-eabi/include/c++/10.3.1/bits/stl_vector.h ****       { _M_create_storage(__n); }
 306:/Library/DaisyToolchain/0.2.0/arm/arm-none-eabi/include/c++/10.3.1/bits/stl_vector.h **** 
 307:/Library/DaisyToolchain/0.2.0/arm/arm-none-eabi/include/c++/10.3.1/bits/stl_vector.h **** #if __cplusplus >= 201103L
 308:/Library/DaisyToolchain/0.2.0/arm/arm-none-eabi/include/c++/10.3.1/bits/stl_vector.h ****       _Vector_base(_Vector_base&&) = default;
 309:/Library/DaisyToolchain/0.2.0/arm/arm-none-eabi/include/c++/10.3.1/bits/stl_vector.h **** 
 310:/Library/DaisyToolchain/0.2.0/arm/arm-none-eabi/include/c++/10.3.1/bits/stl_vector.h ****       // Kept for ABI compatibility.
 311:/Library/DaisyToolchain/0.2.0/arm/arm-none-eabi/include/c++/10.3.1/bits/stl_vector.h **** # if !_GLIBCXX_INLINE_VERSION
 312:/Library/DaisyToolchain/0.2.0/arm/arm-none-eabi/include/c++/10.3.1/bits/stl_vector.h ****       _Vector_base(_Tp_alloc_type&& __a) noexcept
 313:/Library/DaisyToolchain/0.2.0/arm/arm-none-eabi/include/c++/10.3.1/bits/stl_vector.h ****       : _M_impl(std::move(__a)) { }
 314:/Library/DaisyToolchain/0.2.0/arm/arm-none-eabi/include/c++/10.3.1/bits/stl_vector.h **** 
ARM GAS  /var/folders/41/s_9r3f9s4p3_9jgx7wszdkhh0000gn/T//ccQQceQd.s 			page 30


 315:/Library/DaisyToolchain/0.2.0/arm/arm-none-eabi/include/c++/10.3.1/bits/stl_vector.h ****       _Vector_base(_Vector_base&& __x, const allocator_type& __a)
 316:/Library/DaisyToolchain/0.2.0/arm/arm-none-eabi/include/c++/10.3.1/bits/stl_vector.h ****       : _M_impl(__a)
 317:/Library/DaisyToolchain/0.2.0/arm/arm-none-eabi/include/c++/10.3.1/bits/stl_vector.h ****       {
 318:/Library/DaisyToolchain/0.2.0/arm/arm-none-eabi/include/c++/10.3.1/bits/stl_vector.h **** 	if (__x.get_allocator() == __a)
 319:/Library/DaisyToolchain/0.2.0/arm/arm-none-eabi/include/c++/10.3.1/bits/stl_vector.h **** 	  this->_M_impl._M_swap_data(__x._M_impl);
 320:/Library/DaisyToolchain/0.2.0/arm/arm-none-eabi/include/c++/10.3.1/bits/stl_vector.h **** 	else
 321:/Library/DaisyToolchain/0.2.0/arm/arm-none-eabi/include/c++/10.3.1/bits/stl_vector.h **** 	  {
 322:/Library/DaisyToolchain/0.2.0/arm/arm-none-eabi/include/c++/10.3.1/bits/stl_vector.h **** 	    size_t __n = __x._M_impl._M_finish - __x._M_impl._M_start;
 323:/Library/DaisyToolchain/0.2.0/arm/arm-none-eabi/include/c++/10.3.1/bits/stl_vector.h **** 	    _M_create_storage(__n);
 324:/Library/DaisyToolchain/0.2.0/arm/arm-none-eabi/include/c++/10.3.1/bits/stl_vector.h **** 	  }
 325:/Library/DaisyToolchain/0.2.0/arm/arm-none-eabi/include/c++/10.3.1/bits/stl_vector.h ****       }
 326:/Library/DaisyToolchain/0.2.0/arm/arm-none-eabi/include/c++/10.3.1/bits/stl_vector.h **** # endif
 327:/Library/DaisyToolchain/0.2.0/arm/arm-none-eabi/include/c++/10.3.1/bits/stl_vector.h **** 
 328:/Library/DaisyToolchain/0.2.0/arm/arm-none-eabi/include/c++/10.3.1/bits/stl_vector.h ****       _Vector_base(const allocator_type& __a, _Vector_base&& __x)
 329:/Library/DaisyToolchain/0.2.0/arm/arm-none-eabi/include/c++/10.3.1/bits/stl_vector.h ****       : _M_impl(_Tp_alloc_type(__a), std::move(__x._M_impl))
 330:/Library/DaisyToolchain/0.2.0/arm/arm-none-eabi/include/c++/10.3.1/bits/stl_vector.h ****       { }
 331:/Library/DaisyToolchain/0.2.0/arm/arm-none-eabi/include/c++/10.3.1/bits/stl_vector.h **** #endif
 332:/Library/DaisyToolchain/0.2.0/arm/arm-none-eabi/include/c++/10.3.1/bits/stl_vector.h **** 
 333:/Library/DaisyToolchain/0.2.0/arm/arm-none-eabi/include/c++/10.3.1/bits/stl_vector.h ****       ~_Vector_base() _GLIBCXX_NOEXCEPT
 334:/Library/DaisyToolchain/0.2.0/arm/arm-none-eabi/include/c++/10.3.1/bits/stl_vector.h ****       {
 335:/Library/DaisyToolchain/0.2.0/arm/arm-none-eabi/include/c++/10.3.1/bits/stl_vector.h **** 	_M_deallocate(_M_impl._M_start,
 336:/Library/DaisyToolchain/0.2.0/arm/arm-none-eabi/include/c++/10.3.1/bits/stl_vector.h **** 		      _M_impl._M_end_of_storage - _M_impl._M_start);
 337:/Library/DaisyToolchain/0.2.0/arm/arm-none-eabi/include/c++/10.3.1/bits/stl_vector.h ****       }
 338:/Library/DaisyToolchain/0.2.0/arm/arm-none-eabi/include/c++/10.3.1/bits/stl_vector.h **** 
 339:/Library/DaisyToolchain/0.2.0/arm/arm-none-eabi/include/c++/10.3.1/bits/stl_vector.h ****     public:
 340:/Library/DaisyToolchain/0.2.0/arm/arm-none-eabi/include/c++/10.3.1/bits/stl_vector.h ****       _Vector_impl _M_impl;
 341:/Library/DaisyToolchain/0.2.0/arm/arm-none-eabi/include/c++/10.3.1/bits/stl_vector.h **** 
 342:/Library/DaisyToolchain/0.2.0/arm/arm-none-eabi/include/c++/10.3.1/bits/stl_vector.h ****       pointer
 343:/Library/DaisyToolchain/0.2.0/arm/arm-none-eabi/include/c++/10.3.1/bits/stl_vector.h ****       _M_allocate(size_t __n)
 344:/Library/DaisyToolchain/0.2.0/arm/arm-none-eabi/include/c++/10.3.1/bits/stl_vector.h ****       {
 345:/Library/DaisyToolchain/0.2.0/arm/arm-none-eabi/include/c++/10.3.1/bits/stl_vector.h **** 	typedef __gnu_cxx::__alloc_traits<_Tp_alloc_type> _Tr;
 346:/Library/DaisyToolchain/0.2.0/arm/arm-none-eabi/include/c++/10.3.1/bits/stl_vector.h **** 	return __n != 0 ? _Tr::allocate(_M_impl, __n) : pointer();
 347:/Library/DaisyToolchain/0.2.0/arm/arm-none-eabi/include/c++/10.3.1/bits/stl_vector.h ****       }
 348:/Library/DaisyToolchain/0.2.0/arm/arm-none-eabi/include/c++/10.3.1/bits/stl_vector.h **** 
 349:/Library/DaisyToolchain/0.2.0/arm/arm-none-eabi/include/c++/10.3.1/bits/stl_vector.h ****       void
 350:/Library/DaisyToolchain/0.2.0/arm/arm-none-eabi/include/c++/10.3.1/bits/stl_vector.h ****       _M_deallocate(pointer __p, size_t __n)
 351:/Library/DaisyToolchain/0.2.0/arm/arm-none-eabi/include/c++/10.3.1/bits/stl_vector.h ****       {
 352:/Library/DaisyToolchain/0.2.0/arm/arm-none-eabi/include/c++/10.3.1/bits/stl_vector.h **** 	typedef __gnu_cxx::__alloc_traits<_Tp_alloc_type> _Tr;
 353:/Library/DaisyToolchain/0.2.0/arm/arm-none-eabi/include/c++/10.3.1/bits/stl_vector.h **** 	if (__p)
 354:/Library/DaisyToolchain/0.2.0/arm/arm-none-eabi/include/c++/10.3.1/bits/stl_vector.h **** 	  _Tr::deallocate(_M_impl, __p, __n);
 355:/Library/DaisyToolchain/0.2.0/arm/arm-none-eabi/include/c++/10.3.1/bits/stl_vector.h ****       }
 356:/Library/DaisyToolchain/0.2.0/arm/arm-none-eabi/include/c++/10.3.1/bits/stl_vector.h **** 
 357:/Library/DaisyToolchain/0.2.0/arm/arm-none-eabi/include/c++/10.3.1/bits/stl_vector.h ****     protected:
 358:/Library/DaisyToolchain/0.2.0/arm/arm-none-eabi/include/c++/10.3.1/bits/stl_vector.h ****       void
 359:/Library/DaisyToolchain/0.2.0/arm/arm-none-eabi/include/c++/10.3.1/bits/stl_vector.h ****       _M_create_storage(size_t __n)
 360:/Library/DaisyToolchain/0.2.0/arm/arm-none-eabi/include/c++/10.3.1/bits/stl_vector.h ****       {
 361:/Library/DaisyToolchain/0.2.0/arm/arm-none-eabi/include/c++/10.3.1/bits/stl_vector.h **** 	this->_M_impl._M_start = this->_M_allocate(__n);
 362:/Library/DaisyToolchain/0.2.0/arm/arm-none-eabi/include/c++/10.3.1/bits/stl_vector.h **** 	this->_M_impl._M_finish = this->_M_impl._M_start;
 363:/Library/DaisyToolchain/0.2.0/arm/arm-none-eabi/include/c++/10.3.1/bits/stl_vector.h **** 	this->_M_impl._M_end_of_storage = this->_M_impl._M_start + __n;
 364:/Library/DaisyToolchain/0.2.0/arm/arm-none-eabi/include/c++/10.3.1/bits/stl_vector.h ****       }
 365:/Library/DaisyToolchain/0.2.0/arm/arm-none-eabi/include/c++/10.3.1/bits/stl_vector.h ****     };
 366:/Library/DaisyToolchain/0.2.0/arm/arm-none-eabi/include/c++/10.3.1/bits/stl_vector.h **** 
 367:/Library/DaisyToolchain/0.2.0/arm/arm-none-eabi/include/c++/10.3.1/bits/stl_vector.h ****   /**
 368:/Library/DaisyToolchain/0.2.0/arm/arm-none-eabi/include/c++/10.3.1/bits/stl_vector.h ****    *  @brief A standard container which offers fixed time access to
 369:/Library/DaisyToolchain/0.2.0/arm/arm-none-eabi/include/c++/10.3.1/bits/stl_vector.h ****    *  individual elements in any order.
 370:/Library/DaisyToolchain/0.2.0/arm/arm-none-eabi/include/c++/10.3.1/bits/stl_vector.h ****    *
 371:/Library/DaisyToolchain/0.2.0/arm/arm-none-eabi/include/c++/10.3.1/bits/stl_vector.h ****    *  @ingroup sequences
ARM GAS  /var/folders/41/s_9r3f9s4p3_9jgx7wszdkhh0000gn/T//ccQQceQd.s 			page 31


 372:/Library/DaisyToolchain/0.2.0/arm/arm-none-eabi/include/c++/10.3.1/bits/stl_vector.h ****    *
 373:/Library/DaisyToolchain/0.2.0/arm/arm-none-eabi/include/c++/10.3.1/bits/stl_vector.h ****    *  @tparam _Tp  Type of element.
 374:/Library/DaisyToolchain/0.2.0/arm/arm-none-eabi/include/c++/10.3.1/bits/stl_vector.h ****    *  @tparam _Alloc  Allocator type, defaults to allocator<_Tp>.
 375:/Library/DaisyToolchain/0.2.0/arm/arm-none-eabi/include/c++/10.3.1/bits/stl_vector.h ****    *
 376:/Library/DaisyToolchain/0.2.0/arm/arm-none-eabi/include/c++/10.3.1/bits/stl_vector.h ****    *  Meets the requirements of a <a href="tables.html#65">container</a>, a
 377:/Library/DaisyToolchain/0.2.0/arm/arm-none-eabi/include/c++/10.3.1/bits/stl_vector.h ****    *  <a href="tables.html#66">reversible container</a>, and a
 378:/Library/DaisyToolchain/0.2.0/arm/arm-none-eabi/include/c++/10.3.1/bits/stl_vector.h ****    *  <a href="tables.html#67">sequence</a>, including the
 379:/Library/DaisyToolchain/0.2.0/arm/arm-none-eabi/include/c++/10.3.1/bits/stl_vector.h ****    *  <a href="tables.html#68">optional sequence requirements</a> with the
 380:/Library/DaisyToolchain/0.2.0/arm/arm-none-eabi/include/c++/10.3.1/bits/stl_vector.h ****    *  %exception of @c push_front and @c pop_front.
 381:/Library/DaisyToolchain/0.2.0/arm/arm-none-eabi/include/c++/10.3.1/bits/stl_vector.h ****    *
 382:/Library/DaisyToolchain/0.2.0/arm/arm-none-eabi/include/c++/10.3.1/bits/stl_vector.h ****    *  In some terminology a %vector can be described as a dynamic
 383:/Library/DaisyToolchain/0.2.0/arm/arm-none-eabi/include/c++/10.3.1/bits/stl_vector.h ****    *  C-style array, it offers fast and efficient access to individual
 384:/Library/DaisyToolchain/0.2.0/arm/arm-none-eabi/include/c++/10.3.1/bits/stl_vector.h ****    *  elements in any order and saves the user from worrying about
 385:/Library/DaisyToolchain/0.2.0/arm/arm-none-eabi/include/c++/10.3.1/bits/stl_vector.h ****    *  memory and size allocation.  Subscripting ( @c [] ) access is
 386:/Library/DaisyToolchain/0.2.0/arm/arm-none-eabi/include/c++/10.3.1/bits/stl_vector.h ****    *  also provided as with C-style arrays.
 387:/Library/DaisyToolchain/0.2.0/arm/arm-none-eabi/include/c++/10.3.1/bits/stl_vector.h ****   */
 388:/Library/DaisyToolchain/0.2.0/arm/arm-none-eabi/include/c++/10.3.1/bits/stl_vector.h ****   template<typename _Tp, typename _Alloc = std::allocator<_Tp> >
 389:/Library/DaisyToolchain/0.2.0/arm/arm-none-eabi/include/c++/10.3.1/bits/stl_vector.h ****     class vector : protected _Vector_base<_Tp, _Alloc>
 390:/Library/DaisyToolchain/0.2.0/arm/arm-none-eabi/include/c++/10.3.1/bits/stl_vector.h ****     {
 391:/Library/DaisyToolchain/0.2.0/arm/arm-none-eabi/include/c++/10.3.1/bits/stl_vector.h **** #ifdef _GLIBCXX_CONCEPT_CHECKS
 392:/Library/DaisyToolchain/0.2.0/arm/arm-none-eabi/include/c++/10.3.1/bits/stl_vector.h ****       // Concept requirements.
 393:/Library/DaisyToolchain/0.2.0/arm/arm-none-eabi/include/c++/10.3.1/bits/stl_vector.h ****       typedef typename _Alloc::value_type		_Alloc_value_type;
 394:/Library/DaisyToolchain/0.2.0/arm/arm-none-eabi/include/c++/10.3.1/bits/stl_vector.h **** # if __cplusplus < 201103L
 395:/Library/DaisyToolchain/0.2.0/arm/arm-none-eabi/include/c++/10.3.1/bits/stl_vector.h ****       __glibcxx_class_requires(_Tp, _SGIAssignableConcept)
 396:/Library/DaisyToolchain/0.2.0/arm/arm-none-eabi/include/c++/10.3.1/bits/stl_vector.h **** # endif
 397:/Library/DaisyToolchain/0.2.0/arm/arm-none-eabi/include/c++/10.3.1/bits/stl_vector.h ****       __glibcxx_class_requires2(_Tp, _Alloc_value_type, _SameTypeConcept)
 398:/Library/DaisyToolchain/0.2.0/arm/arm-none-eabi/include/c++/10.3.1/bits/stl_vector.h **** #endif
 399:/Library/DaisyToolchain/0.2.0/arm/arm-none-eabi/include/c++/10.3.1/bits/stl_vector.h **** 
 400:/Library/DaisyToolchain/0.2.0/arm/arm-none-eabi/include/c++/10.3.1/bits/stl_vector.h **** #if __cplusplus >= 201103L
 401:/Library/DaisyToolchain/0.2.0/arm/arm-none-eabi/include/c++/10.3.1/bits/stl_vector.h ****       static_assert(is_same<typename remove_cv<_Tp>::type, _Tp>::value,
 402:/Library/DaisyToolchain/0.2.0/arm/arm-none-eabi/include/c++/10.3.1/bits/stl_vector.h **** 	  "std::vector must have a non-const, non-volatile value_type");
 403:/Library/DaisyToolchain/0.2.0/arm/arm-none-eabi/include/c++/10.3.1/bits/stl_vector.h **** # if __cplusplus > 201703L || defined __STRICT_ANSI__
 404:/Library/DaisyToolchain/0.2.0/arm/arm-none-eabi/include/c++/10.3.1/bits/stl_vector.h ****       static_assert(is_same<typename _Alloc::value_type, _Tp>::value,
 405:/Library/DaisyToolchain/0.2.0/arm/arm-none-eabi/include/c++/10.3.1/bits/stl_vector.h **** 	  "std::vector must have the same value_type as its allocator");
 406:/Library/DaisyToolchain/0.2.0/arm/arm-none-eabi/include/c++/10.3.1/bits/stl_vector.h **** # endif
 407:/Library/DaisyToolchain/0.2.0/arm/arm-none-eabi/include/c++/10.3.1/bits/stl_vector.h **** #endif
 408:/Library/DaisyToolchain/0.2.0/arm/arm-none-eabi/include/c++/10.3.1/bits/stl_vector.h **** 
 409:/Library/DaisyToolchain/0.2.0/arm/arm-none-eabi/include/c++/10.3.1/bits/stl_vector.h ****       typedef _Vector_base<_Tp, _Alloc>			_Base;
 410:/Library/DaisyToolchain/0.2.0/arm/arm-none-eabi/include/c++/10.3.1/bits/stl_vector.h ****       typedef typename _Base::_Tp_alloc_type		_Tp_alloc_type;
 411:/Library/DaisyToolchain/0.2.0/arm/arm-none-eabi/include/c++/10.3.1/bits/stl_vector.h ****       typedef __gnu_cxx::__alloc_traits<_Tp_alloc_type>	_Alloc_traits;
 412:/Library/DaisyToolchain/0.2.0/arm/arm-none-eabi/include/c++/10.3.1/bits/stl_vector.h **** 
 413:/Library/DaisyToolchain/0.2.0/arm/arm-none-eabi/include/c++/10.3.1/bits/stl_vector.h ****     public:
 414:/Library/DaisyToolchain/0.2.0/arm/arm-none-eabi/include/c++/10.3.1/bits/stl_vector.h ****       typedef _Tp					value_type;
 415:/Library/DaisyToolchain/0.2.0/arm/arm-none-eabi/include/c++/10.3.1/bits/stl_vector.h ****       typedef typename _Base::pointer			pointer;
 416:/Library/DaisyToolchain/0.2.0/arm/arm-none-eabi/include/c++/10.3.1/bits/stl_vector.h ****       typedef typename _Alloc_traits::const_pointer	const_pointer;
 417:/Library/DaisyToolchain/0.2.0/arm/arm-none-eabi/include/c++/10.3.1/bits/stl_vector.h ****       typedef typename _Alloc_traits::reference		reference;
 418:/Library/DaisyToolchain/0.2.0/arm/arm-none-eabi/include/c++/10.3.1/bits/stl_vector.h ****       typedef typename _Alloc_traits::const_reference	const_reference;
 419:/Library/DaisyToolchain/0.2.0/arm/arm-none-eabi/include/c++/10.3.1/bits/stl_vector.h ****       typedef __gnu_cxx::__normal_iterator<pointer, vector> iterator;
 420:/Library/DaisyToolchain/0.2.0/arm/arm-none-eabi/include/c++/10.3.1/bits/stl_vector.h ****       typedef __gnu_cxx::__normal_iterator<const_pointer, vector>
 421:/Library/DaisyToolchain/0.2.0/arm/arm-none-eabi/include/c++/10.3.1/bits/stl_vector.h ****       const_iterator;
 422:/Library/DaisyToolchain/0.2.0/arm/arm-none-eabi/include/c++/10.3.1/bits/stl_vector.h ****       typedef std::reverse_iterator<const_iterator>	const_reverse_iterator;
 423:/Library/DaisyToolchain/0.2.0/arm/arm-none-eabi/include/c++/10.3.1/bits/stl_vector.h ****       typedef std::reverse_iterator<iterator>		reverse_iterator;
 424:/Library/DaisyToolchain/0.2.0/arm/arm-none-eabi/include/c++/10.3.1/bits/stl_vector.h ****       typedef size_t					size_type;
 425:/Library/DaisyToolchain/0.2.0/arm/arm-none-eabi/include/c++/10.3.1/bits/stl_vector.h ****       typedef ptrdiff_t					difference_type;
 426:/Library/DaisyToolchain/0.2.0/arm/arm-none-eabi/include/c++/10.3.1/bits/stl_vector.h ****       typedef _Alloc					allocator_type;
 427:/Library/DaisyToolchain/0.2.0/arm/arm-none-eabi/include/c++/10.3.1/bits/stl_vector.h **** 
 428:/Library/DaisyToolchain/0.2.0/arm/arm-none-eabi/include/c++/10.3.1/bits/stl_vector.h ****     private:
ARM GAS  /var/folders/41/s_9r3f9s4p3_9jgx7wszdkhh0000gn/T//ccQQceQd.s 			page 32


 429:/Library/DaisyToolchain/0.2.0/arm/arm-none-eabi/include/c++/10.3.1/bits/stl_vector.h **** #if __cplusplus >= 201103L
 430:/Library/DaisyToolchain/0.2.0/arm/arm-none-eabi/include/c++/10.3.1/bits/stl_vector.h ****       static constexpr bool
 431:/Library/DaisyToolchain/0.2.0/arm/arm-none-eabi/include/c++/10.3.1/bits/stl_vector.h ****       _S_nothrow_relocate(true_type)
 432:/Library/DaisyToolchain/0.2.0/arm/arm-none-eabi/include/c++/10.3.1/bits/stl_vector.h ****       {
 433:/Library/DaisyToolchain/0.2.0/arm/arm-none-eabi/include/c++/10.3.1/bits/stl_vector.h **** 	return noexcept(std::__relocate_a(std::declval<pointer>(),
 434:/Library/DaisyToolchain/0.2.0/arm/arm-none-eabi/include/c++/10.3.1/bits/stl_vector.h **** 					  std::declval<pointer>(),
 435:/Library/DaisyToolchain/0.2.0/arm/arm-none-eabi/include/c++/10.3.1/bits/stl_vector.h **** 					  std::declval<pointer>(),
 436:/Library/DaisyToolchain/0.2.0/arm/arm-none-eabi/include/c++/10.3.1/bits/stl_vector.h **** 					  std::declval<_Tp_alloc_type&>()));
 437:/Library/DaisyToolchain/0.2.0/arm/arm-none-eabi/include/c++/10.3.1/bits/stl_vector.h ****       }
 438:/Library/DaisyToolchain/0.2.0/arm/arm-none-eabi/include/c++/10.3.1/bits/stl_vector.h **** 
 439:/Library/DaisyToolchain/0.2.0/arm/arm-none-eabi/include/c++/10.3.1/bits/stl_vector.h ****       static constexpr bool
 440:/Library/DaisyToolchain/0.2.0/arm/arm-none-eabi/include/c++/10.3.1/bits/stl_vector.h ****       _S_nothrow_relocate(false_type)
 441:/Library/DaisyToolchain/0.2.0/arm/arm-none-eabi/include/c++/10.3.1/bits/stl_vector.h ****       { return false; }
 442:/Library/DaisyToolchain/0.2.0/arm/arm-none-eabi/include/c++/10.3.1/bits/stl_vector.h **** 
 443:/Library/DaisyToolchain/0.2.0/arm/arm-none-eabi/include/c++/10.3.1/bits/stl_vector.h ****       static constexpr bool
 444:/Library/DaisyToolchain/0.2.0/arm/arm-none-eabi/include/c++/10.3.1/bits/stl_vector.h ****       _S_use_relocate()
 445:/Library/DaisyToolchain/0.2.0/arm/arm-none-eabi/include/c++/10.3.1/bits/stl_vector.h ****       {
 446:/Library/DaisyToolchain/0.2.0/arm/arm-none-eabi/include/c++/10.3.1/bits/stl_vector.h **** 	// Instantiating std::__relocate_a might cause an error outside the
 447:/Library/DaisyToolchain/0.2.0/arm/arm-none-eabi/include/c++/10.3.1/bits/stl_vector.h **** 	// immediate context (in __relocate_object_a's noexcept-specifier),
 448:/Library/DaisyToolchain/0.2.0/arm/arm-none-eabi/include/c++/10.3.1/bits/stl_vector.h **** 	// so only do it if we know the type can be move-inserted into *this.
 449:/Library/DaisyToolchain/0.2.0/arm/arm-none-eabi/include/c++/10.3.1/bits/stl_vector.h **** 	return _S_nothrow_relocate(__is_move_insertable<_Tp_alloc_type>{});
 450:/Library/DaisyToolchain/0.2.0/arm/arm-none-eabi/include/c++/10.3.1/bits/stl_vector.h ****       }
 451:/Library/DaisyToolchain/0.2.0/arm/arm-none-eabi/include/c++/10.3.1/bits/stl_vector.h **** 
 452:/Library/DaisyToolchain/0.2.0/arm/arm-none-eabi/include/c++/10.3.1/bits/stl_vector.h ****       static pointer
 453:/Library/DaisyToolchain/0.2.0/arm/arm-none-eabi/include/c++/10.3.1/bits/stl_vector.h ****       _S_do_relocate(pointer __first, pointer __last, pointer __result,
 454:/Library/DaisyToolchain/0.2.0/arm/arm-none-eabi/include/c++/10.3.1/bits/stl_vector.h **** 		     _Tp_alloc_type& __alloc, true_type) noexcept
 455:/Library/DaisyToolchain/0.2.0/arm/arm-none-eabi/include/c++/10.3.1/bits/stl_vector.h ****       {
 456:/Library/DaisyToolchain/0.2.0/arm/arm-none-eabi/include/c++/10.3.1/bits/stl_vector.h **** 	return std::__relocate_a(__first, __last, __result, __alloc);
 457:/Library/DaisyToolchain/0.2.0/arm/arm-none-eabi/include/c++/10.3.1/bits/stl_vector.h ****       }
 458:/Library/DaisyToolchain/0.2.0/arm/arm-none-eabi/include/c++/10.3.1/bits/stl_vector.h **** 
 459:/Library/DaisyToolchain/0.2.0/arm/arm-none-eabi/include/c++/10.3.1/bits/stl_vector.h ****       static pointer
 460:/Library/DaisyToolchain/0.2.0/arm/arm-none-eabi/include/c++/10.3.1/bits/stl_vector.h ****       _S_do_relocate(pointer, pointer, pointer __result,
 461:/Library/DaisyToolchain/0.2.0/arm/arm-none-eabi/include/c++/10.3.1/bits/stl_vector.h **** 		     _Tp_alloc_type&, false_type) noexcept
 462:/Library/DaisyToolchain/0.2.0/arm/arm-none-eabi/include/c++/10.3.1/bits/stl_vector.h ****       { return __result; }
 463:/Library/DaisyToolchain/0.2.0/arm/arm-none-eabi/include/c++/10.3.1/bits/stl_vector.h **** 
 464:/Library/DaisyToolchain/0.2.0/arm/arm-none-eabi/include/c++/10.3.1/bits/stl_vector.h ****       static pointer
 465:/Library/DaisyToolchain/0.2.0/arm/arm-none-eabi/include/c++/10.3.1/bits/stl_vector.h ****       _S_relocate(pointer __first, pointer __last, pointer __result,
 466:/Library/DaisyToolchain/0.2.0/arm/arm-none-eabi/include/c++/10.3.1/bits/stl_vector.h **** 		  _Tp_alloc_type& __alloc) noexcept
 467:/Library/DaisyToolchain/0.2.0/arm/arm-none-eabi/include/c++/10.3.1/bits/stl_vector.h ****       {
 468:/Library/DaisyToolchain/0.2.0/arm/arm-none-eabi/include/c++/10.3.1/bits/stl_vector.h **** 	using __do_it = __bool_constant<_S_use_relocate()>;
 469:/Library/DaisyToolchain/0.2.0/arm/arm-none-eabi/include/c++/10.3.1/bits/stl_vector.h **** 	return _S_do_relocate(__first, __last, __result, __alloc, __do_it{});
 470:/Library/DaisyToolchain/0.2.0/arm/arm-none-eabi/include/c++/10.3.1/bits/stl_vector.h ****       }
 471:/Library/DaisyToolchain/0.2.0/arm/arm-none-eabi/include/c++/10.3.1/bits/stl_vector.h **** #endif // C++11
 472:/Library/DaisyToolchain/0.2.0/arm/arm-none-eabi/include/c++/10.3.1/bits/stl_vector.h **** 
 473:/Library/DaisyToolchain/0.2.0/arm/arm-none-eabi/include/c++/10.3.1/bits/stl_vector.h ****     protected:
 474:/Library/DaisyToolchain/0.2.0/arm/arm-none-eabi/include/c++/10.3.1/bits/stl_vector.h ****       using _Base::_M_allocate;
 475:/Library/DaisyToolchain/0.2.0/arm/arm-none-eabi/include/c++/10.3.1/bits/stl_vector.h ****       using _Base::_M_deallocate;
 476:/Library/DaisyToolchain/0.2.0/arm/arm-none-eabi/include/c++/10.3.1/bits/stl_vector.h ****       using _Base::_M_impl;
 477:/Library/DaisyToolchain/0.2.0/arm/arm-none-eabi/include/c++/10.3.1/bits/stl_vector.h ****       using _Base::_M_get_Tp_allocator;
 478:/Library/DaisyToolchain/0.2.0/arm/arm-none-eabi/include/c++/10.3.1/bits/stl_vector.h **** 
 479:/Library/DaisyToolchain/0.2.0/arm/arm-none-eabi/include/c++/10.3.1/bits/stl_vector.h ****     public:
 480:/Library/DaisyToolchain/0.2.0/arm/arm-none-eabi/include/c++/10.3.1/bits/stl_vector.h ****       // [23.2.4.1] construct/copy/destroy
 481:/Library/DaisyToolchain/0.2.0/arm/arm-none-eabi/include/c++/10.3.1/bits/stl_vector.h ****       // (assign() and get_allocator() are also listed in this section)
 482:/Library/DaisyToolchain/0.2.0/arm/arm-none-eabi/include/c++/10.3.1/bits/stl_vector.h **** 
 483:/Library/DaisyToolchain/0.2.0/arm/arm-none-eabi/include/c++/10.3.1/bits/stl_vector.h ****       /**
 484:/Library/DaisyToolchain/0.2.0/arm/arm-none-eabi/include/c++/10.3.1/bits/stl_vector.h ****        *  @brief  Creates a %vector with no elements.
 485:/Library/DaisyToolchain/0.2.0/arm/arm-none-eabi/include/c++/10.3.1/bits/stl_vector.h ****        */
ARM GAS  /var/folders/41/s_9r3f9s4p3_9jgx7wszdkhh0000gn/T//ccQQceQd.s 			page 33


 486:/Library/DaisyToolchain/0.2.0/arm/arm-none-eabi/include/c++/10.3.1/bits/stl_vector.h **** #if __cplusplus >= 201103L
 487:/Library/DaisyToolchain/0.2.0/arm/arm-none-eabi/include/c++/10.3.1/bits/stl_vector.h ****       vector() = default;
 488:/Library/DaisyToolchain/0.2.0/arm/arm-none-eabi/include/c++/10.3.1/bits/stl_vector.h **** #else
 489:/Library/DaisyToolchain/0.2.0/arm/arm-none-eabi/include/c++/10.3.1/bits/stl_vector.h ****       vector() { }
 490:/Library/DaisyToolchain/0.2.0/arm/arm-none-eabi/include/c++/10.3.1/bits/stl_vector.h **** #endif
 491:/Library/DaisyToolchain/0.2.0/arm/arm-none-eabi/include/c++/10.3.1/bits/stl_vector.h **** 
 492:/Library/DaisyToolchain/0.2.0/arm/arm-none-eabi/include/c++/10.3.1/bits/stl_vector.h ****       /**
 493:/Library/DaisyToolchain/0.2.0/arm/arm-none-eabi/include/c++/10.3.1/bits/stl_vector.h ****        *  @brief  Creates a %vector with no elements.
 494:/Library/DaisyToolchain/0.2.0/arm/arm-none-eabi/include/c++/10.3.1/bits/stl_vector.h ****        *  @param  __a  An allocator object.
 495:/Library/DaisyToolchain/0.2.0/arm/arm-none-eabi/include/c++/10.3.1/bits/stl_vector.h ****        */
 496:/Library/DaisyToolchain/0.2.0/arm/arm-none-eabi/include/c++/10.3.1/bits/stl_vector.h ****       explicit
 497:/Library/DaisyToolchain/0.2.0/arm/arm-none-eabi/include/c++/10.3.1/bits/stl_vector.h ****       vector(const allocator_type& __a) _GLIBCXX_NOEXCEPT
 498:/Library/DaisyToolchain/0.2.0/arm/arm-none-eabi/include/c++/10.3.1/bits/stl_vector.h ****       : _Base(__a) { }
 499:/Library/DaisyToolchain/0.2.0/arm/arm-none-eabi/include/c++/10.3.1/bits/stl_vector.h **** 
 500:/Library/DaisyToolchain/0.2.0/arm/arm-none-eabi/include/c++/10.3.1/bits/stl_vector.h **** #if __cplusplus >= 201103L
 501:/Library/DaisyToolchain/0.2.0/arm/arm-none-eabi/include/c++/10.3.1/bits/stl_vector.h ****       /**
 502:/Library/DaisyToolchain/0.2.0/arm/arm-none-eabi/include/c++/10.3.1/bits/stl_vector.h ****        *  @brief  Creates a %vector with default constructed elements.
 503:/Library/DaisyToolchain/0.2.0/arm/arm-none-eabi/include/c++/10.3.1/bits/stl_vector.h ****        *  @param  __n  The number of elements to initially create.
 504:/Library/DaisyToolchain/0.2.0/arm/arm-none-eabi/include/c++/10.3.1/bits/stl_vector.h ****        *  @param  __a  An allocator.
 505:/Library/DaisyToolchain/0.2.0/arm/arm-none-eabi/include/c++/10.3.1/bits/stl_vector.h ****        *
 506:/Library/DaisyToolchain/0.2.0/arm/arm-none-eabi/include/c++/10.3.1/bits/stl_vector.h ****        *  This constructor fills the %vector with @a __n default
 507:/Library/DaisyToolchain/0.2.0/arm/arm-none-eabi/include/c++/10.3.1/bits/stl_vector.h ****        *  constructed elements.
 508:/Library/DaisyToolchain/0.2.0/arm/arm-none-eabi/include/c++/10.3.1/bits/stl_vector.h ****        */
 509:/Library/DaisyToolchain/0.2.0/arm/arm-none-eabi/include/c++/10.3.1/bits/stl_vector.h ****       explicit
 510:/Library/DaisyToolchain/0.2.0/arm/arm-none-eabi/include/c++/10.3.1/bits/stl_vector.h ****       vector(size_type __n, const allocator_type& __a = allocator_type())
 511:/Library/DaisyToolchain/0.2.0/arm/arm-none-eabi/include/c++/10.3.1/bits/stl_vector.h ****       : _Base(_S_check_init_len(__n, __a), __a)
 512:/Library/DaisyToolchain/0.2.0/arm/arm-none-eabi/include/c++/10.3.1/bits/stl_vector.h ****       { _M_default_initialize(__n); }
 513:/Library/DaisyToolchain/0.2.0/arm/arm-none-eabi/include/c++/10.3.1/bits/stl_vector.h **** 
 514:/Library/DaisyToolchain/0.2.0/arm/arm-none-eabi/include/c++/10.3.1/bits/stl_vector.h ****       /**
 515:/Library/DaisyToolchain/0.2.0/arm/arm-none-eabi/include/c++/10.3.1/bits/stl_vector.h ****        *  @brief  Creates a %vector with copies of an exemplar element.
 516:/Library/DaisyToolchain/0.2.0/arm/arm-none-eabi/include/c++/10.3.1/bits/stl_vector.h ****        *  @param  __n  The number of elements to initially create.
 517:/Library/DaisyToolchain/0.2.0/arm/arm-none-eabi/include/c++/10.3.1/bits/stl_vector.h ****        *  @param  __value  An element to copy.
 518:/Library/DaisyToolchain/0.2.0/arm/arm-none-eabi/include/c++/10.3.1/bits/stl_vector.h ****        *  @param  __a  An allocator.
 519:/Library/DaisyToolchain/0.2.0/arm/arm-none-eabi/include/c++/10.3.1/bits/stl_vector.h ****        *
 520:/Library/DaisyToolchain/0.2.0/arm/arm-none-eabi/include/c++/10.3.1/bits/stl_vector.h ****        *  This constructor fills the %vector with @a __n copies of @a __value.
 521:/Library/DaisyToolchain/0.2.0/arm/arm-none-eabi/include/c++/10.3.1/bits/stl_vector.h ****        */
 522:/Library/DaisyToolchain/0.2.0/arm/arm-none-eabi/include/c++/10.3.1/bits/stl_vector.h ****       vector(size_type __n, const value_type& __value,
 523:/Library/DaisyToolchain/0.2.0/arm/arm-none-eabi/include/c++/10.3.1/bits/stl_vector.h **** 	     const allocator_type& __a = allocator_type())
 524:/Library/DaisyToolchain/0.2.0/arm/arm-none-eabi/include/c++/10.3.1/bits/stl_vector.h ****       : _Base(_S_check_init_len(__n, __a), __a)
 525:/Library/DaisyToolchain/0.2.0/arm/arm-none-eabi/include/c++/10.3.1/bits/stl_vector.h ****       { _M_fill_initialize(__n, __value); }
 526:/Library/DaisyToolchain/0.2.0/arm/arm-none-eabi/include/c++/10.3.1/bits/stl_vector.h **** #else
 527:/Library/DaisyToolchain/0.2.0/arm/arm-none-eabi/include/c++/10.3.1/bits/stl_vector.h ****       /**
 528:/Library/DaisyToolchain/0.2.0/arm/arm-none-eabi/include/c++/10.3.1/bits/stl_vector.h ****        *  @brief  Creates a %vector with copies of an exemplar element.
 529:/Library/DaisyToolchain/0.2.0/arm/arm-none-eabi/include/c++/10.3.1/bits/stl_vector.h ****        *  @param  __n  The number of elements to initially create.
 530:/Library/DaisyToolchain/0.2.0/arm/arm-none-eabi/include/c++/10.3.1/bits/stl_vector.h ****        *  @param  __value  An element to copy.
 531:/Library/DaisyToolchain/0.2.0/arm/arm-none-eabi/include/c++/10.3.1/bits/stl_vector.h ****        *  @param  __a  An allocator.
 532:/Library/DaisyToolchain/0.2.0/arm/arm-none-eabi/include/c++/10.3.1/bits/stl_vector.h ****        *
 533:/Library/DaisyToolchain/0.2.0/arm/arm-none-eabi/include/c++/10.3.1/bits/stl_vector.h ****        *  This constructor fills the %vector with @a __n copies of @a __value.
 534:/Library/DaisyToolchain/0.2.0/arm/arm-none-eabi/include/c++/10.3.1/bits/stl_vector.h ****        */
 535:/Library/DaisyToolchain/0.2.0/arm/arm-none-eabi/include/c++/10.3.1/bits/stl_vector.h ****       explicit
 536:/Library/DaisyToolchain/0.2.0/arm/arm-none-eabi/include/c++/10.3.1/bits/stl_vector.h ****       vector(size_type __n, const value_type& __value = value_type(),
 537:/Library/DaisyToolchain/0.2.0/arm/arm-none-eabi/include/c++/10.3.1/bits/stl_vector.h **** 	     const allocator_type& __a = allocator_type())
 538:/Library/DaisyToolchain/0.2.0/arm/arm-none-eabi/include/c++/10.3.1/bits/stl_vector.h ****       : _Base(_S_check_init_len(__n, __a), __a)
 539:/Library/DaisyToolchain/0.2.0/arm/arm-none-eabi/include/c++/10.3.1/bits/stl_vector.h ****       { _M_fill_initialize(__n, __value); }
 540:/Library/DaisyToolchain/0.2.0/arm/arm-none-eabi/include/c++/10.3.1/bits/stl_vector.h **** #endif
 541:/Library/DaisyToolchain/0.2.0/arm/arm-none-eabi/include/c++/10.3.1/bits/stl_vector.h **** 
 542:/Library/DaisyToolchain/0.2.0/arm/arm-none-eabi/include/c++/10.3.1/bits/stl_vector.h ****       /**
ARM GAS  /var/folders/41/s_9r3f9s4p3_9jgx7wszdkhh0000gn/T//ccQQceQd.s 			page 34


 543:/Library/DaisyToolchain/0.2.0/arm/arm-none-eabi/include/c++/10.3.1/bits/stl_vector.h ****        *  @brief  %Vector copy constructor.
 544:/Library/DaisyToolchain/0.2.0/arm/arm-none-eabi/include/c++/10.3.1/bits/stl_vector.h ****        *  @param  __x  A %vector of identical element and allocator types.
 545:/Library/DaisyToolchain/0.2.0/arm/arm-none-eabi/include/c++/10.3.1/bits/stl_vector.h ****        *
 546:/Library/DaisyToolchain/0.2.0/arm/arm-none-eabi/include/c++/10.3.1/bits/stl_vector.h ****        *  All the elements of @a __x are copied, but any unused capacity in
 547:/Library/DaisyToolchain/0.2.0/arm/arm-none-eabi/include/c++/10.3.1/bits/stl_vector.h ****        *  @a __x  will not be copied
 548:/Library/DaisyToolchain/0.2.0/arm/arm-none-eabi/include/c++/10.3.1/bits/stl_vector.h ****        *  (i.e. capacity() == size() in the new %vector).
 549:/Library/DaisyToolchain/0.2.0/arm/arm-none-eabi/include/c++/10.3.1/bits/stl_vector.h ****        *
 550:/Library/DaisyToolchain/0.2.0/arm/arm-none-eabi/include/c++/10.3.1/bits/stl_vector.h ****        *  The newly-created %vector uses a copy of the allocator object used
 551:/Library/DaisyToolchain/0.2.0/arm/arm-none-eabi/include/c++/10.3.1/bits/stl_vector.h ****        *  by @a __x (unless the allocator traits dictate a different object).
 552:/Library/DaisyToolchain/0.2.0/arm/arm-none-eabi/include/c++/10.3.1/bits/stl_vector.h ****        */
 553:/Library/DaisyToolchain/0.2.0/arm/arm-none-eabi/include/c++/10.3.1/bits/stl_vector.h ****       vector(const vector& __x)
 554:/Library/DaisyToolchain/0.2.0/arm/arm-none-eabi/include/c++/10.3.1/bits/stl_vector.h ****       : _Base(__x.size(),
 555:/Library/DaisyToolchain/0.2.0/arm/arm-none-eabi/include/c++/10.3.1/bits/stl_vector.h **** 	_Alloc_traits::_S_select_on_copy(__x._M_get_Tp_allocator()))
 556:/Library/DaisyToolchain/0.2.0/arm/arm-none-eabi/include/c++/10.3.1/bits/stl_vector.h ****       {
 557:/Library/DaisyToolchain/0.2.0/arm/arm-none-eabi/include/c++/10.3.1/bits/stl_vector.h **** 	this->_M_impl._M_finish =
 558:/Library/DaisyToolchain/0.2.0/arm/arm-none-eabi/include/c++/10.3.1/bits/stl_vector.h **** 	  std::__uninitialized_copy_a(__x.begin(), __x.end(),
 559:/Library/DaisyToolchain/0.2.0/arm/arm-none-eabi/include/c++/10.3.1/bits/stl_vector.h **** 				      this->_M_impl._M_start,
 560:/Library/DaisyToolchain/0.2.0/arm/arm-none-eabi/include/c++/10.3.1/bits/stl_vector.h **** 				      _M_get_Tp_allocator());
 561:/Library/DaisyToolchain/0.2.0/arm/arm-none-eabi/include/c++/10.3.1/bits/stl_vector.h ****       }
 562:/Library/DaisyToolchain/0.2.0/arm/arm-none-eabi/include/c++/10.3.1/bits/stl_vector.h **** 
 563:/Library/DaisyToolchain/0.2.0/arm/arm-none-eabi/include/c++/10.3.1/bits/stl_vector.h **** #if __cplusplus >= 201103L
 564:/Library/DaisyToolchain/0.2.0/arm/arm-none-eabi/include/c++/10.3.1/bits/stl_vector.h ****       /**
 565:/Library/DaisyToolchain/0.2.0/arm/arm-none-eabi/include/c++/10.3.1/bits/stl_vector.h ****        *  @brief  %Vector move constructor.
 566:/Library/DaisyToolchain/0.2.0/arm/arm-none-eabi/include/c++/10.3.1/bits/stl_vector.h ****        *
 567:/Library/DaisyToolchain/0.2.0/arm/arm-none-eabi/include/c++/10.3.1/bits/stl_vector.h ****        *  The newly-created %vector contains the exact contents of the
 568:/Library/DaisyToolchain/0.2.0/arm/arm-none-eabi/include/c++/10.3.1/bits/stl_vector.h ****        *  moved instance.
 569:/Library/DaisyToolchain/0.2.0/arm/arm-none-eabi/include/c++/10.3.1/bits/stl_vector.h ****        *  The contents of the moved instance are a valid, but unspecified
 570:/Library/DaisyToolchain/0.2.0/arm/arm-none-eabi/include/c++/10.3.1/bits/stl_vector.h ****        *  %vector.
 571:/Library/DaisyToolchain/0.2.0/arm/arm-none-eabi/include/c++/10.3.1/bits/stl_vector.h ****        */
 572:/Library/DaisyToolchain/0.2.0/arm/arm-none-eabi/include/c++/10.3.1/bits/stl_vector.h ****       vector(vector&&) noexcept = default;
 573:/Library/DaisyToolchain/0.2.0/arm/arm-none-eabi/include/c++/10.3.1/bits/stl_vector.h **** 
 574:/Library/DaisyToolchain/0.2.0/arm/arm-none-eabi/include/c++/10.3.1/bits/stl_vector.h ****       /// Copy constructor with alternative allocator
 575:/Library/DaisyToolchain/0.2.0/arm/arm-none-eabi/include/c++/10.3.1/bits/stl_vector.h ****       vector(const vector& __x, const allocator_type& __a)
 576:/Library/DaisyToolchain/0.2.0/arm/arm-none-eabi/include/c++/10.3.1/bits/stl_vector.h ****       : _Base(__x.size(), __a)
 577:/Library/DaisyToolchain/0.2.0/arm/arm-none-eabi/include/c++/10.3.1/bits/stl_vector.h ****       {
 578:/Library/DaisyToolchain/0.2.0/arm/arm-none-eabi/include/c++/10.3.1/bits/stl_vector.h **** 	this->_M_impl._M_finish =
 579:/Library/DaisyToolchain/0.2.0/arm/arm-none-eabi/include/c++/10.3.1/bits/stl_vector.h **** 	  std::__uninitialized_copy_a(__x.begin(), __x.end(),
 580:/Library/DaisyToolchain/0.2.0/arm/arm-none-eabi/include/c++/10.3.1/bits/stl_vector.h **** 				      this->_M_impl._M_start,
 581:/Library/DaisyToolchain/0.2.0/arm/arm-none-eabi/include/c++/10.3.1/bits/stl_vector.h **** 				      _M_get_Tp_allocator());
 582:/Library/DaisyToolchain/0.2.0/arm/arm-none-eabi/include/c++/10.3.1/bits/stl_vector.h ****       }
 583:/Library/DaisyToolchain/0.2.0/arm/arm-none-eabi/include/c++/10.3.1/bits/stl_vector.h **** 
 584:/Library/DaisyToolchain/0.2.0/arm/arm-none-eabi/include/c++/10.3.1/bits/stl_vector.h ****     private:
 585:/Library/DaisyToolchain/0.2.0/arm/arm-none-eabi/include/c++/10.3.1/bits/stl_vector.h ****       vector(vector&& __rv, const allocator_type& __m, true_type) noexcept
 586:/Library/DaisyToolchain/0.2.0/arm/arm-none-eabi/include/c++/10.3.1/bits/stl_vector.h ****       : _Base(__m, std::move(__rv))
 587:/Library/DaisyToolchain/0.2.0/arm/arm-none-eabi/include/c++/10.3.1/bits/stl_vector.h ****       { }
 588:/Library/DaisyToolchain/0.2.0/arm/arm-none-eabi/include/c++/10.3.1/bits/stl_vector.h **** 
 589:/Library/DaisyToolchain/0.2.0/arm/arm-none-eabi/include/c++/10.3.1/bits/stl_vector.h ****       vector(vector&& __rv, const allocator_type& __m, false_type)
 590:/Library/DaisyToolchain/0.2.0/arm/arm-none-eabi/include/c++/10.3.1/bits/stl_vector.h ****       : _Base(__m)
 591:/Library/DaisyToolchain/0.2.0/arm/arm-none-eabi/include/c++/10.3.1/bits/stl_vector.h ****       {
 592:/Library/DaisyToolchain/0.2.0/arm/arm-none-eabi/include/c++/10.3.1/bits/stl_vector.h **** 	if (__rv.get_allocator() == __m)
 593:/Library/DaisyToolchain/0.2.0/arm/arm-none-eabi/include/c++/10.3.1/bits/stl_vector.h **** 	  this->_M_impl._M_swap_data(__rv._M_impl);
 594:/Library/DaisyToolchain/0.2.0/arm/arm-none-eabi/include/c++/10.3.1/bits/stl_vector.h **** 	else if (!__rv.empty())
 595:/Library/DaisyToolchain/0.2.0/arm/arm-none-eabi/include/c++/10.3.1/bits/stl_vector.h **** 	  {
 596:/Library/DaisyToolchain/0.2.0/arm/arm-none-eabi/include/c++/10.3.1/bits/stl_vector.h **** 	    this->_M_create_storage(__rv.size());
 597:/Library/DaisyToolchain/0.2.0/arm/arm-none-eabi/include/c++/10.3.1/bits/stl_vector.h **** 	    this->_M_impl._M_finish =
 598:/Library/DaisyToolchain/0.2.0/arm/arm-none-eabi/include/c++/10.3.1/bits/stl_vector.h **** 	      std::__uninitialized_move_a(__rv.begin(), __rv.end(),
 599:/Library/DaisyToolchain/0.2.0/arm/arm-none-eabi/include/c++/10.3.1/bits/stl_vector.h **** 					  this->_M_impl._M_start,
ARM GAS  /var/folders/41/s_9r3f9s4p3_9jgx7wszdkhh0000gn/T//ccQQceQd.s 			page 35


 600:/Library/DaisyToolchain/0.2.0/arm/arm-none-eabi/include/c++/10.3.1/bits/stl_vector.h **** 					  _M_get_Tp_allocator());
 601:/Library/DaisyToolchain/0.2.0/arm/arm-none-eabi/include/c++/10.3.1/bits/stl_vector.h **** 	    __rv.clear();
 602:/Library/DaisyToolchain/0.2.0/arm/arm-none-eabi/include/c++/10.3.1/bits/stl_vector.h **** 	  }
 603:/Library/DaisyToolchain/0.2.0/arm/arm-none-eabi/include/c++/10.3.1/bits/stl_vector.h ****       }
 604:/Library/DaisyToolchain/0.2.0/arm/arm-none-eabi/include/c++/10.3.1/bits/stl_vector.h **** 
 605:/Library/DaisyToolchain/0.2.0/arm/arm-none-eabi/include/c++/10.3.1/bits/stl_vector.h ****     public:
 606:/Library/DaisyToolchain/0.2.0/arm/arm-none-eabi/include/c++/10.3.1/bits/stl_vector.h ****       /// Move constructor with alternative allocator
 607:/Library/DaisyToolchain/0.2.0/arm/arm-none-eabi/include/c++/10.3.1/bits/stl_vector.h ****       vector(vector&& __rv, const allocator_type& __m)
 608:/Library/DaisyToolchain/0.2.0/arm/arm-none-eabi/include/c++/10.3.1/bits/stl_vector.h ****       noexcept( noexcept(
 609:/Library/DaisyToolchain/0.2.0/arm/arm-none-eabi/include/c++/10.3.1/bits/stl_vector.h **** 	vector(std::declval<vector&&>(), std::declval<const allocator_type&>(),
 610:/Library/DaisyToolchain/0.2.0/arm/arm-none-eabi/include/c++/10.3.1/bits/stl_vector.h **** 	       std::declval<typename _Alloc_traits::is_always_equal>())) )
 611:/Library/DaisyToolchain/0.2.0/arm/arm-none-eabi/include/c++/10.3.1/bits/stl_vector.h ****       : vector(std::move(__rv), __m, typename _Alloc_traits::is_always_equal{})
 612:/Library/DaisyToolchain/0.2.0/arm/arm-none-eabi/include/c++/10.3.1/bits/stl_vector.h ****       { }
 613:/Library/DaisyToolchain/0.2.0/arm/arm-none-eabi/include/c++/10.3.1/bits/stl_vector.h **** 
 614:/Library/DaisyToolchain/0.2.0/arm/arm-none-eabi/include/c++/10.3.1/bits/stl_vector.h ****       /**
 615:/Library/DaisyToolchain/0.2.0/arm/arm-none-eabi/include/c++/10.3.1/bits/stl_vector.h ****        *  @brief  Builds a %vector from an initializer list.
 616:/Library/DaisyToolchain/0.2.0/arm/arm-none-eabi/include/c++/10.3.1/bits/stl_vector.h ****        *  @param  __l  An initializer_list.
 617:/Library/DaisyToolchain/0.2.0/arm/arm-none-eabi/include/c++/10.3.1/bits/stl_vector.h ****        *  @param  __a  An allocator.
 618:/Library/DaisyToolchain/0.2.0/arm/arm-none-eabi/include/c++/10.3.1/bits/stl_vector.h ****        *
 619:/Library/DaisyToolchain/0.2.0/arm/arm-none-eabi/include/c++/10.3.1/bits/stl_vector.h ****        *  Create a %vector consisting of copies of the elements in the
 620:/Library/DaisyToolchain/0.2.0/arm/arm-none-eabi/include/c++/10.3.1/bits/stl_vector.h ****        *  initializer_list @a __l.
 621:/Library/DaisyToolchain/0.2.0/arm/arm-none-eabi/include/c++/10.3.1/bits/stl_vector.h ****        *
 622:/Library/DaisyToolchain/0.2.0/arm/arm-none-eabi/include/c++/10.3.1/bits/stl_vector.h ****        *  This will call the element type's copy constructor N times
 623:/Library/DaisyToolchain/0.2.0/arm/arm-none-eabi/include/c++/10.3.1/bits/stl_vector.h ****        *  (where N is @a __l.size()) and do no memory reallocation.
 624:/Library/DaisyToolchain/0.2.0/arm/arm-none-eabi/include/c++/10.3.1/bits/stl_vector.h ****        */
 625:/Library/DaisyToolchain/0.2.0/arm/arm-none-eabi/include/c++/10.3.1/bits/stl_vector.h ****       vector(initializer_list<value_type> __l,
 626:/Library/DaisyToolchain/0.2.0/arm/arm-none-eabi/include/c++/10.3.1/bits/stl_vector.h **** 	     const allocator_type& __a = allocator_type())
 627:/Library/DaisyToolchain/0.2.0/arm/arm-none-eabi/include/c++/10.3.1/bits/stl_vector.h ****       : _Base(__a)
 628:/Library/DaisyToolchain/0.2.0/arm/arm-none-eabi/include/c++/10.3.1/bits/stl_vector.h ****       {
 629:/Library/DaisyToolchain/0.2.0/arm/arm-none-eabi/include/c++/10.3.1/bits/stl_vector.h **** 	_M_range_initialize(__l.begin(), __l.end(),
 630:/Library/DaisyToolchain/0.2.0/arm/arm-none-eabi/include/c++/10.3.1/bits/stl_vector.h **** 			    random_access_iterator_tag());
 631:/Library/DaisyToolchain/0.2.0/arm/arm-none-eabi/include/c++/10.3.1/bits/stl_vector.h ****       }
 632:/Library/DaisyToolchain/0.2.0/arm/arm-none-eabi/include/c++/10.3.1/bits/stl_vector.h **** #endif
 633:/Library/DaisyToolchain/0.2.0/arm/arm-none-eabi/include/c++/10.3.1/bits/stl_vector.h **** 
 634:/Library/DaisyToolchain/0.2.0/arm/arm-none-eabi/include/c++/10.3.1/bits/stl_vector.h ****       /**
 635:/Library/DaisyToolchain/0.2.0/arm/arm-none-eabi/include/c++/10.3.1/bits/stl_vector.h ****        *  @brief  Builds a %vector from a range.
 636:/Library/DaisyToolchain/0.2.0/arm/arm-none-eabi/include/c++/10.3.1/bits/stl_vector.h ****        *  @param  __first  An input iterator.
 637:/Library/DaisyToolchain/0.2.0/arm/arm-none-eabi/include/c++/10.3.1/bits/stl_vector.h ****        *  @param  __last  An input iterator.
 638:/Library/DaisyToolchain/0.2.0/arm/arm-none-eabi/include/c++/10.3.1/bits/stl_vector.h ****        *  @param  __a  An allocator.
 639:/Library/DaisyToolchain/0.2.0/arm/arm-none-eabi/include/c++/10.3.1/bits/stl_vector.h ****        *
 640:/Library/DaisyToolchain/0.2.0/arm/arm-none-eabi/include/c++/10.3.1/bits/stl_vector.h ****        *  Create a %vector consisting of copies of the elements from
 641:/Library/DaisyToolchain/0.2.0/arm/arm-none-eabi/include/c++/10.3.1/bits/stl_vector.h ****        *  [first,last).
 642:/Library/DaisyToolchain/0.2.0/arm/arm-none-eabi/include/c++/10.3.1/bits/stl_vector.h ****        *
 643:/Library/DaisyToolchain/0.2.0/arm/arm-none-eabi/include/c++/10.3.1/bits/stl_vector.h ****        *  If the iterators are forward, bidirectional, or
 644:/Library/DaisyToolchain/0.2.0/arm/arm-none-eabi/include/c++/10.3.1/bits/stl_vector.h ****        *  random-access, then this will call the elements' copy
 645:/Library/DaisyToolchain/0.2.0/arm/arm-none-eabi/include/c++/10.3.1/bits/stl_vector.h ****        *  constructor N times (where N is distance(first,last)) and do
 646:/Library/DaisyToolchain/0.2.0/arm/arm-none-eabi/include/c++/10.3.1/bits/stl_vector.h ****        *  no memory reallocation.  But if only input iterators are
 647:/Library/DaisyToolchain/0.2.0/arm/arm-none-eabi/include/c++/10.3.1/bits/stl_vector.h ****        *  used, then this will do at most 2N calls to the copy
 648:/Library/DaisyToolchain/0.2.0/arm/arm-none-eabi/include/c++/10.3.1/bits/stl_vector.h ****        *  constructor, and logN memory reallocations.
 649:/Library/DaisyToolchain/0.2.0/arm/arm-none-eabi/include/c++/10.3.1/bits/stl_vector.h ****        */
 650:/Library/DaisyToolchain/0.2.0/arm/arm-none-eabi/include/c++/10.3.1/bits/stl_vector.h **** #if __cplusplus >= 201103L
 651:/Library/DaisyToolchain/0.2.0/arm/arm-none-eabi/include/c++/10.3.1/bits/stl_vector.h ****       template<typename _InputIterator,
 652:/Library/DaisyToolchain/0.2.0/arm/arm-none-eabi/include/c++/10.3.1/bits/stl_vector.h **** 	       typename = std::_RequireInputIter<_InputIterator>>
 653:/Library/DaisyToolchain/0.2.0/arm/arm-none-eabi/include/c++/10.3.1/bits/stl_vector.h **** 	vector(_InputIterator __first, _InputIterator __last,
 654:/Library/DaisyToolchain/0.2.0/arm/arm-none-eabi/include/c++/10.3.1/bits/stl_vector.h **** 	       const allocator_type& __a = allocator_type())
 655:/Library/DaisyToolchain/0.2.0/arm/arm-none-eabi/include/c++/10.3.1/bits/stl_vector.h **** 	: _Base(__a)
 656:/Library/DaisyToolchain/0.2.0/arm/arm-none-eabi/include/c++/10.3.1/bits/stl_vector.h **** 	{
ARM GAS  /var/folders/41/s_9r3f9s4p3_9jgx7wszdkhh0000gn/T//ccQQceQd.s 			page 36


 657:/Library/DaisyToolchain/0.2.0/arm/arm-none-eabi/include/c++/10.3.1/bits/stl_vector.h **** 	  _M_range_initialize(__first, __last,
 658:/Library/DaisyToolchain/0.2.0/arm/arm-none-eabi/include/c++/10.3.1/bits/stl_vector.h **** 			      std::__iterator_category(__first));
 659:/Library/DaisyToolchain/0.2.0/arm/arm-none-eabi/include/c++/10.3.1/bits/stl_vector.h **** 	}
 660:/Library/DaisyToolchain/0.2.0/arm/arm-none-eabi/include/c++/10.3.1/bits/stl_vector.h **** #else
 661:/Library/DaisyToolchain/0.2.0/arm/arm-none-eabi/include/c++/10.3.1/bits/stl_vector.h ****       template<typename _InputIterator>
 662:/Library/DaisyToolchain/0.2.0/arm/arm-none-eabi/include/c++/10.3.1/bits/stl_vector.h **** 	vector(_InputIterator __first, _InputIterator __last,
 663:/Library/DaisyToolchain/0.2.0/arm/arm-none-eabi/include/c++/10.3.1/bits/stl_vector.h **** 	       const allocator_type& __a = allocator_type())
 664:/Library/DaisyToolchain/0.2.0/arm/arm-none-eabi/include/c++/10.3.1/bits/stl_vector.h **** 	: _Base(__a)
 665:/Library/DaisyToolchain/0.2.0/arm/arm-none-eabi/include/c++/10.3.1/bits/stl_vector.h **** 	{
 666:/Library/DaisyToolchain/0.2.0/arm/arm-none-eabi/include/c++/10.3.1/bits/stl_vector.h **** 	  // Check whether it's an integral type.  If so, it's not an iterator.
 667:/Library/DaisyToolchain/0.2.0/arm/arm-none-eabi/include/c++/10.3.1/bits/stl_vector.h **** 	  typedef typename std::__is_integer<_InputIterator>::__type _Integral;
 668:/Library/DaisyToolchain/0.2.0/arm/arm-none-eabi/include/c++/10.3.1/bits/stl_vector.h **** 	  _M_initialize_dispatch(__first, __last, _Integral());
 669:/Library/DaisyToolchain/0.2.0/arm/arm-none-eabi/include/c++/10.3.1/bits/stl_vector.h **** 	}
 670:/Library/DaisyToolchain/0.2.0/arm/arm-none-eabi/include/c++/10.3.1/bits/stl_vector.h **** #endif
 671:/Library/DaisyToolchain/0.2.0/arm/arm-none-eabi/include/c++/10.3.1/bits/stl_vector.h **** 
 672:/Library/DaisyToolchain/0.2.0/arm/arm-none-eabi/include/c++/10.3.1/bits/stl_vector.h ****       /**
 673:/Library/DaisyToolchain/0.2.0/arm/arm-none-eabi/include/c++/10.3.1/bits/stl_vector.h ****        *  The dtor only erases the elements, and note that if the
 674:/Library/DaisyToolchain/0.2.0/arm/arm-none-eabi/include/c++/10.3.1/bits/stl_vector.h ****        *  elements themselves are pointers, the pointed-to memory is
 675:/Library/DaisyToolchain/0.2.0/arm/arm-none-eabi/include/c++/10.3.1/bits/stl_vector.h ****        *  not touched in any way.  Managing the pointer is the user's
 676:/Library/DaisyToolchain/0.2.0/arm/arm-none-eabi/include/c++/10.3.1/bits/stl_vector.h ****        *  responsibility.
 677:/Library/DaisyToolchain/0.2.0/arm/arm-none-eabi/include/c++/10.3.1/bits/stl_vector.h ****        */
 678:/Library/DaisyToolchain/0.2.0/arm/arm-none-eabi/include/c++/10.3.1/bits/stl_vector.h ****       ~vector() _GLIBCXX_NOEXCEPT
 299              		.loc 11 678 7 is_stmt 1 view -0
 300              		.cfi_startproc
 301              		@ args = 0, pretend = 0, frame = 0
 302              		@ frame_needed = 0, uses_anonymous_args = 0
 303              		.loc 11 678 7 is_stmt 0 view .LVU45
 304 0000 10B5     		push	{r4, lr}
 305              		.cfi_def_cfa_offset 8
 306              		.cfi_offset 4, -8
 307              		.cfi_offset 14, -4
 308              		.loc 11 678 7 view .LVU46
 309 0002 0446     		mov	r4, r0
 310              	.LVL16:
 311              	.LBB1903:
 312              	.LBI1903:
 276:/Library/DaisyToolchain/0.2.0/arm/arm-none-eabi/include/c++/10.3.1/bits/stl_vector.h ****       { return this->_M_impl; }
 313              		.loc 11 276 7 is_stmt 1 view .LVU47
 276:/Library/DaisyToolchain/0.2.0/arm/arm-none-eabi/include/c++/10.3.1/bits/stl_vector.h ****       { return this->_M_impl; }
 314              		.loc 11 276 7 is_stmt 0 view .LVU48
 315              	.LBE1903:
 316              	.LBB1904:
 317              	.LBI1904:
 318              		.file 12 "/Library/DaisyToolchain/0.2.0/arm/arm-none-eabi/include/c++/10.3.1/bits/alloc_traits.h"
   1:/Library/DaisyToolchain/0.2.0/arm/arm-none-eabi/include/c++/10.3.1/bits/alloc_traits.h **** // Allocator traits -*- C++ -*-
   2:/Library/DaisyToolchain/0.2.0/arm/arm-none-eabi/include/c++/10.3.1/bits/alloc_traits.h **** 
   3:/Library/DaisyToolchain/0.2.0/arm/arm-none-eabi/include/c++/10.3.1/bits/alloc_traits.h **** // Copyright (C) 2011-2020 Free Software Foundation, Inc.
   4:/Library/DaisyToolchain/0.2.0/arm/arm-none-eabi/include/c++/10.3.1/bits/alloc_traits.h **** //
   5:/Library/DaisyToolchain/0.2.0/arm/arm-none-eabi/include/c++/10.3.1/bits/alloc_traits.h **** // This file is part of the GNU ISO C++ Library.  This library is free
   6:/Library/DaisyToolchain/0.2.0/arm/arm-none-eabi/include/c++/10.3.1/bits/alloc_traits.h **** // software; you can redistribute it and/or modify it under the
   7:/Library/DaisyToolchain/0.2.0/arm/arm-none-eabi/include/c++/10.3.1/bits/alloc_traits.h **** // terms of the GNU General Public License as published by the
   8:/Library/DaisyToolchain/0.2.0/arm/arm-none-eabi/include/c++/10.3.1/bits/alloc_traits.h **** // Free Software Foundation; either version 3, or (at your option)
   9:/Library/DaisyToolchain/0.2.0/arm/arm-none-eabi/include/c++/10.3.1/bits/alloc_traits.h **** // any later version.
  10:/Library/DaisyToolchain/0.2.0/arm/arm-none-eabi/include/c++/10.3.1/bits/alloc_traits.h **** 
  11:/Library/DaisyToolchain/0.2.0/arm/arm-none-eabi/include/c++/10.3.1/bits/alloc_traits.h **** // This library is distributed in the hope that it will be useful,
  12:/Library/DaisyToolchain/0.2.0/arm/arm-none-eabi/include/c++/10.3.1/bits/alloc_traits.h **** // but WITHOUT ANY WARRANTY; without even the implied warranty of
  13:/Library/DaisyToolchain/0.2.0/arm/arm-none-eabi/include/c++/10.3.1/bits/alloc_traits.h **** // MERCHANTABILITY or FITNESS FOR A PARTICULAR PURPOSE.  See the
ARM GAS  /var/folders/41/s_9r3f9s4p3_9jgx7wszdkhh0000gn/T//ccQQceQd.s 			page 37


  14:/Library/DaisyToolchain/0.2.0/arm/arm-none-eabi/include/c++/10.3.1/bits/alloc_traits.h **** // GNU General Public License for more details.
  15:/Library/DaisyToolchain/0.2.0/arm/arm-none-eabi/include/c++/10.3.1/bits/alloc_traits.h **** 
  16:/Library/DaisyToolchain/0.2.0/arm/arm-none-eabi/include/c++/10.3.1/bits/alloc_traits.h **** // Under Section 7 of GPL version 3, you are granted additional
  17:/Library/DaisyToolchain/0.2.0/arm/arm-none-eabi/include/c++/10.3.1/bits/alloc_traits.h **** // permissions described in the GCC Runtime Library Exception, version
  18:/Library/DaisyToolchain/0.2.0/arm/arm-none-eabi/include/c++/10.3.1/bits/alloc_traits.h **** // 3.1, as published by the Free Software Foundation.
  19:/Library/DaisyToolchain/0.2.0/arm/arm-none-eabi/include/c++/10.3.1/bits/alloc_traits.h **** 
  20:/Library/DaisyToolchain/0.2.0/arm/arm-none-eabi/include/c++/10.3.1/bits/alloc_traits.h **** // You should have received a copy of the GNU General Public License and
  21:/Library/DaisyToolchain/0.2.0/arm/arm-none-eabi/include/c++/10.3.1/bits/alloc_traits.h **** // a copy of the GCC Runtime Library Exception along with this program;
  22:/Library/DaisyToolchain/0.2.0/arm/arm-none-eabi/include/c++/10.3.1/bits/alloc_traits.h **** // see the files COPYING3 and COPYING.RUNTIME respectively.  If not, see
  23:/Library/DaisyToolchain/0.2.0/arm/arm-none-eabi/include/c++/10.3.1/bits/alloc_traits.h **** // <http://www.gnu.org/licenses/>.
  24:/Library/DaisyToolchain/0.2.0/arm/arm-none-eabi/include/c++/10.3.1/bits/alloc_traits.h **** 
  25:/Library/DaisyToolchain/0.2.0/arm/arm-none-eabi/include/c++/10.3.1/bits/alloc_traits.h **** /** @file bits/alloc_traits.h
  26:/Library/DaisyToolchain/0.2.0/arm/arm-none-eabi/include/c++/10.3.1/bits/alloc_traits.h ****  *  This is an internal header file, included by other library headers.
  27:/Library/DaisyToolchain/0.2.0/arm/arm-none-eabi/include/c++/10.3.1/bits/alloc_traits.h ****  *  Do not attempt to use it directly. @headername{memory}
  28:/Library/DaisyToolchain/0.2.0/arm/arm-none-eabi/include/c++/10.3.1/bits/alloc_traits.h ****  */
  29:/Library/DaisyToolchain/0.2.0/arm/arm-none-eabi/include/c++/10.3.1/bits/alloc_traits.h **** 
  30:/Library/DaisyToolchain/0.2.0/arm/arm-none-eabi/include/c++/10.3.1/bits/alloc_traits.h **** #ifndef _ALLOC_TRAITS_H
  31:/Library/DaisyToolchain/0.2.0/arm/arm-none-eabi/include/c++/10.3.1/bits/alloc_traits.h **** #define _ALLOC_TRAITS_H 1
  32:/Library/DaisyToolchain/0.2.0/arm/arm-none-eabi/include/c++/10.3.1/bits/alloc_traits.h **** 
  33:/Library/DaisyToolchain/0.2.0/arm/arm-none-eabi/include/c++/10.3.1/bits/alloc_traits.h **** #include <bits/stl_construct.h>
  34:/Library/DaisyToolchain/0.2.0/arm/arm-none-eabi/include/c++/10.3.1/bits/alloc_traits.h **** #include <bits/memoryfwd.h>
  35:/Library/DaisyToolchain/0.2.0/arm/arm-none-eabi/include/c++/10.3.1/bits/alloc_traits.h **** #if __cplusplus >= 201103L
  36:/Library/DaisyToolchain/0.2.0/arm/arm-none-eabi/include/c++/10.3.1/bits/alloc_traits.h **** # include <bits/allocator.h>
  37:/Library/DaisyToolchain/0.2.0/arm/arm-none-eabi/include/c++/10.3.1/bits/alloc_traits.h **** # include <bits/ptr_traits.h>
  38:/Library/DaisyToolchain/0.2.0/arm/arm-none-eabi/include/c++/10.3.1/bits/alloc_traits.h **** # include <ext/numeric_traits.h>
  39:/Library/DaisyToolchain/0.2.0/arm/arm-none-eabi/include/c++/10.3.1/bits/alloc_traits.h **** #endif
  40:/Library/DaisyToolchain/0.2.0/arm/arm-none-eabi/include/c++/10.3.1/bits/alloc_traits.h **** 
  41:/Library/DaisyToolchain/0.2.0/arm/arm-none-eabi/include/c++/10.3.1/bits/alloc_traits.h **** namespace std _GLIBCXX_VISIBILITY(default)
  42:/Library/DaisyToolchain/0.2.0/arm/arm-none-eabi/include/c++/10.3.1/bits/alloc_traits.h **** {
  43:/Library/DaisyToolchain/0.2.0/arm/arm-none-eabi/include/c++/10.3.1/bits/alloc_traits.h **** _GLIBCXX_BEGIN_NAMESPACE_VERSION
  44:/Library/DaisyToolchain/0.2.0/arm/arm-none-eabi/include/c++/10.3.1/bits/alloc_traits.h **** 
  45:/Library/DaisyToolchain/0.2.0/arm/arm-none-eabi/include/c++/10.3.1/bits/alloc_traits.h **** #if __cplusplus >= 201103L
  46:/Library/DaisyToolchain/0.2.0/arm/arm-none-eabi/include/c++/10.3.1/bits/alloc_traits.h **** #define __cpp_lib_allocator_traits_is_always_equal 201411
  47:/Library/DaisyToolchain/0.2.0/arm/arm-none-eabi/include/c++/10.3.1/bits/alloc_traits.h **** 
  48:/Library/DaisyToolchain/0.2.0/arm/arm-none-eabi/include/c++/10.3.1/bits/alloc_traits.h ****   struct __allocator_traits_base
  49:/Library/DaisyToolchain/0.2.0/arm/arm-none-eabi/include/c++/10.3.1/bits/alloc_traits.h ****   {
  50:/Library/DaisyToolchain/0.2.0/arm/arm-none-eabi/include/c++/10.3.1/bits/alloc_traits.h ****     template<typename _Tp, typename _Up, typename = void>
  51:/Library/DaisyToolchain/0.2.0/arm/arm-none-eabi/include/c++/10.3.1/bits/alloc_traits.h ****       struct __rebind : __replace_first_arg<_Tp, _Up> { };
  52:/Library/DaisyToolchain/0.2.0/arm/arm-none-eabi/include/c++/10.3.1/bits/alloc_traits.h **** 
  53:/Library/DaisyToolchain/0.2.0/arm/arm-none-eabi/include/c++/10.3.1/bits/alloc_traits.h ****     template<typename _Tp, typename _Up>
  54:/Library/DaisyToolchain/0.2.0/arm/arm-none-eabi/include/c++/10.3.1/bits/alloc_traits.h ****       struct __rebind<_Tp, _Up,
  55:/Library/DaisyToolchain/0.2.0/arm/arm-none-eabi/include/c++/10.3.1/bits/alloc_traits.h **** 		      __void_t<typename _Tp::template rebind<_Up>::other>>
  56:/Library/DaisyToolchain/0.2.0/arm/arm-none-eabi/include/c++/10.3.1/bits/alloc_traits.h ****       { using type = typename _Tp::template rebind<_Up>::other; };
  57:/Library/DaisyToolchain/0.2.0/arm/arm-none-eabi/include/c++/10.3.1/bits/alloc_traits.h **** 
  58:/Library/DaisyToolchain/0.2.0/arm/arm-none-eabi/include/c++/10.3.1/bits/alloc_traits.h ****   protected:
  59:/Library/DaisyToolchain/0.2.0/arm/arm-none-eabi/include/c++/10.3.1/bits/alloc_traits.h ****     template<typename _Tp>
  60:/Library/DaisyToolchain/0.2.0/arm/arm-none-eabi/include/c++/10.3.1/bits/alloc_traits.h ****       using __pointer = typename _Tp::pointer;
  61:/Library/DaisyToolchain/0.2.0/arm/arm-none-eabi/include/c++/10.3.1/bits/alloc_traits.h ****     template<typename _Tp>
  62:/Library/DaisyToolchain/0.2.0/arm/arm-none-eabi/include/c++/10.3.1/bits/alloc_traits.h ****       using __c_pointer = typename _Tp::const_pointer;
  63:/Library/DaisyToolchain/0.2.0/arm/arm-none-eabi/include/c++/10.3.1/bits/alloc_traits.h ****     template<typename _Tp>
  64:/Library/DaisyToolchain/0.2.0/arm/arm-none-eabi/include/c++/10.3.1/bits/alloc_traits.h ****       using __v_pointer = typename _Tp::void_pointer;
  65:/Library/DaisyToolchain/0.2.0/arm/arm-none-eabi/include/c++/10.3.1/bits/alloc_traits.h ****     template<typename _Tp>
  66:/Library/DaisyToolchain/0.2.0/arm/arm-none-eabi/include/c++/10.3.1/bits/alloc_traits.h ****       using __cv_pointer = typename _Tp::const_void_pointer;
  67:/Library/DaisyToolchain/0.2.0/arm/arm-none-eabi/include/c++/10.3.1/bits/alloc_traits.h ****     template<typename _Tp>
  68:/Library/DaisyToolchain/0.2.0/arm/arm-none-eabi/include/c++/10.3.1/bits/alloc_traits.h ****       using __pocca = typename _Tp::propagate_on_container_copy_assignment;
  69:/Library/DaisyToolchain/0.2.0/arm/arm-none-eabi/include/c++/10.3.1/bits/alloc_traits.h ****     template<typename _Tp>
  70:/Library/DaisyToolchain/0.2.0/arm/arm-none-eabi/include/c++/10.3.1/bits/alloc_traits.h ****       using __pocma = typename _Tp::propagate_on_container_move_assignment;
ARM GAS  /var/folders/41/s_9r3f9s4p3_9jgx7wszdkhh0000gn/T//ccQQceQd.s 			page 38


  71:/Library/DaisyToolchain/0.2.0/arm/arm-none-eabi/include/c++/10.3.1/bits/alloc_traits.h ****     template<typename _Tp>
  72:/Library/DaisyToolchain/0.2.0/arm/arm-none-eabi/include/c++/10.3.1/bits/alloc_traits.h ****       using __pocs = typename _Tp::propagate_on_container_swap;
  73:/Library/DaisyToolchain/0.2.0/arm/arm-none-eabi/include/c++/10.3.1/bits/alloc_traits.h ****     template<typename _Tp>
  74:/Library/DaisyToolchain/0.2.0/arm/arm-none-eabi/include/c++/10.3.1/bits/alloc_traits.h ****       using __equal = typename _Tp::is_always_equal;
  75:/Library/DaisyToolchain/0.2.0/arm/arm-none-eabi/include/c++/10.3.1/bits/alloc_traits.h ****   };
  76:/Library/DaisyToolchain/0.2.0/arm/arm-none-eabi/include/c++/10.3.1/bits/alloc_traits.h **** 
  77:/Library/DaisyToolchain/0.2.0/arm/arm-none-eabi/include/c++/10.3.1/bits/alloc_traits.h ****   template<typename _Alloc, typename _Up>
  78:/Library/DaisyToolchain/0.2.0/arm/arm-none-eabi/include/c++/10.3.1/bits/alloc_traits.h ****     using __alloc_rebind
  79:/Library/DaisyToolchain/0.2.0/arm/arm-none-eabi/include/c++/10.3.1/bits/alloc_traits.h ****       = typename __allocator_traits_base::template __rebind<_Alloc, _Up>::type;
  80:/Library/DaisyToolchain/0.2.0/arm/arm-none-eabi/include/c++/10.3.1/bits/alloc_traits.h **** 
  81:/Library/DaisyToolchain/0.2.0/arm/arm-none-eabi/include/c++/10.3.1/bits/alloc_traits.h ****   /**
  82:/Library/DaisyToolchain/0.2.0/arm/arm-none-eabi/include/c++/10.3.1/bits/alloc_traits.h ****    * @brief  Uniform interface to all allocator types.
  83:/Library/DaisyToolchain/0.2.0/arm/arm-none-eabi/include/c++/10.3.1/bits/alloc_traits.h ****    * @ingroup allocators
  84:/Library/DaisyToolchain/0.2.0/arm/arm-none-eabi/include/c++/10.3.1/bits/alloc_traits.h ****   */
  85:/Library/DaisyToolchain/0.2.0/arm/arm-none-eabi/include/c++/10.3.1/bits/alloc_traits.h ****   template<typename _Alloc>
  86:/Library/DaisyToolchain/0.2.0/arm/arm-none-eabi/include/c++/10.3.1/bits/alloc_traits.h ****     struct allocator_traits : __allocator_traits_base
  87:/Library/DaisyToolchain/0.2.0/arm/arm-none-eabi/include/c++/10.3.1/bits/alloc_traits.h ****     {
  88:/Library/DaisyToolchain/0.2.0/arm/arm-none-eabi/include/c++/10.3.1/bits/alloc_traits.h ****       /// The allocator type
  89:/Library/DaisyToolchain/0.2.0/arm/arm-none-eabi/include/c++/10.3.1/bits/alloc_traits.h ****       typedef _Alloc allocator_type;
  90:/Library/DaisyToolchain/0.2.0/arm/arm-none-eabi/include/c++/10.3.1/bits/alloc_traits.h ****       /// The allocated type
  91:/Library/DaisyToolchain/0.2.0/arm/arm-none-eabi/include/c++/10.3.1/bits/alloc_traits.h ****       typedef typename _Alloc::value_type value_type;
  92:/Library/DaisyToolchain/0.2.0/arm/arm-none-eabi/include/c++/10.3.1/bits/alloc_traits.h **** 
  93:/Library/DaisyToolchain/0.2.0/arm/arm-none-eabi/include/c++/10.3.1/bits/alloc_traits.h ****       /**
  94:/Library/DaisyToolchain/0.2.0/arm/arm-none-eabi/include/c++/10.3.1/bits/alloc_traits.h ****        * @brief   The allocator's pointer type.
  95:/Library/DaisyToolchain/0.2.0/arm/arm-none-eabi/include/c++/10.3.1/bits/alloc_traits.h ****        *
  96:/Library/DaisyToolchain/0.2.0/arm/arm-none-eabi/include/c++/10.3.1/bits/alloc_traits.h ****        * @c Alloc::pointer if that type exists, otherwise @c value_type*
  97:/Library/DaisyToolchain/0.2.0/arm/arm-none-eabi/include/c++/10.3.1/bits/alloc_traits.h ****       */
  98:/Library/DaisyToolchain/0.2.0/arm/arm-none-eabi/include/c++/10.3.1/bits/alloc_traits.h ****       using pointer = __detected_or_t<value_type*, __pointer, _Alloc>;
  99:/Library/DaisyToolchain/0.2.0/arm/arm-none-eabi/include/c++/10.3.1/bits/alloc_traits.h **** 
 100:/Library/DaisyToolchain/0.2.0/arm/arm-none-eabi/include/c++/10.3.1/bits/alloc_traits.h ****     private:
 101:/Library/DaisyToolchain/0.2.0/arm/arm-none-eabi/include/c++/10.3.1/bits/alloc_traits.h ****       // Select _Func<_Alloc> or pointer_traits<pointer>::rebind<_Tp>
 102:/Library/DaisyToolchain/0.2.0/arm/arm-none-eabi/include/c++/10.3.1/bits/alloc_traits.h ****       template<template<typename> class _Func, typename _Tp, typename = void>
 103:/Library/DaisyToolchain/0.2.0/arm/arm-none-eabi/include/c++/10.3.1/bits/alloc_traits.h **** 	struct _Ptr
 104:/Library/DaisyToolchain/0.2.0/arm/arm-none-eabi/include/c++/10.3.1/bits/alloc_traits.h **** 	{
 105:/Library/DaisyToolchain/0.2.0/arm/arm-none-eabi/include/c++/10.3.1/bits/alloc_traits.h **** 	  using type = typename pointer_traits<pointer>::template rebind<_Tp>;
 106:/Library/DaisyToolchain/0.2.0/arm/arm-none-eabi/include/c++/10.3.1/bits/alloc_traits.h **** 	};
 107:/Library/DaisyToolchain/0.2.0/arm/arm-none-eabi/include/c++/10.3.1/bits/alloc_traits.h **** 
 108:/Library/DaisyToolchain/0.2.0/arm/arm-none-eabi/include/c++/10.3.1/bits/alloc_traits.h ****       template<template<typename> class _Func, typename _Tp>
 109:/Library/DaisyToolchain/0.2.0/arm/arm-none-eabi/include/c++/10.3.1/bits/alloc_traits.h **** 	struct _Ptr<_Func, _Tp, __void_t<_Func<_Alloc>>>
 110:/Library/DaisyToolchain/0.2.0/arm/arm-none-eabi/include/c++/10.3.1/bits/alloc_traits.h **** 	{
 111:/Library/DaisyToolchain/0.2.0/arm/arm-none-eabi/include/c++/10.3.1/bits/alloc_traits.h **** 	  using type = _Func<_Alloc>;
 112:/Library/DaisyToolchain/0.2.0/arm/arm-none-eabi/include/c++/10.3.1/bits/alloc_traits.h **** 	};
 113:/Library/DaisyToolchain/0.2.0/arm/arm-none-eabi/include/c++/10.3.1/bits/alloc_traits.h **** 
 114:/Library/DaisyToolchain/0.2.0/arm/arm-none-eabi/include/c++/10.3.1/bits/alloc_traits.h ****       // Select _A2::difference_type or pointer_traits<_Ptr>::difference_type
 115:/Library/DaisyToolchain/0.2.0/arm/arm-none-eabi/include/c++/10.3.1/bits/alloc_traits.h ****       template<typename _A2, typename _PtrT, typename = void>
 116:/Library/DaisyToolchain/0.2.0/arm/arm-none-eabi/include/c++/10.3.1/bits/alloc_traits.h **** 	struct _Diff
 117:/Library/DaisyToolchain/0.2.0/arm/arm-none-eabi/include/c++/10.3.1/bits/alloc_traits.h **** 	{ using type = typename pointer_traits<_PtrT>::difference_type; };
 118:/Library/DaisyToolchain/0.2.0/arm/arm-none-eabi/include/c++/10.3.1/bits/alloc_traits.h **** 
 119:/Library/DaisyToolchain/0.2.0/arm/arm-none-eabi/include/c++/10.3.1/bits/alloc_traits.h ****       template<typename _A2, typename _PtrT>
 120:/Library/DaisyToolchain/0.2.0/arm/arm-none-eabi/include/c++/10.3.1/bits/alloc_traits.h **** 	struct _Diff<_A2, _PtrT, __void_t<typename _A2::difference_type>>
 121:/Library/DaisyToolchain/0.2.0/arm/arm-none-eabi/include/c++/10.3.1/bits/alloc_traits.h **** 	{ using type = typename _A2::difference_type; };
 122:/Library/DaisyToolchain/0.2.0/arm/arm-none-eabi/include/c++/10.3.1/bits/alloc_traits.h **** 
 123:/Library/DaisyToolchain/0.2.0/arm/arm-none-eabi/include/c++/10.3.1/bits/alloc_traits.h ****       // Select _A2::size_type or make_unsigned<_DiffT>::type
 124:/Library/DaisyToolchain/0.2.0/arm/arm-none-eabi/include/c++/10.3.1/bits/alloc_traits.h ****       template<typename _A2, typename _DiffT, typename = void>
 125:/Library/DaisyToolchain/0.2.0/arm/arm-none-eabi/include/c++/10.3.1/bits/alloc_traits.h **** 	struct _Size : make_unsigned<_DiffT> { };
 126:/Library/DaisyToolchain/0.2.0/arm/arm-none-eabi/include/c++/10.3.1/bits/alloc_traits.h **** 
 127:/Library/DaisyToolchain/0.2.0/arm/arm-none-eabi/include/c++/10.3.1/bits/alloc_traits.h ****       template<typename _A2, typename _DiffT>
ARM GAS  /var/folders/41/s_9r3f9s4p3_9jgx7wszdkhh0000gn/T//ccQQceQd.s 			page 39


 128:/Library/DaisyToolchain/0.2.0/arm/arm-none-eabi/include/c++/10.3.1/bits/alloc_traits.h **** 	struct _Size<_A2, _DiffT, __void_t<typename _A2::size_type>>
 129:/Library/DaisyToolchain/0.2.0/arm/arm-none-eabi/include/c++/10.3.1/bits/alloc_traits.h **** 	{ using type = typename _A2::size_type; };
 130:/Library/DaisyToolchain/0.2.0/arm/arm-none-eabi/include/c++/10.3.1/bits/alloc_traits.h **** 
 131:/Library/DaisyToolchain/0.2.0/arm/arm-none-eabi/include/c++/10.3.1/bits/alloc_traits.h ****     public:
 132:/Library/DaisyToolchain/0.2.0/arm/arm-none-eabi/include/c++/10.3.1/bits/alloc_traits.h ****       /**
 133:/Library/DaisyToolchain/0.2.0/arm/arm-none-eabi/include/c++/10.3.1/bits/alloc_traits.h ****        * @brief   The allocator's const pointer type.
 134:/Library/DaisyToolchain/0.2.0/arm/arm-none-eabi/include/c++/10.3.1/bits/alloc_traits.h ****        *
 135:/Library/DaisyToolchain/0.2.0/arm/arm-none-eabi/include/c++/10.3.1/bits/alloc_traits.h ****        * @c Alloc::const_pointer if that type exists, otherwise
 136:/Library/DaisyToolchain/0.2.0/arm/arm-none-eabi/include/c++/10.3.1/bits/alloc_traits.h ****        * <tt> pointer_traits<pointer>::rebind<const value_type> </tt>
 137:/Library/DaisyToolchain/0.2.0/arm/arm-none-eabi/include/c++/10.3.1/bits/alloc_traits.h ****       */
 138:/Library/DaisyToolchain/0.2.0/arm/arm-none-eabi/include/c++/10.3.1/bits/alloc_traits.h ****       using const_pointer = typename _Ptr<__c_pointer, const value_type>::type;
 139:/Library/DaisyToolchain/0.2.0/arm/arm-none-eabi/include/c++/10.3.1/bits/alloc_traits.h **** 
 140:/Library/DaisyToolchain/0.2.0/arm/arm-none-eabi/include/c++/10.3.1/bits/alloc_traits.h ****       /**
 141:/Library/DaisyToolchain/0.2.0/arm/arm-none-eabi/include/c++/10.3.1/bits/alloc_traits.h ****        * @brief   The allocator's void pointer type.
 142:/Library/DaisyToolchain/0.2.0/arm/arm-none-eabi/include/c++/10.3.1/bits/alloc_traits.h ****        *
 143:/Library/DaisyToolchain/0.2.0/arm/arm-none-eabi/include/c++/10.3.1/bits/alloc_traits.h ****        * @c Alloc::void_pointer if that type exists, otherwise
 144:/Library/DaisyToolchain/0.2.0/arm/arm-none-eabi/include/c++/10.3.1/bits/alloc_traits.h ****        * <tt> pointer_traits<pointer>::rebind<void> </tt>
 145:/Library/DaisyToolchain/0.2.0/arm/arm-none-eabi/include/c++/10.3.1/bits/alloc_traits.h ****       */
 146:/Library/DaisyToolchain/0.2.0/arm/arm-none-eabi/include/c++/10.3.1/bits/alloc_traits.h ****       using void_pointer = typename _Ptr<__v_pointer, void>::type;
 147:/Library/DaisyToolchain/0.2.0/arm/arm-none-eabi/include/c++/10.3.1/bits/alloc_traits.h **** 
 148:/Library/DaisyToolchain/0.2.0/arm/arm-none-eabi/include/c++/10.3.1/bits/alloc_traits.h ****       /**
 149:/Library/DaisyToolchain/0.2.0/arm/arm-none-eabi/include/c++/10.3.1/bits/alloc_traits.h ****        * @brief   The allocator's const void pointer type.
 150:/Library/DaisyToolchain/0.2.0/arm/arm-none-eabi/include/c++/10.3.1/bits/alloc_traits.h ****        *
 151:/Library/DaisyToolchain/0.2.0/arm/arm-none-eabi/include/c++/10.3.1/bits/alloc_traits.h ****        * @c Alloc::const_void_pointer if that type exists, otherwise
 152:/Library/DaisyToolchain/0.2.0/arm/arm-none-eabi/include/c++/10.3.1/bits/alloc_traits.h ****        * <tt> pointer_traits<pointer>::rebind<const void> </tt>
 153:/Library/DaisyToolchain/0.2.0/arm/arm-none-eabi/include/c++/10.3.1/bits/alloc_traits.h ****       */
 154:/Library/DaisyToolchain/0.2.0/arm/arm-none-eabi/include/c++/10.3.1/bits/alloc_traits.h ****       using const_void_pointer = typename _Ptr<__cv_pointer, const void>::type;
 155:/Library/DaisyToolchain/0.2.0/arm/arm-none-eabi/include/c++/10.3.1/bits/alloc_traits.h **** 
 156:/Library/DaisyToolchain/0.2.0/arm/arm-none-eabi/include/c++/10.3.1/bits/alloc_traits.h ****       /**
 157:/Library/DaisyToolchain/0.2.0/arm/arm-none-eabi/include/c++/10.3.1/bits/alloc_traits.h ****        * @brief   The allocator's difference type
 158:/Library/DaisyToolchain/0.2.0/arm/arm-none-eabi/include/c++/10.3.1/bits/alloc_traits.h ****        *
 159:/Library/DaisyToolchain/0.2.0/arm/arm-none-eabi/include/c++/10.3.1/bits/alloc_traits.h ****        * @c Alloc::difference_type if that type exists, otherwise
 160:/Library/DaisyToolchain/0.2.0/arm/arm-none-eabi/include/c++/10.3.1/bits/alloc_traits.h ****        * <tt> pointer_traits<pointer>::difference_type </tt>
 161:/Library/DaisyToolchain/0.2.0/arm/arm-none-eabi/include/c++/10.3.1/bits/alloc_traits.h ****       */
 162:/Library/DaisyToolchain/0.2.0/arm/arm-none-eabi/include/c++/10.3.1/bits/alloc_traits.h ****       using difference_type = typename _Diff<_Alloc, pointer>::type;
 163:/Library/DaisyToolchain/0.2.0/arm/arm-none-eabi/include/c++/10.3.1/bits/alloc_traits.h **** 
 164:/Library/DaisyToolchain/0.2.0/arm/arm-none-eabi/include/c++/10.3.1/bits/alloc_traits.h ****       /**
 165:/Library/DaisyToolchain/0.2.0/arm/arm-none-eabi/include/c++/10.3.1/bits/alloc_traits.h ****        * @brief   The allocator's size type
 166:/Library/DaisyToolchain/0.2.0/arm/arm-none-eabi/include/c++/10.3.1/bits/alloc_traits.h ****        *
 167:/Library/DaisyToolchain/0.2.0/arm/arm-none-eabi/include/c++/10.3.1/bits/alloc_traits.h ****        * @c Alloc::size_type if that type exists, otherwise
 168:/Library/DaisyToolchain/0.2.0/arm/arm-none-eabi/include/c++/10.3.1/bits/alloc_traits.h ****        * <tt> make_unsigned<difference_type>::type </tt>
 169:/Library/DaisyToolchain/0.2.0/arm/arm-none-eabi/include/c++/10.3.1/bits/alloc_traits.h ****       */
 170:/Library/DaisyToolchain/0.2.0/arm/arm-none-eabi/include/c++/10.3.1/bits/alloc_traits.h ****       using size_type = typename _Size<_Alloc, difference_type>::type;
 171:/Library/DaisyToolchain/0.2.0/arm/arm-none-eabi/include/c++/10.3.1/bits/alloc_traits.h **** 
 172:/Library/DaisyToolchain/0.2.0/arm/arm-none-eabi/include/c++/10.3.1/bits/alloc_traits.h ****       /**
 173:/Library/DaisyToolchain/0.2.0/arm/arm-none-eabi/include/c++/10.3.1/bits/alloc_traits.h ****        * @brief   How the allocator is propagated on copy assignment
 174:/Library/DaisyToolchain/0.2.0/arm/arm-none-eabi/include/c++/10.3.1/bits/alloc_traits.h ****        *
 175:/Library/DaisyToolchain/0.2.0/arm/arm-none-eabi/include/c++/10.3.1/bits/alloc_traits.h ****        * @c Alloc::propagate_on_container_copy_assignment if that type exists,
 176:/Library/DaisyToolchain/0.2.0/arm/arm-none-eabi/include/c++/10.3.1/bits/alloc_traits.h ****        * otherwise @c false_type
 177:/Library/DaisyToolchain/0.2.0/arm/arm-none-eabi/include/c++/10.3.1/bits/alloc_traits.h ****       */
 178:/Library/DaisyToolchain/0.2.0/arm/arm-none-eabi/include/c++/10.3.1/bits/alloc_traits.h ****       using propagate_on_container_copy_assignment
 179:/Library/DaisyToolchain/0.2.0/arm/arm-none-eabi/include/c++/10.3.1/bits/alloc_traits.h **** 	= __detected_or_t<false_type, __pocca, _Alloc>;
 180:/Library/DaisyToolchain/0.2.0/arm/arm-none-eabi/include/c++/10.3.1/bits/alloc_traits.h **** 
 181:/Library/DaisyToolchain/0.2.0/arm/arm-none-eabi/include/c++/10.3.1/bits/alloc_traits.h ****       /**
 182:/Library/DaisyToolchain/0.2.0/arm/arm-none-eabi/include/c++/10.3.1/bits/alloc_traits.h ****        * @brief   How the allocator is propagated on move assignment
 183:/Library/DaisyToolchain/0.2.0/arm/arm-none-eabi/include/c++/10.3.1/bits/alloc_traits.h ****        *
 184:/Library/DaisyToolchain/0.2.0/arm/arm-none-eabi/include/c++/10.3.1/bits/alloc_traits.h ****        * @c Alloc::propagate_on_container_move_assignment if that type exists,
ARM GAS  /var/folders/41/s_9r3f9s4p3_9jgx7wszdkhh0000gn/T//ccQQceQd.s 			page 40


 185:/Library/DaisyToolchain/0.2.0/arm/arm-none-eabi/include/c++/10.3.1/bits/alloc_traits.h ****        * otherwise @c false_type
 186:/Library/DaisyToolchain/0.2.0/arm/arm-none-eabi/include/c++/10.3.1/bits/alloc_traits.h ****       */
 187:/Library/DaisyToolchain/0.2.0/arm/arm-none-eabi/include/c++/10.3.1/bits/alloc_traits.h ****       using propagate_on_container_move_assignment
 188:/Library/DaisyToolchain/0.2.0/arm/arm-none-eabi/include/c++/10.3.1/bits/alloc_traits.h **** 	= __detected_or_t<false_type, __pocma, _Alloc>;
 189:/Library/DaisyToolchain/0.2.0/arm/arm-none-eabi/include/c++/10.3.1/bits/alloc_traits.h **** 
 190:/Library/DaisyToolchain/0.2.0/arm/arm-none-eabi/include/c++/10.3.1/bits/alloc_traits.h ****       /**
 191:/Library/DaisyToolchain/0.2.0/arm/arm-none-eabi/include/c++/10.3.1/bits/alloc_traits.h ****        * @brief   How the allocator is propagated on swap
 192:/Library/DaisyToolchain/0.2.0/arm/arm-none-eabi/include/c++/10.3.1/bits/alloc_traits.h ****        *
 193:/Library/DaisyToolchain/0.2.0/arm/arm-none-eabi/include/c++/10.3.1/bits/alloc_traits.h ****        * @c Alloc::propagate_on_container_swap if that type exists,
 194:/Library/DaisyToolchain/0.2.0/arm/arm-none-eabi/include/c++/10.3.1/bits/alloc_traits.h ****        * otherwise @c false_type
 195:/Library/DaisyToolchain/0.2.0/arm/arm-none-eabi/include/c++/10.3.1/bits/alloc_traits.h ****       */
 196:/Library/DaisyToolchain/0.2.0/arm/arm-none-eabi/include/c++/10.3.1/bits/alloc_traits.h ****       using propagate_on_container_swap
 197:/Library/DaisyToolchain/0.2.0/arm/arm-none-eabi/include/c++/10.3.1/bits/alloc_traits.h **** 	= __detected_or_t<false_type, __pocs, _Alloc>;
 198:/Library/DaisyToolchain/0.2.0/arm/arm-none-eabi/include/c++/10.3.1/bits/alloc_traits.h **** 
 199:/Library/DaisyToolchain/0.2.0/arm/arm-none-eabi/include/c++/10.3.1/bits/alloc_traits.h ****       /**
 200:/Library/DaisyToolchain/0.2.0/arm/arm-none-eabi/include/c++/10.3.1/bits/alloc_traits.h ****        * @brief   Whether all instances of the allocator type compare equal.
 201:/Library/DaisyToolchain/0.2.0/arm/arm-none-eabi/include/c++/10.3.1/bits/alloc_traits.h ****        *
 202:/Library/DaisyToolchain/0.2.0/arm/arm-none-eabi/include/c++/10.3.1/bits/alloc_traits.h ****        * @c Alloc::is_always_equal if that type exists,
 203:/Library/DaisyToolchain/0.2.0/arm/arm-none-eabi/include/c++/10.3.1/bits/alloc_traits.h ****        * otherwise @c is_empty<Alloc>::type
 204:/Library/DaisyToolchain/0.2.0/arm/arm-none-eabi/include/c++/10.3.1/bits/alloc_traits.h ****       */
 205:/Library/DaisyToolchain/0.2.0/arm/arm-none-eabi/include/c++/10.3.1/bits/alloc_traits.h ****       using is_always_equal
 206:/Library/DaisyToolchain/0.2.0/arm/arm-none-eabi/include/c++/10.3.1/bits/alloc_traits.h **** 	= __detected_or_t<typename is_empty<_Alloc>::type, __equal, _Alloc>;
 207:/Library/DaisyToolchain/0.2.0/arm/arm-none-eabi/include/c++/10.3.1/bits/alloc_traits.h **** 
 208:/Library/DaisyToolchain/0.2.0/arm/arm-none-eabi/include/c++/10.3.1/bits/alloc_traits.h ****       template<typename _Tp>
 209:/Library/DaisyToolchain/0.2.0/arm/arm-none-eabi/include/c++/10.3.1/bits/alloc_traits.h **** 	using rebind_alloc = __alloc_rebind<_Alloc, _Tp>;
 210:/Library/DaisyToolchain/0.2.0/arm/arm-none-eabi/include/c++/10.3.1/bits/alloc_traits.h ****       template<typename _Tp>
 211:/Library/DaisyToolchain/0.2.0/arm/arm-none-eabi/include/c++/10.3.1/bits/alloc_traits.h **** 	using rebind_traits = allocator_traits<rebind_alloc<_Tp>>;
 212:/Library/DaisyToolchain/0.2.0/arm/arm-none-eabi/include/c++/10.3.1/bits/alloc_traits.h **** 
 213:/Library/DaisyToolchain/0.2.0/arm/arm-none-eabi/include/c++/10.3.1/bits/alloc_traits.h ****     private:
 214:/Library/DaisyToolchain/0.2.0/arm/arm-none-eabi/include/c++/10.3.1/bits/alloc_traits.h ****       template<typename _Alloc2>
 215:/Library/DaisyToolchain/0.2.0/arm/arm-none-eabi/include/c++/10.3.1/bits/alloc_traits.h **** 	static constexpr auto
 216:/Library/DaisyToolchain/0.2.0/arm/arm-none-eabi/include/c++/10.3.1/bits/alloc_traits.h **** 	_S_allocate(_Alloc2& __a, size_type __n, const_void_pointer __hint, int)
 217:/Library/DaisyToolchain/0.2.0/arm/arm-none-eabi/include/c++/10.3.1/bits/alloc_traits.h **** 	-> decltype(__a.allocate(__n, __hint))
 218:/Library/DaisyToolchain/0.2.0/arm/arm-none-eabi/include/c++/10.3.1/bits/alloc_traits.h **** 	{ return __a.allocate(__n, __hint); }
 219:/Library/DaisyToolchain/0.2.0/arm/arm-none-eabi/include/c++/10.3.1/bits/alloc_traits.h **** 
 220:/Library/DaisyToolchain/0.2.0/arm/arm-none-eabi/include/c++/10.3.1/bits/alloc_traits.h ****       template<typename _Alloc2>
 221:/Library/DaisyToolchain/0.2.0/arm/arm-none-eabi/include/c++/10.3.1/bits/alloc_traits.h **** 	static constexpr pointer
 222:/Library/DaisyToolchain/0.2.0/arm/arm-none-eabi/include/c++/10.3.1/bits/alloc_traits.h **** 	_S_allocate(_Alloc2& __a, size_type __n, const_void_pointer, ...)
 223:/Library/DaisyToolchain/0.2.0/arm/arm-none-eabi/include/c++/10.3.1/bits/alloc_traits.h **** 	{ return __a.allocate(__n); }
 224:/Library/DaisyToolchain/0.2.0/arm/arm-none-eabi/include/c++/10.3.1/bits/alloc_traits.h **** 
 225:/Library/DaisyToolchain/0.2.0/arm/arm-none-eabi/include/c++/10.3.1/bits/alloc_traits.h ****       template<typename _Tp, typename... _Args>
 226:/Library/DaisyToolchain/0.2.0/arm/arm-none-eabi/include/c++/10.3.1/bits/alloc_traits.h **** 	struct __construct_helper
 227:/Library/DaisyToolchain/0.2.0/arm/arm-none-eabi/include/c++/10.3.1/bits/alloc_traits.h **** 	{
 228:/Library/DaisyToolchain/0.2.0/arm/arm-none-eabi/include/c++/10.3.1/bits/alloc_traits.h **** 	  template<typename _Alloc2,
 229:/Library/DaisyToolchain/0.2.0/arm/arm-none-eabi/include/c++/10.3.1/bits/alloc_traits.h **** 	    typename = decltype(std::declval<_Alloc2*>()->construct(
 230:/Library/DaisyToolchain/0.2.0/arm/arm-none-eabi/include/c++/10.3.1/bits/alloc_traits.h **** 		  std::declval<_Tp*>(), std::declval<_Args>()...))>
 231:/Library/DaisyToolchain/0.2.0/arm/arm-none-eabi/include/c++/10.3.1/bits/alloc_traits.h **** 	    static true_type __test(int);
 232:/Library/DaisyToolchain/0.2.0/arm/arm-none-eabi/include/c++/10.3.1/bits/alloc_traits.h **** 
 233:/Library/DaisyToolchain/0.2.0/arm/arm-none-eabi/include/c++/10.3.1/bits/alloc_traits.h **** 	  template<typename>
 234:/Library/DaisyToolchain/0.2.0/arm/arm-none-eabi/include/c++/10.3.1/bits/alloc_traits.h **** 	    static false_type __test(...);
 235:/Library/DaisyToolchain/0.2.0/arm/arm-none-eabi/include/c++/10.3.1/bits/alloc_traits.h **** 
 236:/Library/DaisyToolchain/0.2.0/arm/arm-none-eabi/include/c++/10.3.1/bits/alloc_traits.h **** 	  using type = decltype(__test<_Alloc>(0));
 237:/Library/DaisyToolchain/0.2.0/arm/arm-none-eabi/include/c++/10.3.1/bits/alloc_traits.h **** 	};
 238:/Library/DaisyToolchain/0.2.0/arm/arm-none-eabi/include/c++/10.3.1/bits/alloc_traits.h **** 
 239:/Library/DaisyToolchain/0.2.0/arm/arm-none-eabi/include/c++/10.3.1/bits/alloc_traits.h ****       template<typename _Tp, typename... _Args>
 240:/Library/DaisyToolchain/0.2.0/arm/arm-none-eabi/include/c++/10.3.1/bits/alloc_traits.h **** 	using __has_construct
 241:/Library/DaisyToolchain/0.2.0/arm/arm-none-eabi/include/c++/10.3.1/bits/alloc_traits.h **** 	  = typename __construct_helper<_Tp, _Args...>::type;
ARM GAS  /var/folders/41/s_9r3f9s4p3_9jgx7wszdkhh0000gn/T//ccQQceQd.s 			page 41


 242:/Library/DaisyToolchain/0.2.0/arm/arm-none-eabi/include/c++/10.3.1/bits/alloc_traits.h **** 
 243:/Library/DaisyToolchain/0.2.0/arm/arm-none-eabi/include/c++/10.3.1/bits/alloc_traits.h ****       template<typename _Tp, typename... _Args>
 244:/Library/DaisyToolchain/0.2.0/arm/arm-none-eabi/include/c++/10.3.1/bits/alloc_traits.h **** 	static _GLIBCXX14_CONSTEXPR _Require<__has_construct<_Tp, _Args...>>
 245:/Library/DaisyToolchain/0.2.0/arm/arm-none-eabi/include/c++/10.3.1/bits/alloc_traits.h **** 	_S_construct(_Alloc& __a, _Tp* __p, _Args&&... __args)
 246:/Library/DaisyToolchain/0.2.0/arm/arm-none-eabi/include/c++/10.3.1/bits/alloc_traits.h **** 	noexcept(noexcept(__a.construct(__p, std::forward<_Args>(__args)...)))
 247:/Library/DaisyToolchain/0.2.0/arm/arm-none-eabi/include/c++/10.3.1/bits/alloc_traits.h **** 	{ __a.construct(__p, std::forward<_Args>(__args)...); }
 248:/Library/DaisyToolchain/0.2.0/arm/arm-none-eabi/include/c++/10.3.1/bits/alloc_traits.h **** 
 249:/Library/DaisyToolchain/0.2.0/arm/arm-none-eabi/include/c++/10.3.1/bits/alloc_traits.h ****       template<typename _Tp, typename... _Args>
 250:/Library/DaisyToolchain/0.2.0/arm/arm-none-eabi/include/c++/10.3.1/bits/alloc_traits.h **** 	static _GLIBCXX14_CONSTEXPR
 251:/Library/DaisyToolchain/0.2.0/arm/arm-none-eabi/include/c++/10.3.1/bits/alloc_traits.h **** 	_Require<__and_<__not_<__has_construct<_Tp, _Args...>>,
 252:/Library/DaisyToolchain/0.2.0/arm/arm-none-eabi/include/c++/10.3.1/bits/alloc_traits.h **** 			       is_constructible<_Tp, _Args...>>>
 253:/Library/DaisyToolchain/0.2.0/arm/arm-none-eabi/include/c++/10.3.1/bits/alloc_traits.h **** 	_S_construct(_Alloc&, _Tp* __p, _Args&&... __args)
 254:/Library/DaisyToolchain/0.2.0/arm/arm-none-eabi/include/c++/10.3.1/bits/alloc_traits.h **** 	noexcept(std::is_nothrow_constructible<_Tp, _Args...>::value)
 255:/Library/DaisyToolchain/0.2.0/arm/arm-none-eabi/include/c++/10.3.1/bits/alloc_traits.h **** 	{
 256:/Library/DaisyToolchain/0.2.0/arm/arm-none-eabi/include/c++/10.3.1/bits/alloc_traits.h **** #if __cplusplus <= 201703L
 257:/Library/DaisyToolchain/0.2.0/arm/arm-none-eabi/include/c++/10.3.1/bits/alloc_traits.h **** 	  ::new((void*)__p) _Tp(std::forward<_Args>(__args)...);
 258:/Library/DaisyToolchain/0.2.0/arm/arm-none-eabi/include/c++/10.3.1/bits/alloc_traits.h **** #else
 259:/Library/DaisyToolchain/0.2.0/arm/arm-none-eabi/include/c++/10.3.1/bits/alloc_traits.h **** 	  std::construct_at(__p, std::forward<_Args>(__args)...);
 260:/Library/DaisyToolchain/0.2.0/arm/arm-none-eabi/include/c++/10.3.1/bits/alloc_traits.h **** #endif
 261:/Library/DaisyToolchain/0.2.0/arm/arm-none-eabi/include/c++/10.3.1/bits/alloc_traits.h **** 	}
 262:/Library/DaisyToolchain/0.2.0/arm/arm-none-eabi/include/c++/10.3.1/bits/alloc_traits.h **** 
 263:/Library/DaisyToolchain/0.2.0/arm/arm-none-eabi/include/c++/10.3.1/bits/alloc_traits.h ****       template<typename _Alloc2, typename _Tp>
 264:/Library/DaisyToolchain/0.2.0/arm/arm-none-eabi/include/c++/10.3.1/bits/alloc_traits.h **** 	static _GLIBCXX14_CONSTEXPR auto
 265:/Library/DaisyToolchain/0.2.0/arm/arm-none-eabi/include/c++/10.3.1/bits/alloc_traits.h **** 	_S_destroy(_Alloc2& __a, _Tp* __p, int)
 266:/Library/DaisyToolchain/0.2.0/arm/arm-none-eabi/include/c++/10.3.1/bits/alloc_traits.h **** 	noexcept(noexcept(__a.destroy(__p)))
 267:/Library/DaisyToolchain/0.2.0/arm/arm-none-eabi/include/c++/10.3.1/bits/alloc_traits.h **** 	-> decltype(__a.destroy(__p))
 268:/Library/DaisyToolchain/0.2.0/arm/arm-none-eabi/include/c++/10.3.1/bits/alloc_traits.h **** 	{ __a.destroy(__p); }
 269:/Library/DaisyToolchain/0.2.0/arm/arm-none-eabi/include/c++/10.3.1/bits/alloc_traits.h **** 
 270:/Library/DaisyToolchain/0.2.0/arm/arm-none-eabi/include/c++/10.3.1/bits/alloc_traits.h ****       template<typename _Alloc2, typename _Tp>
 271:/Library/DaisyToolchain/0.2.0/arm/arm-none-eabi/include/c++/10.3.1/bits/alloc_traits.h **** 	static _GLIBCXX14_CONSTEXPR void
 272:/Library/DaisyToolchain/0.2.0/arm/arm-none-eabi/include/c++/10.3.1/bits/alloc_traits.h **** 	_S_destroy(_Alloc2&, _Tp* __p, ...)
 273:/Library/DaisyToolchain/0.2.0/arm/arm-none-eabi/include/c++/10.3.1/bits/alloc_traits.h **** 	noexcept(std::is_nothrow_destructible<_Tp>::value)
 274:/Library/DaisyToolchain/0.2.0/arm/arm-none-eabi/include/c++/10.3.1/bits/alloc_traits.h **** 	{ std::_Destroy(__p); }
 275:/Library/DaisyToolchain/0.2.0/arm/arm-none-eabi/include/c++/10.3.1/bits/alloc_traits.h **** 
 276:/Library/DaisyToolchain/0.2.0/arm/arm-none-eabi/include/c++/10.3.1/bits/alloc_traits.h ****       template<typename _Alloc2>
 277:/Library/DaisyToolchain/0.2.0/arm/arm-none-eabi/include/c++/10.3.1/bits/alloc_traits.h **** 	static constexpr auto
 278:/Library/DaisyToolchain/0.2.0/arm/arm-none-eabi/include/c++/10.3.1/bits/alloc_traits.h **** 	_S_max_size(_Alloc2& __a, int)
 279:/Library/DaisyToolchain/0.2.0/arm/arm-none-eabi/include/c++/10.3.1/bits/alloc_traits.h **** 	-> decltype(__a.max_size())
 280:/Library/DaisyToolchain/0.2.0/arm/arm-none-eabi/include/c++/10.3.1/bits/alloc_traits.h **** 	{ return __a.max_size(); }
 281:/Library/DaisyToolchain/0.2.0/arm/arm-none-eabi/include/c++/10.3.1/bits/alloc_traits.h **** 
 282:/Library/DaisyToolchain/0.2.0/arm/arm-none-eabi/include/c++/10.3.1/bits/alloc_traits.h ****       template<typename _Alloc2>
 283:/Library/DaisyToolchain/0.2.0/arm/arm-none-eabi/include/c++/10.3.1/bits/alloc_traits.h **** 	static constexpr size_type
 284:/Library/DaisyToolchain/0.2.0/arm/arm-none-eabi/include/c++/10.3.1/bits/alloc_traits.h **** 	_S_max_size(_Alloc2&, ...)
 285:/Library/DaisyToolchain/0.2.0/arm/arm-none-eabi/include/c++/10.3.1/bits/alloc_traits.h **** 	{
 286:/Library/DaisyToolchain/0.2.0/arm/arm-none-eabi/include/c++/10.3.1/bits/alloc_traits.h **** 	  // _GLIBCXX_RESOLVE_LIB_DEFECTS
 287:/Library/DaisyToolchain/0.2.0/arm/arm-none-eabi/include/c++/10.3.1/bits/alloc_traits.h **** 	  // 2466. allocator_traits::max_size() default behavior is incorrect
 288:/Library/DaisyToolchain/0.2.0/arm/arm-none-eabi/include/c++/10.3.1/bits/alloc_traits.h **** 	  return __gnu_cxx::__numeric_traits<size_type>::__max
 289:/Library/DaisyToolchain/0.2.0/arm/arm-none-eabi/include/c++/10.3.1/bits/alloc_traits.h **** 	    / sizeof(value_type);
 290:/Library/DaisyToolchain/0.2.0/arm/arm-none-eabi/include/c++/10.3.1/bits/alloc_traits.h **** 	}
 291:/Library/DaisyToolchain/0.2.0/arm/arm-none-eabi/include/c++/10.3.1/bits/alloc_traits.h **** 
 292:/Library/DaisyToolchain/0.2.0/arm/arm-none-eabi/include/c++/10.3.1/bits/alloc_traits.h ****       template<typename _Alloc2>
 293:/Library/DaisyToolchain/0.2.0/arm/arm-none-eabi/include/c++/10.3.1/bits/alloc_traits.h **** 	static constexpr auto
 294:/Library/DaisyToolchain/0.2.0/arm/arm-none-eabi/include/c++/10.3.1/bits/alloc_traits.h **** 	_S_select(_Alloc2& __a, int)
 295:/Library/DaisyToolchain/0.2.0/arm/arm-none-eabi/include/c++/10.3.1/bits/alloc_traits.h **** 	-> decltype(__a.select_on_container_copy_construction())
 296:/Library/DaisyToolchain/0.2.0/arm/arm-none-eabi/include/c++/10.3.1/bits/alloc_traits.h **** 	{ return __a.select_on_container_copy_construction(); }
 297:/Library/DaisyToolchain/0.2.0/arm/arm-none-eabi/include/c++/10.3.1/bits/alloc_traits.h **** 
 298:/Library/DaisyToolchain/0.2.0/arm/arm-none-eabi/include/c++/10.3.1/bits/alloc_traits.h ****       template<typename _Alloc2>
ARM GAS  /var/folders/41/s_9r3f9s4p3_9jgx7wszdkhh0000gn/T//ccQQceQd.s 			page 42


 299:/Library/DaisyToolchain/0.2.0/arm/arm-none-eabi/include/c++/10.3.1/bits/alloc_traits.h **** 	static constexpr _Alloc2
 300:/Library/DaisyToolchain/0.2.0/arm/arm-none-eabi/include/c++/10.3.1/bits/alloc_traits.h **** 	_S_select(_Alloc2& __a, ...)
 301:/Library/DaisyToolchain/0.2.0/arm/arm-none-eabi/include/c++/10.3.1/bits/alloc_traits.h **** 	{ return __a; }
 302:/Library/DaisyToolchain/0.2.0/arm/arm-none-eabi/include/c++/10.3.1/bits/alloc_traits.h **** 
 303:/Library/DaisyToolchain/0.2.0/arm/arm-none-eabi/include/c++/10.3.1/bits/alloc_traits.h ****     public:
 304:/Library/DaisyToolchain/0.2.0/arm/arm-none-eabi/include/c++/10.3.1/bits/alloc_traits.h **** 
 305:/Library/DaisyToolchain/0.2.0/arm/arm-none-eabi/include/c++/10.3.1/bits/alloc_traits.h ****       /**
 306:/Library/DaisyToolchain/0.2.0/arm/arm-none-eabi/include/c++/10.3.1/bits/alloc_traits.h ****        *  @brief  Allocate memory.
 307:/Library/DaisyToolchain/0.2.0/arm/arm-none-eabi/include/c++/10.3.1/bits/alloc_traits.h ****        *  @param  __a  An allocator.
 308:/Library/DaisyToolchain/0.2.0/arm/arm-none-eabi/include/c++/10.3.1/bits/alloc_traits.h ****        *  @param  __n  The number of objects to allocate space for.
 309:/Library/DaisyToolchain/0.2.0/arm/arm-none-eabi/include/c++/10.3.1/bits/alloc_traits.h ****        *
 310:/Library/DaisyToolchain/0.2.0/arm/arm-none-eabi/include/c++/10.3.1/bits/alloc_traits.h ****        *  Calls @c a.allocate(n)
 311:/Library/DaisyToolchain/0.2.0/arm/arm-none-eabi/include/c++/10.3.1/bits/alloc_traits.h ****       */
 312:/Library/DaisyToolchain/0.2.0/arm/arm-none-eabi/include/c++/10.3.1/bits/alloc_traits.h ****       _GLIBCXX_NODISCARD static _GLIBCXX20_CONSTEXPR pointer
 313:/Library/DaisyToolchain/0.2.0/arm/arm-none-eabi/include/c++/10.3.1/bits/alloc_traits.h ****       allocate(_Alloc& __a, size_type __n)
 314:/Library/DaisyToolchain/0.2.0/arm/arm-none-eabi/include/c++/10.3.1/bits/alloc_traits.h ****       { return __a.allocate(__n); }
 315:/Library/DaisyToolchain/0.2.0/arm/arm-none-eabi/include/c++/10.3.1/bits/alloc_traits.h **** 
 316:/Library/DaisyToolchain/0.2.0/arm/arm-none-eabi/include/c++/10.3.1/bits/alloc_traits.h ****       /**
 317:/Library/DaisyToolchain/0.2.0/arm/arm-none-eabi/include/c++/10.3.1/bits/alloc_traits.h ****        *  @brief  Allocate memory.
 318:/Library/DaisyToolchain/0.2.0/arm/arm-none-eabi/include/c++/10.3.1/bits/alloc_traits.h ****        *  @param  __a  An allocator.
 319:/Library/DaisyToolchain/0.2.0/arm/arm-none-eabi/include/c++/10.3.1/bits/alloc_traits.h ****        *  @param  __n  The number of objects to allocate space for.
 320:/Library/DaisyToolchain/0.2.0/arm/arm-none-eabi/include/c++/10.3.1/bits/alloc_traits.h ****        *  @param  __hint Aid to locality.
 321:/Library/DaisyToolchain/0.2.0/arm/arm-none-eabi/include/c++/10.3.1/bits/alloc_traits.h ****        *  @return Memory of suitable size and alignment for @a n objects
 322:/Library/DaisyToolchain/0.2.0/arm/arm-none-eabi/include/c++/10.3.1/bits/alloc_traits.h ****        *          of type @c value_type
 323:/Library/DaisyToolchain/0.2.0/arm/arm-none-eabi/include/c++/10.3.1/bits/alloc_traits.h ****        *
 324:/Library/DaisyToolchain/0.2.0/arm/arm-none-eabi/include/c++/10.3.1/bits/alloc_traits.h ****        *  Returns <tt> a.allocate(n, hint) </tt> if that expression is
 325:/Library/DaisyToolchain/0.2.0/arm/arm-none-eabi/include/c++/10.3.1/bits/alloc_traits.h ****        *  well-formed, otherwise returns @c a.allocate(n)
 326:/Library/DaisyToolchain/0.2.0/arm/arm-none-eabi/include/c++/10.3.1/bits/alloc_traits.h ****       */
 327:/Library/DaisyToolchain/0.2.0/arm/arm-none-eabi/include/c++/10.3.1/bits/alloc_traits.h ****       _GLIBCXX_NODISCARD static _GLIBCXX20_CONSTEXPR pointer
 328:/Library/DaisyToolchain/0.2.0/arm/arm-none-eabi/include/c++/10.3.1/bits/alloc_traits.h ****       allocate(_Alloc& __a, size_type __n, const_void_pointer __hint)
 329:/Library/DaisyToolchain/0.2.0/arm/arm-none-eabi/include/c++/10.3.1/bits/alloc_traits.h ****       { return _S_allocate(__a, __n, __hint, 0); }
 330:/Library/DaisyToolchain/0.2.0/arm/arm-none-eabi/include/c++/10.3.1/bits/alloc_traits.h **** 
 331:/Library/DaisyToolchain/0.2.0/arm/arm-none-eabi/include/c++/10.3.1/bits/alloc_traits.h ****       /**
 332:/Library/DaisyToolchain/0.2.0/arm/arm-none-eabi/include/c++/10.3.1/bits/alloc_traits.h ****        *  @brief  Deallocate memory.
 333:/Library/DaisyToolchain/0.2.0/arm/arm-none-eabi/include/c++/10.3.1/bits/alloc_traits.h ****        *  @param  __a  An allocator.
 334:/Library/DaisyToolchain/0.2.0/arm/arm-none-eabi/include/c++/10.3.1/bits/alloc_traits.h ****        *  @param  __p  Pointer to the memory to deallocate.
 335:/Library/DaisyToolchain/0.2.0/arm/arm-none-eabi/include/c++/10.3.1/bits/alloc_traits.h ****        *  @param  __n  The number of objects space was allocated for.
 336:/Library/DaisyToolchain/0.2.0/arm/arm-none-eabi/include/c++/10.3.1/bits/alloc_traits.h ****        *
 337:/Library/DaisyToolchain/0.2.0/arm/arm-none-eabi/include/c++/10.3.1/bits/alloc_traits.h ****        *  Calls <tt> a.deallocate(p, n) </tt>
 338:/Library/DaisyToolchain/0.2.0/arm/arm-none-eabi/include/c++/10.3.1/bits/alloc_traits.h ****       */
 339:/Library/DaisyToolchain/0.2.0/arm/arm-none-eabi/include/c++/10.3.1/bits/alloc_traits.h ****       static _GLIBCXX20_CONSTEXPR void
 340:/Library/DaisyToolchain/0.2.0/arm/arm-none-eabi/include/c++/10.3.1/bits/alloc_traits.h ****       deallocate(_Alloc& __a, pointer __p, size_type __n)
 341:/Library/DaisyToolchain/0.2.0/arm/arm-none-eabi/include/c++/10.3.1/bits/alloc_traits.h ****       { __a.deallocate(__p, __n); }
 342:/Library/DaisyToolchain/0.2.0/arm/arm-none-eabi/include/c++/10.3.1/bits/alloc_traits.h **** 
 343:/Library/DaisyToolchain/0.2.0/arm/arm-none-eabi/include/c++/10.3.1/bits/alloc_traits.h ****       /**
 344:/Library/DaisyToolchain/0.2.0/arm/arm-none-eabi/include/c++/10.3.1/bits/alloc_traits.h ****        *  @brief  Construct an object of type `_Tp`
 345:/Library/DaisyToolchain/0.2.0/arm/arm-none-eabi/include/c++/10.3.1/bits/alloc_traits.h ****        *  @param  __a  An allocator.
 346:/Library/DaisyToolchain/0.2.0/arm/arm-none-eabi/include/c++/10.3.1/bits/alloc_traits.h ****        *  @param  __p  Pointer to memory of suitable size and alignment for Tp
 347:/Library/DaisyToolchain/0.2.0/arm/arm-none-eabi/include/c++/10.3.1/bits/alloc_traits.h ****        *  @param  __args Constructor arguments.
 348:/Library/DaisyToolchain/0.2.0/arm/arm-none-eabi/include/c++/10.3.1/bits/alloc_traits.h ****        *
 349:/Library/DaisyToolchain/0.2.0/arm/arm-none-eabi/include/c++/10.3.1/bits/alloc_traits.h ****        *  Calls <tt> __a.construct(__p, std::forward<Args>(__args)...) </tt>
 350:/Library/DaisyToolchain/0.2.0/arm/arm-none-eabi/include/c++/10.3.1/bits/alloc_traits.h ****        *  if that expression is well-formed, otherwise uses placement-new
 351:/Library/DaisyToolchain/0.2.0/arm/arm-none-eabi/include/c++/10.3.1/bits/alloc_traits.h ****        *  to construct an object of type @a _Tp at location @a __p from the
 352:/Library/DaisyToolchain/0.2.0/arm/arm-none-eabi/include/c++/10.3.1/bits/alloc_traits.h ****        *  arguments @a __args...
 353:/Library/DaisyToolchain/0.2.0/arm/arm-none-eabi/include/c++/10.3.1/bits/alloc_traits.h ****       */
 354:/Library/DaisyToolchain/0.2.0/arm/arm-none-eabi/include/c++/10.3.1/bits/alloc_traits.h ****       template<typename _Tp, typename... _Args>
 355:/Library/DaisyToolchain/0.2.0/arm/arm-none-eabi/include/c++/10.3.1/bits/alloc_traits.h **** 	static _GLIBCXX20_CONSTEXPR auto
ARM GAS  /var/folders/41/s_9r3f9s4p3_9jgx7wszdkhh0000gn/T//ccQQceQd.s 			page 43


 356:/Library/DaisyToolchain/0.2.0/arm/arm-none-eabi/include/c++/10.3.1/bits/alloc_traits.h **** 	construct(_Alloc& __a, _Tp* __p, _Args&&... __args)
 357:/Library/DaisyToolchain/0.2.0/arm/arm-none-eabi/include/c++/10.3.1/bits/alloc_traits.h **** 	noexcept(noexcept(_S_construct(__a, __p,
 358:/Library/DaisyToolchain/0.2.0/arm/arm-none-eabi/include/c++/10.3.1/bits/alloc_traits.h **** 				       std::forward<_Args>(__args)...)))
 359:/Library/DaisyToolchain/0.2.0/arm/arm-none-eabi/include/c++/10.3.1/bits/alloc_traits.h **** 	-> decltype(_S_construct(__a, __p, std::forward<_Args>(__args)...))
 360:/Library/DaisyToolchain/0.2.0/arm/arm-none-eabi/include/c++/10.3.1/bits/alloc_traits.h **** 	{ _S_construct(__a, __p, std::forward<_Args>(__args)...); }
 361:/Library/DaisyToolchain/0.2.0/arm/arm-none-eabi/include/c++/10.3.1/bits/alloc_traits.h **** 
 362:/Library/DaisyToolchain/0.2.0/arm/arm-none-eabi/include/c++/10.3.1/bits/alloc_traits.h ****       /**
 363:/Library/DaisyToolchain/0.2.0/arm/arm-none-eabi/include/c++/10.3.1/bits/alloc_traits.h ****        *  @brief  Destroy an object of type @a _Tp
 364:/Library/DaisyToolchain/0.2.0/arm/arm-none-eabi/include/c++/10.3.1/bits/alloc_traits.h ****        *  @param  __a  An allocator.
 365:/Library/DaisyToolchain/0.2.0/arm/arm-none-eabi/include/c++/10.3.1/bits/alloc_traits.h ****        *  @param  __p  Pointer to the object to destroy
 366:/Library/DaisyToolchain/0.2.0/arm/arm-none-eabi/include/c++/10.3.1/bits/alloc_traits.h ****        *
 367:/Library/DaisyToolchain/0.2.0/arm/arm-none-eabi/include/c++/10.3.1/bits/alloc_traits.h ****        *  Calls @c __a.destroy(__p) if that expression is well-formed,
 368:/Library/DaisyToolchain/0.2.0/arm/arm-none-eabi/include/c++/10.3.1/bits/alloc_traits.h ****        *  otherwise calls @c __p->~_Tp()
 369:/Library/DaisyToolchain/0.2.0/arm/arm-none-eabi/include/c++/10.3.1/bits/alloc_traits.h ****       */
 370:/Library/DaisyToolchain/0.2.0/arm/arm-none-eabi/include/c++/10.3.1/bits/alloc_traits.h ****       template<typename _Tp>
 371:/Library/DaisyToolchain/0.2.0/arm/arm-none-eabi/include/c++/10.3.1/bits/alloc_traits.h **** 	static _GLIBCXX20_CONSTEXPR void
 372:/Library/DaisyToolchain/0.2.0/arm/arm-none-eabi/include/c++/10.3.1/bits/alloc_traits.h **** 	destroy(_Alloc& __a, _Tp* __p)
 373:/Library/DaisyToolchain/0.2.0/arm/arm-none-eabi/include/c++/10.3.1/bits/alloc_traits.h **** 	noexcept(noexcept(_S_destroy(__a, __p, 0)))
 374:/Library/DaisyToolchain/0.2.0/arm/arm-none-eabi/include/c++/10.3.1/bits/alloc_traits.h **** 	{ _S_destroy(__a, __p, 0); }
 375:/Library/DaisyToolchain/0.2.0/arm/arm-none-eabi/include/c++/10.3.1/bits/alloc_traits.h **** 
 376:/Library/DaisyToolchain/0.2.0/arm/arm-none-eabi/include/c++/10.3.1/bits/alloc_traits.h ****       /**
 377:/Library/DaisyToolchain/0.2.0/arm/arm-none-eabi/include/c++/10.3.1/bits/alloc_traits.h ****        *  @brief  The maximum supported allocation size
 378:/Library/DaisyToolchain/0.2.0/arm/arm-none-eabi/include/c++/10.3.1/bits/alloc_traits.h ****        *  @param  __a  An allocator.
 379:/Library/DaisyToolchain/0.2.0/arm/arm-none-eabi/include/c++/10.3.1/bits/alloc_traits.h ****        *  @return @c __a.max_size() or @c numeric_limits<size_type>::max()
 380:/Library/DaisyToolchain/0.2.0/arm/arm-none-eabi/include/c++/10.3.1/bits/alloc_traits.h ****        *
 381:/Library/DaisyToolchain/0.2.0/arm/arm-none-eabi/include/c++/10.3.1/bits/alloc_traits.h ****        *  Returns @c __a.max_size() if that expression is well-formed,
 382:/Library/DaisyToolchain/0.2.0/arm/arm-none-eabi/include/c++/10.3.1/bits/alloc_traits.h ****        *  otherwise returns @c numeric_limits<size_type>::max()
 383:/Library/DaisyToolchain/0.2.0/arm/arm-none-eabi/include/c++/10.3.1/bits/alloc_traits.h ****       */
 384:/Library/DaisyToolchain/0.2.0/arm/arm-none-eabi/include/c++/10.3.1/bits/alloc_traits.h ****       static _GLIBCXX20_CONSTEXPR size_type
 385:/Library/DaisyToolchain/0.2.0/arm/arm-none-eabi/include/c++/10.3.1/bits/alloc_traits.h ****       max_size(const _Alloc& __a) noexcept
 386:/Library/DaisyToolchain/0.2.0/arm/arm-none-eabi/include/c++/10.3.1/bits/alloc_traits.h ****       { return _S_max_size(__a, 0); }
 387:/Library/DaisyToolchain/0.2.0/arm/arm-none-eabi/include/c++/10.3.1/bits/alloc_traits.h **** 
 388:/Library/DaisyToolchain/0.2.0/arm/arm-none-eabi/include/c++/10.3.1/bits/alloc_traits.h ****       /**
 389:/Library/DaisyToolchain/0.2.0/arm/arm-none-eabi/include/c++/10.3.1/bits/alloc_traits.h ****        *  @brief  Obtain an allocator to use when copying a container.
 390:/Library/DaisyToolchain/0.2.0/arm/arm-none-eabi/include/c++/10.3.1/bits/alloc_traits.h ****        *  @param  __rhs  An allocator.
 391:/Library/DaisyToolchain/0.2.0/arm/arm-none-eabi/include/c++/10.3.1/bits/alloc_traits.h ****        *  @return @c __rhs.select_on_container_copy_construction() or @a __rhs
 392:/Library/DaisyToolchain/0.2.0/arm/arm-none-eabi/include/c++/10.3.1/bits/alloc_traits.h ****        *
 393:/Library/DaisyToolchain/0.2.0/arm/arm-none-eabi/include/c++/10.3.1/bits/alloc_traits.h ****        *  Returns @c __rhs.select_on_container_copy_construction() if that
 394:/Library/DaisyToolchain/0.2.0/arm/arm-none-eabi/include/c++/10.3.1/bits/alloc_traits.h ****        *  expression is well-formed, otherwise returns @a __rhs
 395:/Library/DaisyToolchain/0.2.0/arm/arm-none-eabi/include/c++/10.3.1/bits/alloc_traits.h ****       */
 396:/Library/DaisyToolchain/0.2.0/arm/arm-none-eabi/include/c++/10.3.1/bits/alloc_traits.h ****       static _GLIBCXX20_CONSTEXPR _Alloc
 397:/Library/DaisyToolchain/0.2.0/arm/arm-none-eabi/include/c++/10.3.1/bits/alloc_traits.h ****       select_on_container_copy_construction(const _Alloc& __rhs)
 398:/Library/DaisyToolchain/0.2.0/arm/arm-none-eabi/include/c++/10.3.1/bits/alloc_traits.h ****       { return _S_select(__rhs, 0); }
 399:/Library/DaisyToolchain/0.2.0/arm/arm-none-eabi/include/c++/10.3.1/bits/alloc_traits.h ****     };
 400:/Library/DaisyToolchain/0.2.0/arm/arm-none-eabi/include/c++/10.3.1/bits/alloc_traits.h **** 
 401:/Library/DaisyToolchain/0.2.0/arm/arm-none-eabi/include/c++/10.3.1/bits/alloc_traits.h **** #if __cplusplus > 201703L
 402:/Library/DaisyToolchain/0.2.0/arm/arm-none-eabi/include/c++/10.3.1/bits/alloc_traits.h **** # define __cpp_lib_constexpr_dynamic_alloc 201907L
 403:/Library/DaisyToolchain/0.2.0/arm/arm-none-eabi/include/c++/10.3.1/bits/alloc_traits.h **** #endif
 404:/Library/DaisyToolchain/0.2.0/arm/arm-none-eabi/include/c++/10.3.1/bits/alloc_traits.h **** 
 405:/Library/DaisyToolchain/0.2.0/arm/arm-none-eabi/include/c++/10.3.1/bits/alloc_traits.h ****   /// Partial specialization for std::allocator.
 406:/Library/DaisyToolchain/0.2.0/arm/arm-none-eabi/include/c++/10.3.1/bits/alloc_traits.h ****   template<typename _Tp>
 407:/Library/DaisyToolchain/0.2.0/arm/arm-none-eabi/include/c++/10.3.1/bits/alloc_traits.h ****     struct allocator_traits<allocator<_Tp>>
 408:/Library/DaisyToolchain/0.2.0/arm/arm-none-eabi/include/c++/10.3.1/bits/alloc_traits.h ****     {
 409:/Library/DaisyToolchain/0.2.0/arm/arm-none-eabi/include/c++/10.3.1/bits/alloc_traits.h ****       /// The allocator type
 410:/Library/DaisyToolchain/0.2.0/arm/arm-none-eabi/include/c++/10.3.1/bits/alloc_traits.h ****       using allocator_type = allocator<_Tp>;
 411:/Library/DaisyToolchain/0.2.0/arm/arm-none-eabi/include/c++/10.3.1/bits/alloc_traits.h **** 
 412:/Library/DaisyToolchain/0.2.0/arm/arm-none-eabi/include/c++/10.3.1/bits/alloc_traits.h ****       /// The allocated type
ARM GAS  /var/folders/41/s_9r3f9s4p3_9jgx7wszdkhh0000gn/T//ccQQceQd.s 			page 44


 413:/Library/DaisyToolchain/0.2.0/arm/arm-none-eabi/include/c++/10.3.1/bits/alloc_traits.h ****       using value_type = _Tp;
 414:/Library/DaisyToolchain/0.2.0/arm/arm-none-eabi/include/c++/10.3.1/bits/alloc_traits.h **** 
 415:/Library/DaisyToolchain/0.2.0/arm/arm-none-eabi/include/c++/10.3.1/bits/alloc_traits.h ****       /// The allocator's pointer type.
 416:/Library/DaisyToolchain/0.2.0/arm/arm-none-eabi/include/c++/10.3.1/bits/alloc_traits.h ****       using pointer = _Tp*;
 417:/Library/DaisyToolchain/0.2.0/arm/arm-none-eabi/include/c++/10.3.1/bits/alloc_traits.h **** 
 418:/Library/DaisyToolchain/0.2.0/arm/arm-none-eabi/include/c++/10.3.1/bits/alloc_traits.h ****       /// The allocator's const pointer type.
 419:/Library/DaisyToolchain/0.2.0/arm/arm-none-eabi/include/c++/10.3.1/bits/alloc_traits.h ****       using const_pointer = const _Tp*;
 420:/Library/DaisyToolchain/0.2.0/arm/arm-none-eabi/include/c++/10.3.1/bits/alloc_traits.h **** 
 421:/Library/DaisyToolchain/0.2.0/arm/arm-none-eabi/include/c++/10.3.1/bits/alloc_traits.h ****       /// The allocator's void pointer type.
 422:/Library/DaisyToolchain/0.2.0/arm/arm-none-eabi/include/c++/10.3.1/bits/alloc_traits.h ****       using void_pointer = void*;
 423:/Library/DaisyToolchain/0.2.0/arm/arm-none-eabi/include/c++/10.3.1/bits/alloc_traits.h **** 
 424:/Library/DaisyToolchain/0.2.0/arm/arm-none-eabi/include/c++/10.3.1/bits/alloc_traits.h ****       /// The allocator's const void pointer type.
 425:/Library/DaisyToolchain/0.2.0/arm/arm-none-eabi/include/c++/10.3.1/bits/alloc_traits.h ****       using const_void_pointer = const void*;
 426:/Library/DaisyToolchain/0.2.0/arm/arm-none-eabi/include/c++/10.3.1/bits/alloc_traits.h **** 
