ARM GAS  /var/folders/41/s_9r3f9s4p3_9jgx7wszdkhh0000gn/T//ccURNtC3.s 			page 1


   1              		.cpu cortex-m7
   2              		.arch armv7e-m
   3              		.fpu fpv5-d16
   4              		.eabi_attribute 28, 1
   5              		.eabi_attribute 20, 1
   6              		.eabi_attribute 21, 1
   7              		.eabi_attribute 23, 3
   8              		.eabi_attribute 24, 1
   9              		.eabi_attribute 25, 1
  10              		.eabi_attribute 26, 1
  11              		.eabi_attribute 30, 2
  12              		.eabi_attribute 34, 1
  13              		.eabi_attribute 18, 4
  14              		.file	"sequencer.cpp"
  15              		.text
  16              	.Ltext0:
  17              		.cfi_sections	.debug_frame
  18              		.section	.text._ZN9Sequencer10AltAButtonEv,"axG",%progbits,_ZN9Sequencer10AltAButtonEv,comdat
  19              		.align	1
  20              		.p2align 2,,3
  21              		.weak	_ZN9Sequencer10AltAButtonEv
  22              		.syntax unified
  23              		.thumb
  24              		.thumb_func
  26              	_ZN9Sequencer10AltAButtonEv:
  27              	.LVL0:
  28              	.LFB4929:
  29              		.file 1 "src/UI/sequencer.h"
   1:src/UI/sequencer.h **** #ifndef sequencer_h
   2:src/UI/sequencer.h **** #define sequencer_h
   3:src/UI/sequencer.h **** 
   4:src/UI/sequencer.h **** #include "menu.h"
   5:src/UI/sequencer.h **** #include "daisy_seed.h"
   6:src/UI/sequencer.h **** #include "../audio/instrumentHandler.h"
   7:src/UI/sequencer.h **** #include "step.h"
   8:src/UI/sequencer.h **** #include "dev/oled_ssd130x.h"
   9:src/UI/sequencer.h **** #include <vector>
  10:src/UI/sequencer.h **** #include <list>
  11:src/UI/sequencer.h **** 
  12:src/UI/sequencer.h **** #define OFF -1
  13:src/UI/sequencer.h **** 
  14:src/UI/sequencer.h **** using namespace daisy;
  15:src/UI/sequencer.h **** using MyOledDisplay = OledDisplay<SSD130xI2c128x64Driver>;
  16:src/UI/sequencer.h **** 
  17:src/UI/sequencer.h **** struct Lane {
  18:src/UI/sequencer.h ****     std::vector<Step*> sequence;
  19:src/UI/sequencer.h ****     int length;
  20:src/UI/sequencer.h **** };
  21:src/UI/sequencer.h **** 
  22:src/UI/sequencer.h **** struct Pattern {
  23:src/UI/sequencer.h ****     Lane* lanes[4];
  24:src/UI/sequencer.h ****     int numLanes;
  25:src/UI/sequencer.h ****     int index;
  26:src/UI/sequencer.h **** };
  27:src/UI/sequencer.h **** 
  28:src/UI/sequencer.h **** class Sequencer : public Menu {
  29:src/UI/sequencer.h **** private:
ARM GAS  /var/folders/41/s_9r3f9s4p3_9jgx7wszdkhh0000gn/T//ccURNtC3.s 			page 2


  30:src/UI/sequencer.h ****     MyOledDisplay* display_;
  31:src/UI/sequencer.h ****     InstrumentHandler* handler_;
  32:src/UI/sequencer.h ****     std::vector<Pattern*> patterns; // holds all the possible patterns made
  33:src/UI/sequencer.h ****     std::vector<int> songOrder; // holds the order of the patterns
  34:src/UI/sequencer.h ****     Pattern* activePattern;
  35:src/UI/sequencer.h ****     int selector[3]; //selector[0] is index of pattern in song order, selector[1] is lane, selector
  36:src/UI/sequencer.h ****     bool playing_;
  37:src/UI/sequencer.h ****     bool stepEdit_;
  38:src/UI/sequencer.h ****     bool song_;
  39:src/UI/sequencer.h ****     float bpm;
  40:src/UI/sequencer.h ****     float timePerTick;
  41:src/UI/sequencer.h ****     char strbuff[20];
  42:src/UI/sequencer.h ****     int laneOffset;
  43:src/UI/sequencer.h ****     Metro tick;
  44:src/UI/sequencer.h ****     
  45:src/UI/sequencer.h ****     void DrawStep(int x, int y, Step* step);
  46:src/UI/sequencer.h ****     void DrawSquare(int x, int y, bool fill);
  47:src/UI/sequencer.h ****     // 1 = left, 2 = right, 3 = up, 4 = down
  48:src/UI/sequencer.h ****     void DrawArrow(int x, int y, int direction); 
  49:src/UI/sequencer.h ****     void GetNoteString(char* strbuff, int note);
  50:src/UI/sequencer.h ****     void GetFxString(char* strbuff, int fx, int fxAmount);
  51:src/UI/sequencer.h ****     void InitStep(Step* step);
  52:src/UI/sequencer.h **** 
  53:src/UI/sequencer.h ****     void NextStep();
  54:src/UI/sequencer.h ****     void PreviousStep();
  55:src/UI/sequencer.h ****     void NextLane();
  56:src/UI/sequencer.h ****     void PreviousLane();
  57:src/UI/sequencer.h ****     void NextPattern();
  58:src/UI/sequencer.h ****     void PreviousPattern();
  59:src/UI/sequencer.h **** 
  60:src/UI/sequencer.h ****     void UpdateDisplay();
  61:src/UI/sequencer.h **** 
  62:src/UI/sequencer.h ****     void NewPattern();
  63:src/UI/sequencer.h **** 
  64:src/UI/sequencer.h **** public:
  65:src/UI/sequencer.h ****     Sequencer(){};
  66:src/UI/sequencer.h **** 
  67:src/UI/sequencer.h ****     // to be called continuously from the audio callback
  68:src/UI/sequencer.h ****     void Update();
  69:src/UI/sequencer.h **** 
  70:src/UI/sequencer.h ****     void SetBPM(float bpm_) {
  71:src/UI/sequencer.h ****         bpm = bpm_;
  72:src/UI/sequencer.h ****         tick.SetFreq((bpm / 60.0f) * 4.0f);
  73:src/UI/sequencer.h ****     }
  74:src/UI/sequencer.h ****     
  75:src/UI/sequencer.h ****     // Initializes the sequencer
  76:src/UI/sequencer.h ****     // will need to be passed 
  77:src/UI/sequencer.h ****     void Init(MyOledDisplay* display, InstrumentHandler* handler, float samplerate) {
  78:src/UI/sequencer.h ****         display_ = display;
  79:src/UI/sequencer.h ****         handler_ = handler;
  80:src/UI/sequencer.h ****         playing_ = false;
  81:src/UI/sequencer.h ****         stepEdit_ = false;
  82:src/UI/sequencer.h ****         song_ = false;
  83:src/UI/sequencer.h ****         songOrder.push_back(0);
  84:src/UI/sequencer.h ****         selector[0] = 0;
  85:src/UI/sequencer.h ****         selector[1] = 0;
  86:src/UI/sequencer.h ****         selector[2] = 0;
ARM GAS  /var/folders/41/s_9r3f9s4p3_9jgx7wszdkhh0000gn/T//ccURNtC3.s 			page 3


  87:src/UI/sequencer.h ****         tick.Init(1.0f, samplerate);
  88:src/UI/sequencer.h ****         SetBPM(128);
  89:src/UI/sequencer.h ****         NewPattern();
  90:src/UI/sequencer.h ****         laneOffset = 0;
  91:src/UI/sequencer.h ****         UpdateDisplay();
  92:src/UI/sequencer.h ****     }
  93:src/UI/sequencer.h ****     
  94:src/UI/sequencer.h ****     // sequencer controls
  95:src/UI/sequencer.h ****     void AButton();
  96:src/UI/sequencer.h ****     void BButton();
  97:src/UI/sequencer.h ****     void UpButton();
  98:src/UI/sequencer.h ****     void DownButton();
  99:src/UI/sequencer.h ****     void LeftButton();
 100:src/UI/sequencer.h ****     void RightButton();
 101:src/UI/sequencer.h ****     void PlayButton();
 102:src/UI/sequencer.h **** 
 103:src/UI/sequencer.h ****     void AltAButton(){};
  30              		.loc 1 103 10 view -0
  31              		.cfi_startproc
  32              		@ args = 0, pretend = 0, frame = 0
  33              		@ frame_needed = 0, uses_anonymous_args = 0
  34              		@ link register save eliminated.
  35              		.loc 1 103 23 is_stmt 0 view .LVU1
  36 0000 7047     		bx	lr
  37              		.cfi_endproc
  38              	.LFE4929:
  40 0002 00BF     		.section	.text._ZN9Sequencer10AltBButtonEv,"axG",%progbits,_ZN9Sequencer10AltBButtonEv,comdat
  41              		.align	1
  42              		.p2align 2,,3
  43              		.weak	_ZN9Sequencer10AltBButtonEv
  44              		.syntax unified
  45              		.thumb
  46              		.thumb_func
  48              	_ZN9Sequencer10AltBButtonEv:
  49              	.LVL1:
  50              	.LFB4930:
 104:src/UI/sequencer.h ****     void AltBButton(){};
  51              		.loc 1 104 10 is_stmt 1 view -0
  52              		.cfi_startproc
  53              		@ args = 0, pretend = 0, frame = 0
  54              		@ frame_needed = 0, uses_anonymous_args = 0
  55              		@ link register save eliminated.
  56              		.loc 1 104 23 is_stmt 0 view .LVU3
  57 0000 7047     		bx	lr
  58              		.cfi_endproc
  59              	.LFE4930:
  61 0002 00BF     		.section	.text._ZN9Sequencer10PlayButtonEv,"ax",%progbits
  62              		.align	1
  63              		.p2align 2,,3
  64              		.global	_ZN9Sequencer10PlayButtonEv
  65              		.syntax unified
  66              		.thumb
  67              		.thumb_func
  69              	_ZN9Sequencer10PlayButtonEv:
  70              	.LVL2:
  71              	.LFB4953:
  72              		.file 2 "src/UI/sequencer.cpp"
ARM GAS  /var/folders/41/s_9r3f9s4p3_9jgx7wszdkhh0000gn/T//ccURNtC3.s 			page 4


   1:src/UI/sequencer.cpp **** #include "sequencer.h"
   2:src/UI/sequencer.cpp **** 
   3:src/UI/sequencer.cpp **** void Sequencer::NewPattern() {
   4:src/UI/sequencer.cpp ****     patterns.push_back(new Pattern);
   5:src/UI/sequencer.cpp ****     patterns.back()->index = patterns.size() - 1;
   6:src/UI/sequencer.cpp ****     
   7:src/UI/sequencer.cpp ****     songOrder[selector[0]] = patterns.back()->index;
   8:src/UI/sequencer.cpp **** 
   9:src/UI/sequencer.cpp ****     activePattern = patterns.at(songOrder[selector[0]]);
  10:src/UI/sequencer.cpp ****     activePattern->numLanes = 4;
  11:src/UI/sequencer.cpp **** 
  12:src/UI/sequencer.cpp ****     for (int i = 0; i < activePattern->numLanes; i ++) {
  13:src/UI/sequencer.cpp ****         activePattern->lanes[i] = new Lane;
  14:src/UI/sequencer.cpp ****         activePattern->lanes[i]->length = 32;
  15:src/UI/sequencer.cpp ****         for (int j = 0; j < activePattern->lanes[i]->length; j++) {
  16:src/UI/sequencer.cpp ****             activePattern->lanes[i]->sequence.push_back(new Step);
  17:src/UI/sequencer.cpp ****             InitStep(activePattern->lanes[i]->sequence.at(j));
  18:src/UI/sequencer.cpp ****         }
  19:src/UI/sequencer.cpp ****     }
  20:src/UI/sequencer.cpp **** }
  21:src/UI/sequencer.cpp **** 
  22:src/UI/sequencer.cpp **** void Sequencer::InitStep(Step* step) {
  23:src/UI/sequencer.cpp ****     step->note = 48;
  24:src/UI/sequencer.cpp ****     step->instrument = -1;
  25:src/UI/sequencer.cpp ****     step->fx = 0;
  26:src/UI/sequencer.cpp ****     step->fxAmount = 0;
  27:src/UI/sequencer.cpp ****     step->selected = false;
  28:src/UI/sequencer.cpp ****     step->paramEdit = Step::i;
  29:src/UI/sequencer.cpp **** }
  30:src/UI/sequencer.cpp **** 
  31:src/UI/sequencer.cpp **** void Sequencer::DrawStep(int x, int y, Step* step) {
  32:src/UI/sequencer.cpp ****     // Writing instrument
  33:src/UI/sequencer.cpp ****     display_->SetCursor(x + 2, y + 2);
  34:src/UI/sequencer.cpp ****     if (step->instrument < 0 || step->note < 0) sprintf(strbuff, "--");
  35:src/UI/sequencer.cpp ****     else if (step->instrument < 10) sprintf(strbuff, "0%d", step->instrument);
  36:src/UI/sequencer.cpp ****     else sprintf(strbuff, "%d", step->instrument);
  37:src/UI/sequencer.cpp ****     display_->WriteString(strbuff, Font_4x6, true);
  38:src/UI/sequencer.cpp **** 
  39:src/UI/sequencer.cpp ****     // Writing note
  40:src/UI/sequencer.cpp ****     display_->SetCursor(x + 13, y + 2);
  41:src/UI/sequencer.cpp ****     if (step->instrument < 0) sprintf(strbuff, "---");
  42:src/UI/sequencer.cpp ****     else GetNoteString(strbuff, step->note);
  43:src/UI/sequencer.cpp ****     display_->WriteString(strbuff, Font_4x6, true);
  44:src/UI/sequencer.cpp **** 
  45:src/UI/sequencer.cpp ****     // Writing fx
  46:src/UI/sequencer.cpp ****     display_->SetCursor(x + 28, y + 2);
  47:src/UI/sequencer.cpp ****     if (step->instrument < 0 || step->note < 0) sprintf(strbuff, "---");
  48:src/UI/sequencer.cpp ****     else GetFxString(strbuff, step->fx, step->fxAmount);
  49:src/UI/sequencer.cpp ****     display_->WriteString(strbuff, Font_4x6, true);
  50:src/UI/sequencer.cpp **** 
  51:src/UI/sequencer.cpp ****     // Drawing select things
  52:src/UI/sequencer.cpp ****     if (step->selected) {
  53:src/UI/sequencer.cpp ****         display_->DrawPixel(x, y, true);
  54:src/UI/sequencer.cpp ****         display_->DrawPixel(x+1, y, true);
  55:src/UI/sequencer.cpp ****         display_->DrawPixel(x, y+1, true);
  56:src/UI/sequencer.cpp **** 
  57:src/UI/sequencer.cpp ****         display_->DrawPixel(x+40, y, true);
ARM GAS  /var/folders/41/s_9r3f9s4p3_9jgx7wszdkhh0000gn/T//ccURNtC3.s 			page 5


  58:src/UI/sequencer.cpp ****         display_->DrawPixel(x+39, y, true);
  59:src/UI/sequencer.cpp ****         display_->DrawPixel(x+40, y+1, true);
  60:src/UI/sequencer.cpp **** 
  61:src/UI/sequencer.cpp ****         display_->DrawPixel(x, y+8, true);
  62:src/UI/sequencer.cpp ****         display_->DrawPixel(x+1, y+8, true);
  63:src/UI/sequencer.cpp ****         display_->DrawPixel(x, y+7, true);
  64:src/UI/sequencer.cpp **** 
  65:src/UI/sequencer.cpp ****         display_->DrawPixel(x+40, y+8, true);
  66:src/UI/sequencer.cpp ****         display_->DrawPixel(x+39, y+8, true);
  67:src/UI/sequencer.cpp ****         display_->DrawPixel(x+40, y+7, true);
  68:src/UI/sequencer.cpp **** 
  69:src/UI/sequencer.cpp ****         if (stepEdit_) {
  70:src/UI/sequencer.cpp ****             int xOffset = 0;
  71:src/UI/sequencer.cpp ****             if (step->paramEdit == Step::i) xOffset = 5;
  72:src/UI/sequencer.cpp ****             else if (step->paramEdit == Step::n) xOffset = 17;
  73:src/UI/sequencer.cpp ****             else if (step->paramEdit == Step::f) xOffset = 29;
  74:src/UI/sequencer.cpp ****             else if (step->paramEdit == Step::fa) xOffset = 35;
  75:src/UI/sequencer.cpp **** 
  76:src/UI/sequencer.cpp ****             display_->DrawPixel(x + xOffset, y - 1, true);
  77:src/UI/sequencer.cpp ****             display_->DrawPixel(x + xOffset + 1, y, true);
  78:src/UI/sequencer.cpp ****             display_->DrawPixel(x + xOffset - 1, y, true);
  79:src/UI/sequencer.cpp **** 
  80:src/UI/sequencer.cpp ****             display_->DrawPixel(x + xOffset, y + 9, true);
  81:src/UI/sequencer.cpp ****             display_->DrawPixel(x + xOffset + 1, y + 8, true);
  82:src/UI/sequencer.cpp ****             display_->DrawPixel(x + xOffset - 1, y + 8, true);
  83:src/UI/sequencer.cpp ****         }
  84:src/UI/sequencer.cpp ****     }
  85:src/UI/sequencer.cpp **** 
  86:src/UI/sequencer.cpp **** }
  87:src/UI/sequencer.cpp **** 
  88:src/UI/sequencer.cpp **** void Sequencer::DrawSquare(int x, int y, bool fill) {
  89:src/UI/sequencer.cpp ****     if (fill) {
  90:src/UI/sequencer.cpp ****         for (int i = x; i < x + 7; i++) {
  91:src/UI/sequencer.cpp ****             for (int j = y; j < y + 7; j++) {
  92:src/UI/sequencer.cpp ****                 display_->DrawPixel(i, j, true);
  93:src/UI/sequencer.cpp ****             }
  94:src/UI/sequencer.cpp ****         }
  95:src/UI/sequencer.cpp ****     } else {
  96:src/UI/sequencer.cpp ****         display_->DrawPixel(x, y, true);
  97:src/UI/sequencer.cpp ****         display_->DrawPixel(x+1, y, true);
  98:src/UI/sequencer.cpp ****         display_->DrawPixel(x, y+1, true);
  99:src/UI/sequencer.cpp **** 
 100:src/UI/sequencer.cpp ****         display_->DrawPixel(x+6, y, true);
 101:src/UI/sequencer.cpp ****         display_->DrawPixel(x+5, y, true);
 102:src/UI/sequencer.cpp ****         display_->DrawPixel(x+6, y+1, true);
 103:src/UI/sequencer.cpp **** 
 104:src/UI/sequencer.cpp ****         display_->DrawPixel(x, y+6, true);
 105:src/UI/sequencer.cpp ****         display_->DrawPixel(x+1, y+6, true);
 106:src/UI/sequencer.cpp ****         display_->DrawPixel(x, y+5, true);
 107:src/UI/sequencer.cpp **** 
 108:src/UI/sequencer.cpp ****         display_->DrawPixel(x+6, y+6, true);
 109:src/UI/sequencer.cpp ****         display_->DrawPixel(x+5, y+6, true);
 110:src/UI/sequencer.cpp ****         display_->DrawPixel(x+6, y+5, true);
 111:src/UI/sequencer.cpp ****     }
 112:src/UI/sequencer.cpp **** }
 113:src/UI/sequencer.cpp **** 
 114:src/UI/sequencer.cpp **** void Sequencer::DrawArrow(int x, int y, int direction) {
ARM GAS  /var/folders/41/s_9r3f9s4p3_9jgx7wszdkhh0000gn/T//ccURNtC3.s 			page 6


 115:src/UI/sequencer.cpp ****     for (int i = 0; i < 3; i++) {
 116:src/UI/sequencer.cpp ****         if (direction == 1) {
 117:src/UI/sequencer.cpp ****             display_->DrawPixel(x + i, y + i, true);
 118:src/UI/sequencer.cpp ****             display_->DrawPixel(x + i, y - i, true);
 119:src/UI/sequencer.cpp ****         } else if (direction == 2) {
 120:src/UI/sequencer.cpp ****             display_->DrawPixel(x - i, y + i, true);
 121:src/UI/sequencer.cpp ****             display_->DrawPixel(x - i, y - i, true);
 122:src/UI/sequencer.cpp ****         } else if (direction == 3) {
 123:src/UI/sequencer.cpp ****             display_->DrawPixel(x + i, y + i, true);
 124:src/UI/sequencer.cpp ****             display_->DrawPixel(x - i, y + i, true);
 125:src/UI/sequencer.cpp ****         } else if (direction == 4) {
 126:src/UI/sequencer.cpp ****             display_->DrawPixel(x + i, y - i, true);
 127:src/UI/sequencer.cpp ****             display_->DrawPixel(x - i, y - i, true);
 128:src/UI/sequencer.cpp ****         }
 129:src/UI/sequencer.cpp ****     }
 130:src/UI/sequencer.cpp **** }
 131:src/UI/sequencer.cpp **** 
 132:src/UI/sequencer.cpp **** void Sequencer::GetFxString(char* strbuff, int fx, int fxAmount) {
 133:src/UI/sequencer.cpp ****     if (fx == 0) sprintf(strbuff, "---");
 134:src/UI/sequencer.cpp ****     else {
 135:src/UI/sequencer.cpp ****         if (fx == 1) sprintf(strbuff, "R");
 136:src/UI/sequencer.cpp ****         else if (fx == 2) sprintf(strbuff, "U");
 137:src/UI/sequencer.cpp ****         else if (fx == 3) sprintf(strbuff, "D");
 138:src/UI/sequencer.cpp ****         else if (fx == 4) sprintf(strbuff, "I");
 139:src/UI/sequencer.cpp ****         else if (fx == 5) sprintf(strbuff, "O");
 140:src/UI/sequencer.cpp ****         else sprintf(strbuff, "F");
 141:src/UI/sequencer.cpp **** 
 142:src/UI/sequencer.cpp ****         if (fxAmount < 10) sprintf(strbuff + strlen(strbuff), "-%d", fxAmount);
 143:src/UI/sequencer.cpp ****         else sprintf(strbuff + strlen(strbuff), "%d", fxAmount);
 144:src/UI/sequencer.cpp ****     }
 145:src/UI/sequencer.cpp **** }
 146:src/UI/sequencer.cpp **** 
 147:src/UI/sequencer.cpp **** void Sequencer::GetNoteString(char* strbuff, int note) {
 148:src/UI/sequencer.cpp ****     int root = note % 12;
 149:src/UI/sequencer.cpp ****     int octave = (note - root) / 12;
 150:src/UI/sequencer.cpp ****     switch (root) {
 151:src/UI/sequencer.cpp ****         case 0: sprintf(strbuff, "C-%d", octave); break;
 152:src/UI/sequencer.cpp ****         case 1: sprintf(strbuff, "Db%d", octave); break;
 153:src/UI/sequencer.cpp ****         case 2: sprintf(strbuff, "D-%d", octave); break;
 154:src/UI/sequencer.cpp ****         case 3: sprintf(strbuff, "Eb%d", octave); break;
 155:src/UI/sequencer.cpp ****         case 4: sprintf(strbuff, "E-%d", octave); break;
 156:src/UI/sequencer.cpp ****         case 5: sprintf(strbuff, "F-%d", octave); break;
 157:src/UI/sequencer.cpp ****         case 6: sprintf(strbuff, "Gb%d", octave); break;
 158:src/UI/sequencer.cpp ****         case 7: sprintf(strbuff, "G-%d", octave); break;
 159:src/UI/sequencer.cpp ****         case 8: sprintf(strbuff, "Ab%d", octave); break;
 160:src/UI/sequencer.cpp ****         case 9: sprintf(strbuff, "A-%d", octave); break;
 161:src/UI/sequencer.cpp ****         case 10: sprintf(strbuff, "Bb%d", octave); break;
 162:src/UI/sequencer.cpp ****         case 11: sprintf(strbuff, "B-%d", octave); break;
 163:src/UI/sequencer.cpp ****         default: sprintf(strbuff, "OFF"); break;
 164:src/UI/sequencer.cpp ****     }
 165:src/UI/sequencer.cpp **** }
 166:src/UI/sequencer.cpp **** 
 167:src/UI/sequencer.cpp **** void Sequencer::UpdateDisplay() {
 168:src/UI/sequencer.cpp ****     // Clear
 169:src/UI/sequencer.cpp ****     display_->Fill(false);
 170:src/UI/sequencer.cpp **** 
 171:src/UI/sequencer.cpp ****     if (song_) display_->DrawPixel(0, 0, true);
ARM GAS  /var/folders/41/s_9r3f9s4p3_9jgx7wszdkhh0000gn/T//ccURNtC3.s 			page 7


 172:src/UI/sequencer.cpp **** 
 173:src/UI/sequencer.cpp ****     if (songOrder[selector[0]] > -1) {
 174:src/UI/sequencer.cpp ****         // Drawing Steps
 175:src/UI/sequencer.cpp ****         activePattern->lanes[selector[1]]->sequence.at(selector[2])->selected = true;
 176:src/UI/sequencer.cpp ****         for (int x = 0; x < 2; x++) {
 177:src/UI/sequencer.cpp ****             for (int y = 0; y < 7; y++) {
 178:src/UI/sequencer.cpp ****                 int offset = selector[2] - (3 - y);
 179:src/UI/sequencer.cpp ****                 if (offset < 0) {
 180:src/UI/sequencer.cpp ****                     continue;
 181:src/UI/sequencer.cpp ****                 }
 182:src/UI/sequencer.cpp ****                 else if (offset > activePattern->lanes[laneOffset + x]->length - 1) {
 183:src/UI/sequencer.cpp ****                     continue;
 184:src/UI/sequencer.cpp ****                 }
 185:src/UI/sequencer.cpp ****                 else {
 186:src/UI/sequencer.cpp ****                     DrawStep(((43 * x) + 14), (9 * y), activePattern->lanes[laneOffset + x]->sequen
 187:src/UI/sequencer.cpp ****                 }
 188:src/UI/sequencer.cpp ****             }
 189:src/UI/sequencer.cpp ****         } 
 190:src/UI/sequencer.cpp **** 
 191:src/UI/sequencer.cpp ****         // Drawing Line Numbers
 192:src/UI/sequencer.cpp ****         for (int i = 0; i < 7; i++) {
 193:src/UI/sequencer.cpp ****             int offset = selector[2] - (3 - i);
 194:src/UI/sequencer.cpp ****             if (offset < 0) {
 195:src/UI/sequencer.cpp ****                 continue;
 196:src/UI/sequencer.cpp ****             }
 197:src/UI/sequencer.cpp ****             else if (offset > activePattern->lanes[0]->length - 1) {
 198:src/UI/sequencer.cpp ****                 continue;
 199:src/UI/sequencer.cpp ****             }
 200:src/UI/sequencer.cpp ****             else if (offset % 4 == 0) {
 201:src/UI/sequencer.cpp ****                 display_->SetCursor(0, ((9 * i) + 2));
 202:src/UI/sequencer.cpp ****                 sprintf(strbuff, "%3d", offset);
 203:src/UI/sequencer.cpp ****                 display_->WriteString(strbuff, Font_4x6, true);
 204:src/UI/sequencer.cpp ****             }
 205:src/UI/sequencer.cpp ****         }
 206:src/UI/sequencer.cpp ****     }
 207:src/UI/sequencer.cpp ****     
 208:src/UI/sequencer.cpp ****     //Drawing Sidebar
 209:src/UI/sequencer.cpp ****     display_->SetCursor(101, 1);
 210:src/UI/sequencer.cpp ****     sprintf(strbuff, "BPM");
 211:src/UI/sequencer.cpp ****     display_->WriteString(strbuff, Font_4x6, true);
 212:src/UI/sequencer.cpp **** 
 213:src/UI/sequencer.cpp ****     display_->SetCursor(114, 1);
 214:src/UI/sequencer.cpp ****     sprintf(strbuff, "%3d", (int) bpm);
 215:src/UI/sequencer.cpp ****     display_->WriteString(strbuff, Font_4x6, true);
 216:src/UI/sequencer.cpp **** 
 217:src/UI/sequencer.cpp ****     display_->SetCursor(101, 8);
 218:src/UI/sequencer.cpp ****     sprintf(strbuff, "LANE");
 219:src/UI/sequencer.cpp ****     display_->WriteString(strbuff, Font_4x6, true);
 220:src/UI/sequencer.cpp **** 
 221:src/UI/sequencer.cpp ****     display_->SetCursor(118, 8);
 222:src/UI/sequencer.cpp ****     if (songOrder[selector[0]] > -1) sprintf(strbuff, "%2d", selector[1] + 1);
 223:src/UI/sequencer.cpp ****     else sprintf(strbuff, " ");
 224:src/UI/sequencer.cpp ****     display_->WriteString(strbuff, Font_4x6, true);
 225:src/UI/sequencer.cpp **** 
 226:src/UI/sequencer.cpp ****     display_->SetCursor(101, 15);
 227:src/UI/sequencer.cpp ****     sprintf(strbuff, "LEN");
 228:src/UI/sequencer.cpp ****     display_->WriteString(strbuff, Font_4x6, true);
ARM GAS  /var/folders/41/s_9r3f9s4p3_9jgx7wszdkhh0000gn/T//ccURNtC3.s 			page 8


 229:src/UI/sequencer.cpp **** 
 230:src/UI/sequencer.cpp ****     display_->SetCursor(114, 15);
 231:src/UI/sequencer.cpp ****     if (songOrder[selector[0]] > -1) sprintf(strbuff, "%3d", activePattern->lanes[0]->length);
 232:src/UI/sequencer.cpp ****     else sprintf(strbuff, " ");
 233:src/UI/sequencer.cpp ****     display_->WriteString(strbuff, Font_4x6, true);
 234:src/UI/sequencer.cpp **** 
 235:src/UI/sequencer.cpp ****     // Drawing Pattern Arrangement
 236:src/UI/sequencer.cpp ****     if (selector[0] - 2 >= 0) DrawSquare(112, 23, false);
 237:src/UI/sequencer.cpp ****     if (selector[0] - 1 >= 0) DrawSquare(112, 31, false);
 238:src/UI/sequencer.cpp ****     DrawSquare(112, 39, true);
 239:src/UI/sequencer.cpp ****     DrawSquare(112, 47, false);
 240:src/UI/sequencer.cpp ****     DrawSquare(112, 55, false);
 241:src/UI/sequencer.cpp **** 
 242:src/UI/sequencer.cpp ****     for (int i = 0; i < 5; i++) {
 243:src/UI/sequencer.cpp ****         int offset = selector[0] + (i - 2);
 244:src/UI/sequencer.cpp ****         if (offset < 0)                         continue; 
 245:src/UI/sequencer.cpp ****         else if (offset > (int) songOrder.size() - 1) continue;
 246:src/UI/sequencer.cpp ****         else if (songOrder[offset] < 0)         continue;
 247:src/UI/sequencer.cpp ****         else {
 248:src/UI/sequencer.cpp ****             display_->SetCursor(114, (24 + (8 * i)));
 249:src/UI/sequencer.cpp ****             sprintf(strbuff, "%d", songOrder[offset]);
 250:src/UI/sequencer.cpp ****             if (offset == selector[0]) display_->WriteString(strbuff, Font_4x6, false);
 251:src/UI/sequencer.cpp ****             else display_->WriteString(strbuff, Font_4x6, true);
 252:src/UI/sequencer.cpp ****         }
 253:src/UI/sequencer.cpp ****     }
 254:src/UI/sequencer.cpp **** 
 255:src/UI/sequencer.cpp ****     DrawArrow(122, 42, 2);
 256:src/UI/sequencer.cpp ****     DrawArrow(108, 42, 1);
 257:src/UI/sequencer.cpp ****     DrawArrow(103, 38, 3);
 258:src/UI/sequencer.cpp ****     DrawArrow(103, 46, 4);
 259:src/UI/sequencer.cpp **** 
 260:src/UI/sequencer.cpp ****     display_->Update();
 261:src/UI/sequencer.cpp **** }
 262:src/UI/sequencer.cpp **** 
 263:src/UI/sequencer.cpp **** void Sequencer::Update() {
 264:src/UI/sequencer.cpp ****     if (playing_) {
 265:src/UI/sequencer.cpp ****         if (tick.Process()) {
 266:src/UI/sequencer.cpp ****             NextStep();
 267:src/UI/sequencer.cpp ****             for (int i = 0; i < 4; i++) {
 268:src/UI/sequencer.cpp ****                 handler_[i].Update(activePattern->lanes[i]->sequence.at(selector[2]));
 269:src/UI/sequencer.cpp ****             }
 270:src/UI/sequencer.cpp ****         }
 271:src/UI/sequencer.cpp ****     }
 272:src/UI/sequencer.cpp **** }
 273:src/UI/sequencer.cpp **** 
 274:src/UI/sequencer.cpp **** void Sequencer::PlayButton() {
  73              		.loc 2 274 30 is_stmt 1 view -0
  74              		.cfi_startproc
  75              		@ args = 0, pretend = 0, frame = 0
  76              		@ frame_needed = 0, uses_anonymous_args = 0
  77              		@ link register save eliminated.
 275:src/UI/sequencer.cpp ****     playing_ = (playing_) ? false : true;
  78              		.loc 2 275 5 view .LVU5
  79              		.loc 2 275 27 is_stmt 0 view .LVU6
  80 0000 90F83430 		ldrb	r3, [r0, #52]	@ zero_extendqisi2
 276:src/UI/sequencer.cpp ****     song_ = false;
  81              		.loc 2 276 11 view .LVU7
ARM GAS  /var/folders/41/s_9r3f9s4p3_9jgx7wszdkhh0000gn/T//ccURNtC3.s 			page 9


  82 0004 0022     		movs	r2, #0
 275:src/UI/sequencer.cpp ****     playing_ = (playing_) ? false : true;
  83              		.loc 2 275 27 view .LVU8
  84 0006 83F00103 		eor	r3, r3, #1
  85              		.loc 2 276 11 view .LVU9
  86 000a 80F83620 		strb	r2, [r0, #54]
 275:src/UI/sequencer.cpp ****     playing_ = (playing_) ? false : true;
  87              		.loc 2 275 14 view .LVU10
  88 000e 80F83430 		strb	r3, [r0, #52]
  89              		.loc 2 276 5 is_stmt 1 view .LVU11
 277:src/UI/sequencer.cpp **** }
  90              		.loc 2 277 1 is_stmt 0 view .LVU12
  91 0012 7047     		bx	lr
  92              		.cfi_endproc
  93              	.LFE4953:
  95              		.section	.text._ZN9Sequencer13AltPlayButtonEv,"ax",%progbits
  96              		.align	1
  97              		.p2align 2,,3
  98              		.global	_ZN9Sequencer13AltPlayButtonEv
  99              		.syntax unified
 100              		.thumb
 101              		.thumb_func
 103              	_ZN9Sequencer13AltPlayButtonEv:
 104              	.LVL3:
 105              	.LFB4970:
 278:src/UI/sequencer.cpp **** 
 279:src/UI/sequencer.cpp **** void Sequencer::AButton() {
 280:src/UI/sequencer.cpp ****     stepEdit_ = true;
 281:src/UI/sequencer.cpp ****     UpdateDisplay();   
 282:src/UI/sequencer.cpp **** }
 283:src/UI/sequencer.cpp **** 
 284:src/UI/sequencer.cpp **** void Sequencer::BButton() {
 285:src/UI/sequencer.cpp ****     stepEdit_ = false;
 286:src/UI/sequencer.cpp ****     UpdateDisplay();
 287:src/UI/sequencer.cpp **** }
 288:src/UI/sequencer.cpp **** 
 289:src/UI/sequencer.cpp **** void Sequencer::PreviousStep() {
 290:src/UI/sequencer.cpp ****     activePattern->lanes[selector[1]]->sequence.at(selector[2])->selected = false;
 291:src/UI/sequencer.cpp ****     selector[2] = (selector[2] <= 0) ? activePattern->lanes[1]->length - 1 : selector[2] - 1;
 292:src/UI/sequencer.cpp ****     UpdateDisplay();
 293:src/UI/sequencer.cpp **** }
 294:src/UI/sequencer.cpp **** 
 295:src/UI/sequencer.cpp **** void Sequencer::UpButton() {
 296:src/UI/sequencer.cpp ****     if (!playing_ && !stepEdit_ && songOrder[selector[0]] > -1) PreviousStep();
 297:src/UI/sequencer.cpp ****     else if (stepEdit_ && songOrder[selector[0]] > -1) activePattern->lanes[selector[1]]->sequence.
 298:src/UI/sequencer.cpp ****     UpdateDisplay();
 299:src/UI/sequencer.cpp **** }
 300:src/UI/sequencer.cpp **** 
 301:src/UI/sequencer.cpp **** void Sequencer::NextStep() {
 302:src/UI/sequencer.cpp ****     activePattern->lanes[selector[1]]->sequence.at(selector[2])->selected = false;
 303:src/UI/sequencer.cpp ****     if (selector[2] >= activePattern->lanes[selector[1]]->length - 1) {
 304:src/UI/sequencer.cpp ****         selector[2] = 0;
 305:src/UI/sequencer.cpp ****         if (song_) {
 306:src/UI/sequencer.cpp ****             NextPattern();
 307:src/UI/sequencer.cpp ****         }
 308:src/UI/sequencer.cpp ****     } else {
 309:src/UI/sequencer.cpp ****         selector[2] += 1;
ARM GAS  /var/folders/41/s_9r3f9s4p3_9jgx7wszdkhh0000gn/T//ccURNtC3.s 			page 10


 310:src/UI/sequencer.cpp ****     }
 311:src/UI/sequencer.cpp ****     UpdateDisplay();
 312:src/UI/sequencer.cpp **** }
 313:src/UI/sequencer.cpp **** 
 314:src/UI/sequencer.cpp **** void Sequencer::DownButton() {
 315:src/UI/sequencer.cpp ****     if (!playing_ && !stepEdit_ && songOrder[selector[0]] > -1) NextStep();
 316:src/UI/sequencer.cpp ****     else if (stepEdit_ && songOrder[selector[0]] > -1) activePattern->lanes[selector[1]]->sequence.
 317:src/UI/sequencer.cpp ****     UpdateDisplay();
 318:src/UI/sequencer.cpp **** }
 319:src/UI/sequencer.cpp **** 
 320:src/UI/sequencer.cpp **** void Sequencer::PreviousLane() {
 321:src/UI/sequencer.cpp ****     activePattern->lanes[selector[1]]->sequence.at(selector[2])->selected = false;
 322:src/UI/sequencer.cpp ****     selector[1] = (selector[1] <= 0) ? 0 : selector[1] - 1;
 323:src/UI/sequencer.cpp ****     if (selector[1] < 2) laneOffset = selector[1];
 324:src/UI/sequencer.cpp ****     UpdateDisplay();
 325:src/UI/sequencer.cpp **** }
 326:src/UI/sequencer.cpp **** 
 327:src/UI/sequencer.cpp **** void Sequencer::LeftButton() {
 328:src/UI/sequencer.cpp ****     if (!stepEdit_ && songOrder[selector[0]] > -1) PreviousLane();
 329:src/UI/sequencer.cpp ****     else if (songOrder[selector[0]] > -1) activePattern->lanes[selector[1]]->sequence.at(selector[2
 330:src/UI/sequencer.cpp ****     UpdateDisplay();
 331:src/UI/sequencer.cpp **** }
 332:src/UI/sequencer.cpp **** 
 333:src/UI/sequencer.cpp **** void Sequencer::NextLane() {
 334:src/UI/sequencer.cpp ****     activePattern->lanes[selector[1]]->sequence.at(selector[2])->selected = false;
 335:src/UI/sequencer.cpp ****     selector[1] = (selector[1] >= activePattern->numLanes - 1) ? activePattern->numLanes - 1 : sele
 336:src/UI/sequencer.cpp ****     if (selector[1] > 1) laneOffset = selector[1] - 1;
 337:src/UI/sequencer.cpp ****     UpdateDisplay();
 338:src/UI/sequencer.cpp **** }
 339:src/UI/sequencer.cpp **** 
 340:src/UI/sequencer.cpp **** void Sequencer::RightButton() {
 341:src/UI/sequencer.cpp ****     if (!stepEdit_ && songOrder[selector[0]] > -1) NextLane();
 342:src/UI/sequencer.cpp ****     else if (songOrder[selector[0]] > -1) activePattern->lanes[selector[1]]->sequence.at(selector[2
 343:src/UI/sequencer.cpp ****     UpdateDisplay();
 344:src/UI/sequencer.cpp **** }
 345:src/UI/sequencer.cpp **** 
 346:src/UI/sequencer.cpp **** void Sequencer::NextPattern() {
 347:src/UI/sequencer.cpp ****     activePattern->lanes[selector[1]]->sequence.at(selector[2])->selected = false;
 348:src/UI/sequencer.cpp ****     selector[0] = (selector[0] >= (int) songOrder.size() - 1) ? 0 : selector[0] + 1;
 349:src/UI/sequencer.cpp ****     activePattern = patterns.at(songOrder[selector[0]]);
 350:src/UI/sequencer.cpp ****     activePattern->lanes[selector[1]]->sequence.at(selector[2])->selected = true;
 351:src/UI/sequencer.cpp ****     UpdateDisplay();
 352:src/UI/sequencer.cpp **** }
 353:src/UI/sequencer.cpp **** 
 354:src/UI/sequencer.cpp **** void Sequencer::PreviousPattern() {
 355:src/UI/sequencer.cpp ****     activePattern->lanes[selector[1]]->sequence.at(selector[2])->selected = false;
 356:src/UI/sequencer.cpp ****     selector[0] = selector[0] + 1;
 357:src/UI/sequencer.cpp ****     if (selector[0] >= (int) songOrder.size()) {
 358:src/UI/sequencer.cpp ****         playing_ = false;
 359:src/UI/sequencer.cpp ****     } else {
 360:src/UI/sequencer.cpp ****         activePattern = patterns.at(songOrder[selector[0]]);
 361:src/UI/sequencer.cpp ****         activePattern->lanes[selector[1]]->sequence.at(selector[2])->selected = true;
 362:src/UI/sequencer.cpp ****     }
 363:src/UI/sequencer.cpp ****     UpdateDisplay();
 364:src/UI/sequencer.cpp **** }
 365:src/UI/sequencer.cpp **** 
 366:src/UI/sequencer.cpp **** void Sequencer::AltUpButton() {
ARM GAS  /var/folders/41/s_9r3f9s4p3_9jgx7wszdkhh0000gn/T//ccURNtC3.s 			page 11


 367:src/UI/sequencer.cpp ****     activePattern->lanes[selector[1]]->sequence.at(selector[2])->selected = false; //deselecting st
 368:src/UI/sequencer.cpp ****     // if the index of pattern were moving away from is -1, remove from songOrder
 369:src/UI/sequencer.cpp ****     if (songOrder[selector[0]] == -1) {
 370:src/UI/sequencer.cpp ****         auto it = songOrder.begin();
 371:src/UI/sequencer.cpp ****         std::advance(it, selector[0]);
 372:src/UI/sequencer.cpp ****         songOrder.erase(it);
 373:src/UI/sequencer.cpp ****     } else {
 374:src/UI/sequencer.cpp ****         selector[0] = (selector[0] <= 0) ? 0 : selector[0] - 1; // advance selector
 375:src/UI/sequencer.cpp ****     }
 376:src/UI/sequencer.cpp **** 
 377:src/UI/sequencer.cpp ****     if (songOrder[selector[0]] > -1) {
 378:src/UI/sequencer.cpp ****         activePattern = patterns.at(songOrder[selector[0]]);
 379:src/UI/sequencer.cpp ****         activePattern->lanes[selector[1]]->sequence.at(selector[2])->selected = true;
 380:src/UI/sequencer.cpp ****     }
 381:src/UI/sequencer.cpp ****     UpdateDisplay();
 382:src/UI/sequencer.cpp **** }
 383:src/UI/sequencer.cpp **** 
 384:src/UI/sequencer.cpp **** void Sequencer::AltDownButton() {
 385:src/UI/sequencer.cpp ****     activePattern->lanes[selector[1]]->sequence.at(selector[2])->selected = false;
 386:src/UI/sequencer.cpp ****     if (songOrder[selector[0]] == -1) {
 387:src/UI/sequencer.cpp ****         auto it = songOrder.begin();
 388:src/UI/sequencer.cpp ****         std::advance(it, selector[0]);
 389:src/UI/sequencer.cpp ****         songOrder.erase(it);
 390:src/UI/sequencer.cpp ****     } else {
 391:src/UI/sequencer.cpp ****         selector[0] += 1;
 392:src/UI/sequencer.cpp ****     }
 393:src/UI/sequencer.cpp ****     
 394:src/UI/sequencer.cpp ****     if (selector[0] >= (int) songOrder.size()) songOrder.push_back(-1); 
 395:src/UI/sequencer.cpp ****     else { //not seting active pattern to anything to avoid index out of range error
 396:src/UI/sequencer.cpp ****         activePattern = patterns.at(songOrder[selector[0]]);
 397:src/UI/sequencer.cpp ****         activePattern->lanes[selector[1]]->sequence.at(selector[2])->selected = true;
 398:src/UI/sequencer.cpp ****     }
 399:src/UI/sequencer.cpp ****     UpdateDisplay();
 400:src/UI/sequencer.cpp **** }
 401:src/UI/sequencer.cpp **** 
 402:src/UI/sequencer.cpp **** void Sequencer::AltLeftButton() {
 403:src/UI/sequencer.cpp ****     activePattern->lanes[selector[1]]->sequence.at(selector[2])->selected = false;
 404:src/UI/sequencer.cpp ****     if (songOrder[selector[0]] < 0) songOrder[selector[0]] = -1;
 405:src/UI/sequencer.cpp ****     else songOrder[selector[0]] -= 1;
 406:src/UI/sequencer.cpp ****     if (songOrder[selector[0]] > -1) {
 407:src/UI/sequencer.cpp ****         activePattern = patterns.at(songOrder[selector[0]]);
 408:src/UI/sequencer.cpp ****         activePattern->lanes[selector[1]]->sequence.at(selector[2])->selected = true;
 409:src/UI/sequencer.cpp ****     }
 410:src/UI/sequencer.cpp ****     UpdateDisplay();
 411:src/UI/sequencer.cpp **** }
 412:src/UI/sequencer.cpp **** 
 413:src/UI/sequencer.cpp **** void Sequencer::AltRightButton() {
 414:src/UI/sequencer.cpp ****     activePattern->lanes[selector[1]]->sequence.at(selector[2])->selected = false;
 415:src/UI/sequencer.cpp ****     songOrder[selector[0]] += 1;
 416:src/UI/sequencer.cpp ****     if (songOrder[selector[0]] > ((int) patterns.size() - 1)) NewPattern();
 417:src/UI/sequencer.cpp ****     activePattern = patterns.at(songOrder[selector[0]]);
 418:src/UI/sequencer.cpp ****     activePattern->lanes[selector[1]]->sequence.at(selector[2])->selected = true;
 419:src/UI/sequencer.cpp ****     UpdateDisplay();
 420:src/UI/sequencer.cpp **** }
 421:src/UI/sequencer.cpp **** 
 422:src/UI/sequencer.cpp **** void Sequencer::AltPlayButton() {
 106              		.loc 2 422 33 is_stmt 1 view -0
ARM GAS  /var/folders/41/s_9r3f9s4p3_9jgx7wszdkhh0000gn/T//ccURNtC3.s 			page 12


 107              		.cfi_startproc
 108              		@ args = 0, pretend = 0, frame = 0
 109              		@ frame_needed = 0, uses_anonymous_args = 0
 110              		@ link register save eliminated.
 423:src/UI/sequencer.cpp ****     playing_ = (playing_) ? false : true;
 111              		.loc 2 423 5 view .LVU14
 112              		.loc 2 423 27 is_stmt 0 view .LVU15
 113 0000 90F83420 		ldrb	r2, [r0, #52]	@ zero_extendqisi2
 424:src/UI/sequencer.cpp ****     song_ = (song_) ? false : true;
 114              		.loc 2 424 21 view .LVU16
 115 0004 90F83630 		ldrb	r3, [r0, #54]	@ zero_extendqisi2
 423:src/UI/sequencer.cpp ****     playing_ = (playing_) ? false : true;
 116              		.loc 2 423 27 view .LVU17
 117 0008 82F00102 		eor	r2, r2, #1
 118              		.loc 2 424 21 view .LVU18
 119 000c 83F00103 		eor	r3, r3, #1
 423:src/UI/sequencer.cpp ****     playing_ = (playing_) ? false : true;
 120              		.loc 2 423 14 view .LVU19
 121 0010 80F83420 		strb	r2, [r0, #52]
 122              		.loc 2 424 5 is_stmt 1 view .LVU20
 123              		.loc 2 424 11 is_stmt 0 view .LVU21
 124 0014 80F83630 		strb	r3, [r0, #54]
 425:src/UI/sequencer.cpp **** }...
 125              		.loc 2 425 1 view .LVU22
 126 0018 7047     		bx	lr
 127              		.cfi_endproc
 128              	.LFE4970:
 130 001a 00BF     		.section	.text._ZN5daisy11OledDisplayINS_13SSD130xDriverILj128ELj64ENS_19SSD130xI2CTransportEEEE4F
 131              		.align	1
 132              		.p2align 2,,3
 133              		.weak	_ZN5daisy11OledDisplayINS_13SSD130xDriverILj128ELj64ENS_19SSD130xI2CTransportEEEE4FillEb
 134              		.syntax unified
 135              		.thumb
 136              		.thumb_func
 138              	_ZN5daisy11OledDisplayINS_13SSD130xDriverILj128ELj64ENS_19SSD130xI2CTransportEEEE4FillEb:
 139              	.LVL4:
 140              	.LFB5326:
 141              		.file 3 "../DaisyExamples/libDaisy//src/hid/disp/oled_display.h"
   1:../DaisyExamples/libDaisy//src/hid/disp/oled_display.h **** #pragma once
   2:../DaisyExamples/libDaisy//src/hid/disp/oled_display.h **** #ifndef DSY_OLED_DISPLAY_H
   3:../DaisyExamples/libDaisy//src/hid/disp/oled_display.h **** #define DSY_OLED_DISPLAY_H /**< Macro */
   4:../DaisyExamples/libDaisy//src/hid/disp/oled_display.h **** 
   5:../DaisyExamples/libDaisy//src/hid/disp/oled_display.h **** #include "display.h"
   6:../DaisyExamples/libDaisy//src/hid/disp/oled_display.h **** 
   7:../DaisyExamples/libDaisy//src/hid/disp/oled_display.h **** namespace daisy
   8:../DaisyExamples/libDaisy//src/hid/disp/oled_display.h **** {
   9:../DaisyExamples/libDaisy//src/hid/disp/oled_display.h **** /** 
  10:../DaisyExamples/libDaisy//src/hid/disp/oled_display.h ****  * This class is for drawing to a monochrome OLED display. 
  11:../DaisyExamples/libDaisy//src/hid/disp/oled_display.h ****  * @ingroup device
  12:../DaisyExamples/libDaisy//src/hid/disp/oled_display.h **** */
  13:../DaisyExamples/libDaisy//src/hid/disp/oled_display.h **** template <typename DisplayDriver>
  14:../DaisyExamples/libDaisy//src/hid/disp/oled_display.h **** class OledDisplay : public OneBitGraphicsDisplayImpl<OledDisplay<DisplayDriver>>
  15:../DaisyExamples/libDaisy//src/hid/disp/oled_display.h **** {
  16:../DaisyExamples/libDaisy//src/hid/disp/oled_display.h ****   public:
  17:../DaisyExamples/libDaisy//src/hid/disp/oled_display.h ****     OledDisplay() {}
  18:../DaisyExamples/libDaisy//src/hid/disp/oled_display.h ****     virtual ~OledDisplay() {}
  19:../DaisyExamples/libDaisy//src/hid/disp/oled_display.h **** 
ARM GAS  /var/folders/41/s_9r3f9s4p3_9jgx7wszdkhh0000gn/T//ccURNtC3.s 			page 13


  20:../DaisyExamples/libDaisy//src/hid/disp/oled_display.h ****     struct Config
  21:../DaisyExamples/libDaisy//src/hid/disp/oled_display.h ****     {
  22:../DaisyExamples/libDaisy//src/hid/disp/oled_display.h ****         typename DisplayDriver::Config driver_config;
  23:../DaisyExamples/libDaisy//src/hid/disp/oled_display.h ****     };
  24:../DaisyExamples/libDaisy//src/hid/disp/oled_display.h **** 
  25:../DaisyExamples/libDaisy//src/hid/disp/oled_display.h ****     void Init(Config config) { driver_.Init(config.driver_config); }
  26:../DaisyExamples/libDaisy//src/hid/disp/oled_display.h **** 
  27:../DaisyExamples/libDaisy//src/hid/disp/oled_display.h ****     uint16_t Height() const override { return driver_.Height(); }
  28:../DaisyExamples/libDaisy//src/hid/disp/oled_display.h ****     uint16_t Width() const override { return driver_.Width(); }
  29:../DaisyExamples/libDaisy//src/hid/disp/oled_display.h **** 
  30:../DaisyExamples/libDaisy//src/hid/disp/oled_display.h ****     /** 
  31:../DaisyExamples/libDaisy//src/hid/disp/oled_display.h ****     Fills the entire display with either on/off.
  32:../DaisyExamples/libDaisy//src/hid/disp/oled_display.h ****     \param on Sets on or off.
  33:../DaisyExamples/libDaisy//src/hid/disp/oled_display.h ****     */
  34:../DaisyExamples/libDaisy//src/hid/disp/oled_display.h ****     void Fill(bool on) override { driver_.Fill(on); }
 142              		.loc 3 34 10 is_stmt 1 view -0
 143              		.cfi_startproc
 144              		@ args = 0, pretend = 0, frame = 0
 145              		@ frame_needed = 0, uses_anonymous_args = 0
 146              		@ link register save eliminated.
 147              	.LBB876:
 148              	.LBI876:
 149              		.file 4 "../DaisyExamples/libDaisy//src/dev/oled_ssd130x.h"
   1:../DaisyExamples/libDaisy//src/dev/oled_ssd130x.h **** #pragma once
   2:../DaisyExamples/libDaisy//src/dev/oled_ssd130x.h **** #ifndef SA_OLED_SSD130X_H
   3:../DaisyExamples/libDaisy//src/dev/oled_ssd130x.h **** #define SA_OLED_SSD130X_H /**< & */
   4:../DaisyExamples/libDaisy//src/dev/oled_ssd130x.h **** 
   5:../DaisyExamples/libDaisy//src/dev/oled_ssd130x.h **** #include "per/i2c.h"
   6:../DaisyExamples/libDaisy//src/dev/oled_ssd130x.h **** #include "per/spi.h"
   7:../DaisyExamples/libDaisy//src/dev/oled_ssd130x.h **** #include "per/gpio.h"
   8:../DaisyExamples/libDaisy//src/dev/oled_ssd130x.h **** #include "sys/system.h"
   9:../DaisyExamples/libDaisy//src/dev/oled_ssd130x.h **** 
  10:../DaisyExamples/libDaisy//src/dev/oled_ssd130x.h **** namespace daisy
  11:../DaisyExamples/libDaisy//src/dev/oled_ssd130x.h **** {
  12:../DaisyExamples/libDaisy//src/dev/oled_ssd130x.h **** /**
  13:../DaisyExamples/libDaisy//src/dev/oled_ssd130x.h ****  * I2C Transport for SSD1306 / SSD1309 OLED display devices
  14:../DaisyExamples/libDaisy//src/dev/oled_ssd130x.h ****  */
  15:../DaisyExamples/libDaisy//src/dev/oled_ssd130x.h **** class SSD130xI2CTransport
  16:../DaisyExamples/libDaisy//src/dev/oled_ssd130x.h **** {
  17:../DaisyExamples/libDaisy//src/dev/oled_ssd130x.h ****   public:
  18:../DaisyExamples/libDaisy//src/dev/oled_ssd130x.h ****     struct Config
  19:../DaisyExamples/libDaisy//src/dev/oled_ssd130x.h ****     {
  20:../DaisyExamples/libDaisy//src/dev/oled_ssd130x.h ****         Config()
  21:../DaisyExamples/libDaisy//src/dev/oled_ssd130x.h ****         {
  22:../DaisyExamples/libDaisy//src/dev/oled_ssd130x.h ****             // Intialize using defaults
  23:../DaisyExamples/libDaisy//src/dev/oled_ssd130x.h ****             Defaults();
  24:../DaisyExamples/libDaisy//src/dev/oled_ssd130x.h ****         }
  25:../DaisyExamples/libDaisy//src/dev/oled_ssd130x.h ****         I2CHandle::Config i2c_config;
  26:../DaisyExamples/libDaisy//src/dev/oled_ssd130x.h ****         uint8_t           i2c_address;
  27:../DaisyExamples/libDaisy//src/dev/oled_ssd130x.h ****         void              Defaults()
  28:../DaisyExamples/libDaisy//src/dev/oled_ssd130x.h ****         {
  29:../DaisyExamples/libDaisy//src/dev/oled_ssd130x.h ****             i2c_config.periph         = I2CHandle::Config::Peripheral::I2C_1;
  30:../DaisyExamples/libDaisy//src/dev/oled_ssd130x.h ****             i2c_config.speed          = I2CHandle::Config::Speed::I2C_1MHZ;
  31:../DaisyExamples/libDaisy//src/dev/oled_ssd130x.h ****             i2c_config.mode           = I2CHandle::Config::Mode::I2C_MASTER;
  32:../DaisyExamples/libDaisy//src/dev/oled_ssd130x.h ****             i2c_config.pin_config.scl = {DSY_GPIOB, 8};
  33:../DaisyExamples/libDaisy//src/dev/oled_ssd130x.h ****             i2c_config.pin_config.sda = {DSY_GPIOB, 9};
  34:../DaisyExamples/libDaisy//src/dev/oled_ssd130x.h ****             i2c_address               = 0x3C;
ARM GAS  /var/folders/41/s_9r3f9s4p3_9jgx7wszdkhh0000gn/T//ccURNtC3.s 			page 14


  35:../DaisyExamples/libDaisy//src/dev/oled_ssd130x.h ****         }
  36:../DaisyExamples/libDaisy//src/dev/oled_ssd130x.h ****     };
  37:../DaisyExamples/libDaisy//src/dev/oled_ssd130x.h ****     void Init(const Config& config)
  38:../DaisyExamples/libDaisy//src/dev/oled_ssd130x.h ****     {
  39:../DaisyExamples/libDaisy//src/dev/oled_ssd130x.h ****         i2c_address_ = config.i2c_address;
  40:../DaisyExamples/libDaisy//src/dev/oled_ssd130x.h ****         i2c_.Init(config.i2c_config);
  41:../DaisyExamples/libDaisy//src/dev/oled_ssd130x.h ****     };
  42:../DaisyExamples/libDaisy//src/dev/oled_ssd130x.h ****     void SendCommand(uint8_t cmd)
  43:../DaisyExamples/libDaisy//src/dev/oled_ssd130x.h ****     {
  44:../DaisyExamples/libDaisy//src/dev/oled_ssd130x.h ****         uint8_t buf[2] = {0X00, cmd};
  45:../DaisyExamples/libDaisy//src/dev/oled_ssd130x.h ****         i2c_.TransmitBlocking(i2c_address_, buf, 2, 1000);
  46:../DaisyExamples/libDaisy//src/dev/oled_ssd130x.h ****     };
  47:../DaisyExamples/libDaisy//src/dev/oled_ssd130x.h **** 
  48:../DaisyExamples/libDaisy//src/dev/oled_ssd130x.h ****     void SendData(uint8_t* buff, size_t size)
  49:../DaisyExamples/libDaisy//src/dev/oled_ssd130x.h ****     {
  50:../DaisyExamples/libDaisy//src/dev/oled_ssd130x.h ****         for(size_t i = 0; i < size; i++)
  51:../DaisyExamples/libDaisy//src/dev/oled_ssd130x.h ****         {
  52:../DaisyExamples/libDaisy//src/dev/oled_ssd130x.h ****             uint8_t buf[2] = {0X40, buff[i]};
  53:../DaisyExamples/libDaisy//src/dev/oled_ssd130x.h ****             i2c_.TransmitBlocking(i2c_address_, buf, 2, 1000);
  54:../DaisyExamples/libDaisy//src/dev/oled_ssd130x.h ****         }
  55:../DaisyExamples/libDaisy//src/dev/oled_ssd130x.h ****     };
  56:../DaisyExamples/libDaisy//src/dev/oled_ssd130x.h **** 
  57:../DaisyExamples/libDaisy//src/dev/oled_ssd130x.h ****   private:
  58:../DaisyExamples/libDaisy//src/dev/oled_ssd130x.h ****     daisy::I2CHandle i2c_;
  59:../DaisyExamples/libDaisy//src/dev/oled_ssd130x.h ****     uint8_t          i2c_address_;
  60:../DaisyExamples/libDaisy//src/dev/oled_ssd130x.h **** };
  61:../DaisyExamples/libDaisy//src/dev/oled_ssd130x.h **** 
  62:../DaisyExamples/libDaisy//src/dev/oled_ssd130x.h **** /**
  63:../DaisyExamples/libDaisy//src/dev/oled_ssd130x.h ****  * 4 Wire SPI Transport for SSD1306 / SSD1309 OLED display devices
  64:../DaisyExamples/libDaisy//src/dev/oled_ssd130x.h ****  */
  65:../DaisyExamples/libDaisy//src/dev/oled_ssd130x.h **** class SSD130x4WireSpiTransport
  66:../DaisyExamples/libDaisy//src/dev/oled_ssd130x.h **** {
  67:../DaisyExamples/libDaisy//src/dev/oled_ssd130x.h ****   public:
  68:../DaisyExamples/libDaisy//src/dev/oled_ssd130x.h ****     struct Config
  69:../DaisyExamples/libDaisy//src/dev/oled_ssd130x.h ****     {
  70:../DaisyExamples/libDaisy//src/dev/oled_ssd130x.h ****         Config()
  71:../DaisyExamples/libDaisy//src/dev/oled_ssd130x.h ****         {
  72:../DaisyExamples/libDaisy//src/dev/oled_ssd130x.h ****             // Initialize using defaults
  73:../DaisyExamples/libDaisy//src/dev/oled_ssd130x.h ****             Defaults();
  74:../DaisyExamples/libDaisy//src/dev/oled_ssd130x.h ****         }
  75:../DaisyExamples/libDaisy//src/dev/oled_ssd130x.h ****         SpiHandle::Config spi_config;
  76:../DaisyExamples/libDaisy//src/dev/oled_ssd130x.h ****         struct
  77:../DaisyExamples/libDaisy//src/dev/oled_ssd130x.h ****         {
  78:../DaisyExamples/libDaisy//src/dev/oled_ssd130x.h ****             dsy_gpio_pin dc;    /**< & */
  79:../DaisyExamples/libDaisy//src/dev/oled_ssd130x.h ****             dsy_gpio_pin reset; /**< & */
  80:../DaisyExamples/libDaisy//src/dev/oled_ssd130x.h ****         } pin_config;
  81:../DaisyExamples/libDaisy//src/dev/oled_ssd130x.h ****         void Defaults()
  82:../DaisyExamples/libDaisy//src/dev/oled_ssd130x.h ****         {
  83:../DaisyExamples/libDaisy//src/dev/oled_ssd130x.h ****             // SPI peripheral config
  84:../DaisyExamples/libDaisy//src/dev/oled_ssd130x.h ****             spi_config.periph = SpiHandle::Config::Peripheral::SPI_1;
  85:../DaisyExamples/libDaisy//src/dev/oled_ssd130x.h ****             spi_config.mode   = SpiHandle::Config::Mode::MASTER;
  86:../DaisyExamples/libDaisy//src/dev/oled_ssd130x.h ****             spi_config.direction
  87:../DaisyExamples/libDaisy//src/dev/oled_ssd130x.h ****                 = SpiHandle::Config::Direction::TWO_LINES_TX_ONLY;
  88:../DaisyExamples/libDaisy//src/dev/oled_ssd130x.h ****             spi_config.datasize       = 8;
  89:../DaisyExamples/libDaisy//src/dev/oled_ssd130x.h ****             spi_config.clock_polarity = SpiHandle::Config::ClockPolarity::LOW;
  90:../DaisyExamples/libDaisy//src/dev/oled_ssd130x.h ****             spi_config.clock_phase    = SpiHandle::Config::ClockPhase::ONE_EDGE;
  91:../DaisyExamples/libDaisy//src/dev/oled_ssd130x.h ****             spi_config.nss            = SpiHandle::Config::NSS::HARD_OUTPUT;
ARM GAS  /var/folders/41/s_9r3f9s4p3_9jgx7wszdkhh0000gn/T//ccURNtC3.s 			page 15


  92:../DaisyExamples/libDaisy//src/dev/oled_ssd130x.h ****             spi_config.baud_prescaler = SpiHandle::Config::BaudPrescaler::PS_8;
  93:../DaisyExamples/libDaisy//src/dev/oled_ssd130x.h ****             // SPI pin config
  94:../DaisyExamples/libDaisy//src/dev/oled_ssd130x.h ****             spi_config.pin_config.sclk = {DSY_GPIOG, 11};
  95:../DaisyExamples/libDaisy//src/dev/oled_ssd130x.h ****             spi_config.pin_config.miso = {DSY_GPIOX, 0};
  96:../DaisyExamples/libDaisy//src/dev/oled_ssd130x.h ****             spi_config.pin_config.mosi = {DSY_GPIOB, 5};
  97:../DaisyExamples/libDaisy//src/dev/oled_ssd130x.h ****             spi_config.pin_config.nss  = {DSY_GPIOG, 10};
  98:../DaisyExamples/libDaisy//src/dev/oled_ssd130x.h ****             // SSD130x control pin config
  99:../DaisyExamples/libDaisy//src/dev/oled_ssd130x.h ****             pin_config.dc    = {DSY_GPIOB, 4};
 100:../DaisyExamples/libDaisy//src/dev/oled_ssd130x.h ****             pin_config.reset = {DSY_GPIOB, 15};
 101:../DaisyExamples/libDaisy//src/dev/oled_ssd130x.h ****         }
 102:../DaisyExamples/libDaisy//src/dev/oled_ssd130x.h ****     };
 103:../DaisyExamples/libDaisy//src/dev/oled_ssd130x.h ****     void Init(const Config& config)
 104:../DaisyExamples/libDaisy//src/dev/oled_ssd130x.h ****     {
 105:../DaisyExamples/libDaisy//src/dev/oled_ssd130x.h ****         // Initialize both GPIO
 106:../DaisyExamples/libDaisy//src/dev/oled_ssd130x.h ****         pin_dc_.mode = DSY_GPIO_MODE_OUTPUT_PP;
 107:../DaisyExamples/libDaisy//src/dev/oled_ssd130x.h ****         pin_dc_.pin  = config.pin_config.dc;
 108:../DaisyExamples/libDaisy//src/dev/oled_ssd130x.h ****         dsy_gpio_init(&pin_dc_);
 109:../DaisyExamples/libDaisy//src/dev/oled_ssd130x.h ****         pin_reset_.mode = DSY_GPIO_MODE_OUTPUT_PP;
 110:../DaisyExamples/libDaisy//src/dev/oled_ssd130x.h ****         pin_reset_.pin  = config.pin_config.reset;
 111:../DaisyExamples/libDaisy//src/dev/oled_ssd130x.h ****         dsy_gpio_init(&pin_reset_);
 112:../DaisyExamples/libDaisy//src/dev/oled_ssd130x.h **** 
 113:../DaisyExamples/libDaisy//src/dev/oled_ssd130x.h ****         // Initialize SPI
 114:../DaisyExamples/libDaisy//src/dev/oled_ssd130x.h ****         spi_.Init(config.spi_config);
 115:../DaisyExamples/libDaisy//src/dev/oled_ssd130x.h **** 
 116:../DaisyExamples/libDaisy//src/dev/oled_ssd130x.h ****         // Reset and Configure OLED.
 117:../DaisyExamples/libDaisy//src/dev/oled_ssd130x.h ****         dsy_gpio_write(&pin_reset_, 0);
 118:../DaisyExamples/libDaisy//src/dev/oled_ssd130x.h ****         System::Delay(10);
 119:../DaisyExamples/libDaisy//src/dev/oled_ssd130x.h ****         dsy_gpio_write(&pin_reset_, 1);
 120:../DaisyExamples/libDaisy//src/dev/oled_ssd130x.h ****         System::Delay(10);
 121:../DaisyExamples/libDaisy//src/dev/oled_ssd130x.h ****     };
 122:../DaisyExamples/libDaisy//src/dev/oled_ssd130x.h ****     void SendCommand(uint8_t cmd)
 123:../DaisyExamples/libDaisy//src/dev/oled_ssd130x.h ****     {
 124:../DaisyExamples/libDaisy//src/dev/oled_ssd130x.h ****         dsy_gpio_write(&pin_dc_, 0);
 125:../DaisyExamples/libDaisy//src/dev/oled_ssd130x.h ****         spi_.BlockingTransmit(&cmd, 1);
 126:../DaisyExamples/libDaisy//src/dev/oled_ssd130x.h ****     };
 127:../DaisyExamples/libDaisy//src/dev/oled_ssd130x.h **** 
 128:../DaisyExamples/libDaisy//src/dev/oled_ssd130x.h ****     void SendData(uint8_t* buff, size_t size)
 129:../DaisyExamples/libDaisy//src/dev/oled_ssd130x.h ****     {
 130:../DaisyExamples/libDaisy//src/dev/oled_ssd130x.h ****         dsy_gpio_write(&pin_dc_, 1);
 131:../DaisyExamples/libDaisy//src/dev/oled_ssd130x.h ****         spi_.BlockingTransmit(buff, size);
 132:../DaisyExamples/libDaisy//src/dev/oled_ssd130x.h ****     };
 133:../DaisyExamples/libDaisy//src/dev/oled_ssd130x.h **** 
 134:../DaisyExamples/libDaisy//src/dev/oled_ssd130x.h ****   private:
 135:../DaisyExamples/libDaisy//src/dev/oled_ssd130x.h ****     SpiHandle spi_;
 136:../DaisyExamples/libDaisy//src/dev/oled_ssd130x.h ****     dsy_gpio  pin_reset_;
 137:../DaisyExamples/libDaisy//src/dev/oled_ssd130x.h ****     dsy_gpio  pin_dc_;
 138:../DaisyExamples/libDaisy//src/dev/oled_ssd130x.h **** };
 139:../DaisyExamples/libDaisy//src/dev/oled_ssd130x.h **** 
 140:../DaisyExamples/libDaisy//src/dev/oled_ssd130x.h **** /**
 141:../DaisyExamples/libDaisy//src/dev/oled_ssd130x.h ****  * Soft SPI Transport for SSD1306 / SSD1309 OLED display devices
 142:../DaisyExamples/libDaisy//src/dev/oled_ssd130x.h ****  */
 143:../DaisyExamples/libDaisy//src/dev/oled_ssd130x.h **** class SSD130x4WireSoftSpiTransport
 144:../DaisyExamples/libDaisy//src/dev/oled_ssd130x.h **** {
 145:../DaisyExamples/libDaisy//src/dev/oled_ssd130x.h ****   public:
 146:../DaisyExamples/libDaisy//src/dev/oled_ssd130x.h ****     struct Config
 147:../DaisyExamples/libDaisy//src/dev/oled_ssd130x.h ****     {
 148:../DaisyExamples/libDaisy//src/dev/oled_ssd130x.h ****         Config()
ARM GAS  /var/folders/41/s_9r3f9s4p3_9jgx7wszdkhh0000gn/T//ccURNtC3.s 			page 16


 149:../DaisyExamples/libDaisy//src/dev/oled_ssd130x.h ****         {
 150:../DaisyExamples/libDaisy//src/dev/oled_ssd130x.h ****             // Initialize using defaults
 151:../DaisyExamples/libDaisy//src/dev/oled_ssd130x.h ****             Defaults();
 152:../DaisyExamples/libDaisy//src/dev/oled_ssd130x.h ****         }
 153:../DaisyExamples/libDaisy//src/dev/oled_ssd130x.h ****         struct
 154:../DaisyExamples/libDaisy//src/dev/oled_ssd130x.h ****         {
 155:../DaisyExamples/libDaisy//src/dev/oled_ssd130x.h ****             uint32_t     sclk_delay;
 156:../DaisyExamples/libDaisy//src/dev/oled_ssd130x.h ****             dsy_gpio_pin sclk;
 157:../DaisyExamples/libDaisy//src/dev/oled_ssd130x.h ****             dsy_gpio_pin mosi;
 158:../DaisyExamples/libDaisy//src/dev/oled_ssd130x.h ****             dsy_gpio_pin dc;
 159:../DaisyExamples/libDaisy//src/dev/oled_ssd130x.h ****             dsy_gpio_pin reset;
 160:../DaisyExamples/libDaisy//src/dev/oled_ssd130x.h ****         } pin_config;
 161:../DaisyExamples/libDaisy//src/dev/oled_ssd130x.h ****         void Defaults()
 162:../DaisyExamples/libDaisy//src/dev/oled_ssd130x.h ****         {
 163:../DaisyExamples/libDaisy//src/dev/oled_ssd130x.h ****             pin_config.sclk_delay = 0; // fast as possible?!
 164:../DaisyExamples/libDaisy//src/dev/oled_ssd130x.h ****             // SPI peripheral config
 165:../DaisyExamples/libDaisy//src/dev/oled_ssd130x.h ****             pin_config.sclk = {DSY_GPIOD, 3}; /**< D10 - SPI2 SCK  */
 166:../DaisyExamples/libDaisy//src/dev/oled_ssd130x.h ****             pin_config.mosi = {DSY_GPIOC, 3}; /**< D9  - SPI2 MOSI */
 167:../DaisyExamples/libDaisy//src/dev/oled_ssd130x.h ****             // SSD130x control pin config
 168:../DaisyExamples/libDaisy//src/dev/oled_ssd130x.h ****             pin_config.dc    = {DSY_GPIOC, 11}; //D2
 169:../DaisyExamples/libDaisy//src/dev/oled_ssd130x.h ****             pin_config.reset = {DSY_GPIOC, 10}; //D3
 170:../DaisyExamples/libDaisy//src/dev/oled_ssd130x.h ****         }
 171:../DaisyExamples/libDaisy//src/dev/oled_ssd130x.h ****     };
 172:../DaisyExamples/libDaisy//src/dev/oled_ssd130x.h ****     void Init(const Config& config)
 173:../DaisyExamples/libDaisy//src/dev/oled_ssd130x.h ****     {
 174:../DaisyExamples/libDaisy//src/dev/oled_ssd130x.h ****         // Initialize both GPIO
 175:../DaisyExamples/libDaisy//src/dev/oled_ssd130x.h ****         pin_sclk_.mode = DSY_GPIO_MODE_OUTPUT_PP;
 176:../DaisyExamples/libDaisy//src/dev/oled_ssd130x.h ****         pin_sclk_.pin  = config.pin_config.sclk;
 177:../DaisyExamples/libDaisy//src/dev/oled_ssd130x.h ****         dsy_gpio_init(&pin_sclk_);
 178:../DaisyExamples/libDaisy//src/dev/oled_ssd130x.h ****         dsy_gpio_write(&pin_sclk_, 1); //ClockPolarity::LOW
 179:../DaisyExamples/libDaisy//src/dev/oled_ssd130x.h ****         clk_delay      = config.pin_config.sclk_delay;
 180:../DaisyExamples/libDaisy//src/dev/oled_ssd130x.h ****         pin_mosi_.mode = DSY_GPIO_MODE_OUTPUT_PP;
 181:../DaisyExamples/libDaisy//src/dev/oled_ssd130x.h ****         pin_mosi_.pin  = config.pin_config.mosi;
 182:../DaisyExamples/libDaisy//src/dev/oled_ssd130x.h ****         dsy_gpio_init(&pin_mosi_);
 183:../DaisyExamples/libDaisy//src/dev/oled_ssd130x.h ****         dsy_gpio_write(&pin_mosi_, 0);
 184:../DaisyExamples/libDaisy//src/dev/oled_ssd130x.h **** 
 185:../DaisyExamples/libDaisy//src/dev/oled_ssd130x.h ****         pin_dc_.mode = DSY_GPIO_MODE_OUTPUT_PP;
 186:../DaisyExamples/libDaisy//src/dev/oled_ssd130x.h ****         pin_dc_.pin  = config.pin_config.dc;
 187:../DaisyExamples/libDaisy//src/dev/oled_ssd130x.h ****         dsy_gpio_init(&pin_dc_);
 188:../DaisyExamples/libDaisy//src/dev/oled_ssd130x.h ****         pin_reset_.mode = DSY_GPIO_MODE_OUTPUT_PP;
 189:../DaisyExamples/libDaisy//src/dev/oled_ssd130x.h ****         pin_reset_.pin  = config.pin_config.reset;
 190:../DaisyExamples/libDaisy//src/dev/oled_ssd130x.h ****         dsy_gpio_init(&pin_reset_);
 191:../DaisyExamples/libDaisy//src/dev/oled_ssd130x.h **** 
 192:../DaisyExamples/libDaisy//src/dev/oled_ssd130x.h ****         // Reset and Configure OLED.
 193:../DaisyExamples/libDaisy//src/dev/oled_ssd130x.h ****         dsy_gpio_write(&pin_reset_, 0);
 194:../DaisyExamples/libDaisy//src/dev/oled_ssd130x.h ****         System::Delay(10);
 195:../DaisyExamples/libDaisy//src/dev/oled_ssd130x.h ****         dsy_gpio_write(&pin_reset_, 1);
 196:../DaisyExamples/libDaisy//src/dev/oled_ssd130x.h ****         System::Delay(10);
 197:../DaisyExamples/libDaisy//src/dev/oled_ssd130x.h ****     };
 198:../DaisyExamples/libDaisy//src/dev/oled_ssd130x.h ****     void SendCommand(uint8_t cmd)
 199:../DaisyExamples/libDaisy//src/dev/oled_ssd130x.h ****     {
 200:../DaisyExamples/libDaisy//src/dev/oled_ssd130x.h ****         dsy_gpio_write(&pin_dc_, 0);
 201:../DaisyExamples/libDaisy//src/dev/oled_ssd130x.h ****         SoftSpiTransmit(cmd);
 202:../DaisyExamples/libDaisy//src/dev/oled_ssd130x.h ****     };
 203:../DaisyExamples/libDaisy//src/dev/oled_ssd130x.h **** 
 204:../DaisyExamples/libDaisy//src/dev/oled_ssd130x.h ****     void SendData(uint8_t* buff, size_t size)
 205:../DaisyExamples/libDaisy//src/dev/oled_ssd130x.h ****     {
ARM GAS  /var/folders/41/s_9r3f9s4p3_9jgx7wszdkhh0000gn/T//ccURNtC3.s 			page 17


 206:../DaisyExamples/libDaisy//src/dev/oled_ssd130x.h ****         dsy_gpio_write(&pin_dc_, 1);
 207:../DaisyExamples/libDaisy//src/dev/oled_ssd130x.h ****         for(size_t i = 0; i < size; i++)
 208:../DaisyExamples/libDaisy//src/dev/oled_ssd130x.h ****             SoftSpiTransmit(buff[i]);
 209:../DaisyExamples/libDaisy//src/dev/oled_ssd130x.h ****     };
 210:../DaisyExamples/libDaisy//src/dev/oled_ssd130x.h **** 
 211:../DaisyExamples/libDaisy//src/dev/oled_ssd130x.h ****   private:
 212:../DaisyExamples/libDaisy//src/dev/oled_ssd130x.h ****     void SoftSpiTransmit(uint8_t val)
 213:../DaisyExamples/libDaisy//src/dev/oled_ssd130x.h ****     {
 214:../DaisyExamples/libDaisy//src/dev/oled_ssd130x.h ****         // bit flip
 215:../DaisyExamples/libDaisy//src/dev/oled_ssd130x.h ****         val = ((val & 0x01) << 7) | ((val & 0x02) << 5) | ((val & 0x04) << 3)
 216:../DaisyExamples/libDaisy//src/dev/oled_ssd130x.h ****               | ((val & 0x08) << 1) | ((val & 0x10) >> 1) | ((val & 0x20) >> 3)
 217:../DaisyExamples/libDaisy//src/dev/oled_ssd130x.h ****               | ((val & 0x40) >> 5) | ((val & 0x80) >> 7);
 218:../DaisyExamples/libDaisy//src/dev/oled_ssd130x.h **** 
 219:../DaisyExamples/libDaisy//src/dev/oled_ssd130x.h ****         for(uint8_t bit = 0u; bit < 8u; bit++)
 220:../DaisyExamples/libDaisy//src/dev/oled_ssd130x.h ****         {
 221:../DaisyExamples/libDaisy//src/dev/oled_ssd130x.h ****             dsy_gpio_write(&pin_mosi_, ((val & (1 << bit)) ? 1 : 0));
 222:../DaisyExamples/libDaisy//src/dev/oled_ssd130x.h **** 
 223:../DaisyExamples/libDaisy//src/dev/oled_ssd130x.h ****             System::DelayTicks(clk_delay);
 224:../DaisyExamples/libDaisy//src/dev/oled_ssd130x.h **** 
 225:../DaisyExamples/libDaisy//src/dev/oled_ssd130x.h ****             dsy_gpio_toggle(&pin_sclk_);
 226:../DaisyExamples/libDaisy//src/dev/oled_ssd130x.h **** 
 227:../DaisyExamples/libDaisy//src/dev/oled_ssd130x.h ****             System::DelayTicks(clk_delay);
 228:../DaisyExamples/libDaisy//src/dev/oled_ssd130x.h **** 
 229:../DaisyExamples/libDaisy//src/dev/oled_ssd130x.h ****             dsy_gpio_toggle(&pin_sclk_);
 230:../DaisyExamples/libDaisy//src/dev/oled_ssd130x.h ****         }
 231:../DaisyExamples/libDaisy//src/dev/oled_ssd130x.h ****     }
 232:../DaisyExamples/libDaisy//src/dev/oled_ssd130x.h **** 
 233:../DaisyExamples/libDaisy//src/dev/oled_ssd130x.h ****     uint32_t clk_delay;
 234:../DaisyExamples/libDaisy//src/dev/oled_ssd130x.h ****     dsy_gpio pin_sclk_;
 235:../DaisyExamples/libDaisy//src/dev/oled_ssd130x.h ****     dsy_gpio pin_mosi_;
 236:../DaisyExamples/libDaisy//src/dev/oled_ssd130x.h ****     dsy_gpio pin_reset_;
 237:../DaisyExamples/libDaisy//src/dev/oled_ssd130x.h ****     dsy_gpio pin_dc_;
 238:../DaisyExamples/libDaisy//src/dev/oled_ssd130x.h **** };
 239:../DaisyExamples/libDaisy//src/dev/oled_ssd130x.h **** 
 240:../DaisyExamples/libDaisy//src/dev/oled_ssd130x.h **** 
 241:../DaisyExamples/libDaisy//src/dev/oled_ssd130x.h **** /**
 242:../DaisyExamples/libDaisy//src/dev/oled_ssd130x.h ****  * A driver implementation for the SSD1306/SSD1309
 243:../DaisyExamples/libDaisy//src/dev/oled_ssd130x.h ****  */
 244:../DaisyExamples/libDaisy//src/dev/oled_ssd130x.h **** template <size_t width, size_t height, typename Transport>
 245:../DaisyExamples/libDaisy//src/dev/oled_ssd130x.h **** class SSD130xDriver
 246:../DaisyExamples/libDaisy//src/dev/oled_ssd130x.h **** {
 247:../DaisyExamples/libDaisy//src/dev/oled_ssd130x.h ****   public:
 248:../DaisyExamples/libDaisy//src/dev/oled_ssd130x.h ****     struct Config
 249:../DaisyExamples/libDaisy//src/dev/oled_ssd130x.h ****     {
 250:../DaisyExamples/libDaisy//src/dev/oled_ssd130x.h ****         typename Transport::Config transport_config;
 251:../DaisyExamples/libDaisy//src/dev/oled_ssd130x.h ****     };
 252:../DaisyExamples/libDaisy//src/dev/oled_ssd130x.h **** 
 253:../DaisyExamples/libDaisy//src/dev/oled_ssd130x.h ****     void Init(Config config)
 254:../DaisyExamples/libDaisy//src/dev/oled_ssd130x.h ****     {
 255:../DaisyExamples/libDaisy//src/dev/oled_ssd130x.h ****         transport_.Init(config.transport_config);
 256:../DaisyExamples/libDaisy//src/dev/oled_ssd130x.h **** 
 257:../DaisyExamples/libDaisy//src/dev/oled_ssd130x.h ****         // Init routine...
 258:../DaisyExamples/libDaisy//src/dev/oled_ssd130x.h **** 
 259:../DaisyExamples/libDaisy//src/dev/oled_ssd130x.h ****         // Display Off
 260:../DaisyExamples/libDaisy//src/dev/oled_ssd130x.h ****         transport_.SendCommand(0xaE);
 261:../DaisyExamples/libDaisy//src/dev/oled_ssd130x.h ****         // Dimension dependent commands...
 262:../DaisyExamples/libDaisy//src/dev/oled_ssd130x.h ****         switch(height)
ARM GAS  /var/folders/41/s_9r3f9s4p3_9jgx7wszdkhh0000gn/T//ccURNtC3.s 			page 18


 263:../DaisyExamples/libDaisy//src/dev/oled_ssd130x.h ****         {
 264:../DaisyExamples/libDaisy//src/dev/oled_ssd130x.h ****             case 16:
 265:../DaisyExamples/libDaisy//src/dev/oled_ssd130x.h ****                 // Display Clock Divide Ratio
 266:../DaisyExamples/libDaisy//src/dev/oled_ssd130x.h ****                 transport_.SendCommand(0xD5);
 267:../DaisyExamples/libDaisy//src/dev/oled_ssd130x.h ****                 transport_.SendCommand(0x60);
 268:../DaisyExamples/libDaisy//src/dev/oled_ssd130x.h ****                 // Multiplex Ratio
 269:../DaisyExamples/libDaisy//src/dev/oled_ssd130x.h ****                 transport_.SendCommand(0xA8);
 270:../DaisyExamples/libDaisy//src/dev/oled_ssd130x.h ****                 transport_.SendCommand(0x0F);
 271:../DaisyExamples/libDaisy//src/dev/oled_ssd130x.h ****                 // COM Pins
 272:../DaisyExamples/libDaisy//src/dev/oled_ssd130x.h ****                 transport_.SendCommand(0xDA);
 273:../DaisyExamples/libDaisy//src/dev/oled_ssd130x.h ****                 transport_.SendCommand(0x02);
 274:../DaisyExamples/libDaisy//src/dev/oled_ssd130x.h ****                 break;
 275:../DaisyExamples/libDaisy//src/dev/oled_ssd130x.h ****             case 32:
 276:../DaisyExamples/libDaisy//src/dev/oled_ssd130x.h ****                 // Display Clock Divide Ratio
 277:../DaisyExamples/libDaisy//src/dev/oled_ssd130x.h ****                 transport_.SendCommand(0xD5);
 278:../DaisyExamples/libDaisy//src/dev/oled_ssd130x.h ****                 transport_.SendCommand(0x80);
 279:../DaisyExamples/libDaisy//src/dev/oled_ssd130x.h ****                 // Multiplex Ratio
 280:../DaisyExamples/libDaisy//src/dev/oled_ssd130x.h ****                 transport_.SendCommand(0xA8);
 281:../DaisyExamples/libDaisy//src/dev/oled_ssd130x.h ****                 transport_.SendCommand(0x1F);
 282:../DaisyExamples/libDaisy//src/dev/oled_ssd130x.h ****                 // COM Pins
 283:../DaisyExamples/libDaisy//src/dev/oled_ssd130x.h ****                 transport_.SendCommand(0xDA);
 284:../DaisyExamples/libDaisy//src/dev/oled_ssd130x.h ****                 if(width == 64)
 285:../DaisyExamples/libDaisy//src/dev/oled_ssd130x.h ****                 {
 286:../DaisyExamples/libDaisy//src/dev/oled_ssd130x.h ****                     transport_.SendCommand(0x12);
 287:../DaisyExamples/libDaisy//src/dev/oled_ssd130x.h ****                 }
 288:../DaisyExamples/libDaisy//src/dev/oled_ssd130x.h ****                 else
 289:../DaisyExamples/libDaisy//src/dev/oled_ssd130x.h ****                 {
 290:../DaisyExamples/libDaisy//src/dev/oled_ssd130x.h ****                     transport_.SendCommand(0x02);
 291:../DaisyExamples/libDaisy//src/dev/oled_ssd130x.h ****                 }
 292:../DaisyExamples/libDaisy//src/dev/oled_ssd130x.h **** 
 293:../DaisyExamples/libDaisy//src/dev/oled_ssd130x.h ****                 break;
 294:../DaisyExamples/libDaisy//src/dev/oled_ssd130x.h ****             case 48:
 295:../DaisyExamples/libDaisy//src/dev/oled_ssd130x.h ****                 // Display Clock Divide Ratio
 296:../DaisyExamples/libDaisy//src/dev/oled_ssd130x.h ****                 transport_.SendCommand(0xD5);
 297:../DaisyExamples/libDaisy//src/dev/oled_ssd130x.h ****                 transport_.SendCommand(0x80);
 298:../DaisyExamples/libDaisy//src/dev/oled_ssd130x.h ****                 // Multiplex Ratio
 299:../DaisyExamples/libDaisy//src/dev/oled_ssd130x.h ****                 transport_.SendCommand(0xA8);
 300:../DaisyExamples/libDaisy//src/dev/oled_ssd130x.h ****                 transport_.SendCommand(0x2F);
 301:../DaisyExamples/libDaisy//src/dev/oled_ssd130x.h ****                 // COM Pins
 302:../DaisyExamples/libDaisy//src/dev/oled_ssd130x.h ****                 transport_.SendCommand(0xDA);
 303:../DaisyExamples/libDaisy//src/dev/oled_ssd130x.h ****                 transport_.SendCommand(0x12);
 304:../DaisyExamples/libDaisy//src/dev/oled_ssd130x.h ****                 break;
 305:../DaisyExamples/libDaisy//src/dev/oled_ssd130x.h ****             default: // 128
 306:../DaisyExamples/libDaisy//src/dev/oled_ssd130x.h ****                 // Display Clock Divide Ratio
 307:../DaisyExamples/libDaisy//src/dev/oled_ssd130x.h ****                 transport_.SendCommand(0xD5);
 308:../DaisyExamples/libDaisy//src/dev/oled_ssd130x.h ****                 transport_.SendCommand(0x80);
 309:../DaisyExamples/libDaisy//src/dev/oled_ssd130x.h ****                 // Multiplex Ratio
 310:../DaisyExamples/libDaisy//src/dev/oled_ssd130x.h ****                 transport_.SendCommand(0xA8);
 311:../DaisyExamples/libDaisy//src/dev/oled_ssd130x.h ****                 transport_.SendCommand(0x3F);
 312:../DaisyExamples/libDaisy//src/dev/oled_ssd130x.h ****                 // COM Pins
 313:../DaisyExamples/libDaisy//src/dev/oled_ssd130x.h ****                 transport_.SendCommand(0xDA);
 314:../DaisyExamples/libDaisy//src/dev/oled_ssd130x.h ****                 transport_.SendCommand(0x12);
 315:../DaisyExamples/libDaisy//src/dev/oled_ssd130x.h ****                 break;
 316:../DaisyExamples/libDaisy//src/dev/oled_ssd130x.h ****         }
 317:../DaisyExamples/libDaisy//src/dev/oled_ssd130x.h **** 
 318:../DaisyExamples/libDaisy//src/dev/oled_ssd130x.h ****         // Display Offset
 319:../DaisyExamples/libDaisy//src/dev/oled_ssd130x.h ****         transport_.SendCommand(0xD3);
ARM GAS  /var/folders/41/s_9r3f9s4p3_9jgx7wszdkhh0000gn/T//ccURNtC3.s 			page 19


 320:../DaisyExamples/libDaisy//src/dev/oled_ssd130x.h ****         transport_.SendCommand(0x00);
 321:../DaisyExamples/libDaisy//src/dev/oled_ssd130x.h ****         // Start Line Address
 322:../DaisyExamples/libDaisy//src/dev/oled_ssd130x.h ****         transport_.SendCommand(0x40);
 323:../DaisyExamples/libDaisy//src/dev/oled_ssd130x.h ****         // Normal Display
 324:../DaisyExamples/libDaisy//src/dev/oled_ssd130x.h ****         transport_.SendCommand(0xA6);
 325:../DaisyExamples/libDaisy//src/dev/oled_ssd130x.h ****         // All On Resume
 326:../DaisyExamples/libDaisy//src/dev/oled_ssd130x.h ****         transport_.SendCommand(0xA4);
 327:../DaisyExamples/libDaisy//src/dev/oled_ssd130x.h ****         // Charge Pump
 328:../DaisyExamples/libDaisy//src/dev/oled_ssd130x.h ****         transport_.SendCommand(0x8D);
 329:../DaisyExamples/libDaisy//src/dev/oled_ssd130x.h ****         transport_.SendCommand(0x14);
 330:../DaisyExamples/libDaisy//src/dev/oled_ssd130x.h ****         // Set Segment Remap
 331:../DaisyExamples/libDaisy//src/dev/oled_ssd130x.h ****         transport_.SendCommand(0xA1);
 332:../DaisyExamples/libDaisy//src/dev/oled_ssd130x.h ****         // COM Output Scan Direction
 333:../DaisyExamples/libDaisy//src/dev/oled_ssd130x.h ****         transport_.SendCommand(0xC8);
 334:../DaisyExamples/libDaisy//src/dev/oled_ssd130x.h ****         // Contrast Control
 335:../DaisyExamples/libDaisy//src/dev/oled_ssd130x.h ****         transport_.SendCommand(0x81);
 336:../DaisyExamples/libDaisy//src/dev/oled_ssd130x.h ****         transport_.SendCommand(0x8F);
 337:../DaisyExamples/libDaisy//src/dev/oled_ssd130x.h ****         // Pre Charge
 338:../DaisyExamples/libDaisy//src/dev/oled_ssd130x.h ****         transport_.SendCommand(0xD9);
 339:../DaisyExamples/libDaisy//src/dev/oled_ssd130x.h ****         transport_.SendCommand(0x25);
 340:../DaisyExamples/libDaisy//src/dev/oled_ssd130x.h ****         // VCOM Detect
 341:../DaisyExamples/libDaisy//src/dev/oled_ssd130x.h ****         transport_.SendCommand(0xDB);
 342:../DaisyExamples/libDaisy//src/dev/oled_ssd130x.h ****         transport_.SendCommand(0x34);
 343:../DaisyExamples/libDaisy//src/dev/oled_ssd130x.h **** 
 344:../DaisyExamples/libDaisy//src/dev/oled_ssd130x.h **** 
 345:../DaisyExamples/libDaisy//src/dev/oled_ssd130x.h ****         // Display On
 346:../DaisyExamples/libDaisy//src/dev/oled_ssd130x.h ****         transport_.SendCommand(0xAF); //--turn on oled panel
 347:../DaisyExamples/libDaisy//src/dev/oled_ssd130x.h ****     };
 348:../DaisyExamples/libDaisy//src/dev/oled_ssd130x.h **** 
 349:../DaisyExamples/libDaisy//src/dev/oled_ssd130x.h ****     size_t Width() const { return width; };
 350:../DaisyExamples/libDaisy//src/dev/oled_ssd130x.h ****     size_t Height() const { return height; };
 351:../DaisyExamples/libDaisy//src/dev/oled_ssd130x.h **** 
 352:../DaisyExamples/libDaisy//src/dev/oled_ssd130x.h ****     void DrawPixel(uint_fast8_t x, uint_fast8_t y, bool on)
 353:../DaisyExamples/libDaisy//src/dev/oled_ssd130x.h ****     {
 354:../DaisyExamples/libDaisy//src/dev/oled_ssd130x.h ****         if(x >= width || y >= height)
 355:../DaisyExamples/libDaisy//src/dev/oled_ssd130x.h ****             return;
 356:../DaisyExamples/libDaisy//src/dev/oled_ssd130x.h ****         if(on)
 357:../DaisyExamples/libDaisy//src/dev/oled_ssd130x.h ****             buffer_[x + (y / 8) * width] |= (1 << (y % 8));
 358:../DaisyExamples/libDaisy//src/dev/oled_ssd130x.h ****         else
 359:../DaisyExamples/libDaisy//src/dev/oled_ssd130x.h ****             buffer_[x + (y / 8) * width] &= ~(1 << (y % 8));
 360:../DaisyExamples/libDaisy//src/dev/oled_ssd130x.h ****     }
 361:../DaisyExamples/libDaisy//src/dev/oled_ssd130x.h **** 
 362:../DaisyExamples/libDaisy//src/dev/oled_ssd130x.h ****     void Fill(bool on)
 150              		.loc 4 362 10 view .LVU24
 151              	.LBB877:
 363:../DaisyExamples/libDaisy//src/dev/oled_ssd130x.h ****     {
 364:../DaisyExamples/libDaisy//src/dev/oled_ssd130x.h ****         for(size_t i = 0; i < sizeof(buffer_); i++)
 152              		.loc 4 364 29 view .LVU25
 365:../DaisyExamples/libDaisy//src/dev/oled_ssd130x.h ****         {
 366:../DaisyExamples/libDaisy//src/dev/oled_ssd130x.h ****             buffer_[i] = on ? 0xff : 0x00;
 153              		.loc 4 366 24 is_stmt 0 view .LVU26
 154 0000 4942     		rsbs	r1, r1, #0
 155              	.LVL5:
 156              		.loc 4 366 24 view .LVU27
 157 0002 4FF48062 		mov	r2, #1024
 158 0006 1030     		adds	r0, r0, #16
 159              	.LVL6:
ARM GAS  /var/folders/41/s_9r3f9s4p3_9jgx7wszdkhh0000gn/T//ccURNtC3.s 			page 20


 160              		.loc 4 366 24 view .LVU28
 161 0008 C9B2     		uxtb	r1, r1
 162 000a FFF7FEBF 		b	memset
 163              	.LVL7:
 164              		.loc 4 366 24 view .LVU29
 165              	.LBE877:
 166              	.LBE876:
 167              		.cfi_endproc
 168              	.LFE5326:
 170 000e 00BF     		.section	.text._ZN5daisy11OledDisplayINS_13SSD130xDriverILj128ELj64ENS_19SSD130xI2CTransportEEEE6U
 171              		.align	1
 172              		.p2align 2,,3
 173              		.weak	_ZN5daisy11OledDisplayINS_13SSD130xDriverILj128ELj64ENS_19SSD130xI2CTransportEEEE6UpdateEv
 174              		.syntax unified
 175              		.thumb
 176              		.thumb_func
 178              	_ZN5daisy11OledDisplayINS_13SSD130xDriverILj128ELj64ENS_19SSD130xI2CTransportEEEE6UpdateEv:
 179              	.LVL8:
 180              	.LFB5328:
  35:../DaisyExamples/libDaisy//src/hid/disp/oled_display.h **** 
  36:../DaisyExamples/libDaisy//src/hid/disp/oled_display.h ****     /**
  37:../DaisyExamples/libDaisy//src/hid/disp/oled_display.h ****     Sets the pixel at the specified coordinate to be on/off.
  38:../DaisyExamples/libDaisy//src/hid/disp/oled_display.h ****     \param x   x Coordinate
  39:../DaisyExamples/libDaisy//src/hid/disp/oled_display.h ****     \param y   y coordinate
  40:../DaisyExamples/libDaisy//src/hid/disp/oled_display.h ****     \param on  on or off
  41:../DaisyExamples/libDaisy//src/hid/disp/oled_display.h ****     */
  42:../DaisyExamples/libDaisy//src/hid/disp/oled_display.h ****     void DrawPixel(uint_fast8_t x, uint_fast8_t y, bool on) override
  43:../DaisyExamples/libDaisy//src/hid/disp/oled_display.h ****     {
  44:../DaisyExamples/libDaisy//src/hid/disp/oled_display.h ****         driver_.DrawPixel(x, y, on);
  45:../DaisyExamples/libDaisy//src/hid/disp/oled_display.h ****     }
  46:../DaisyExamples/libDaisy//src/hid/disp/oled_display.h **** 
  47:../DaisyExamples/libDaisy//src/hid/disp/oled_display.h ****     /** 
  48:../DaisyExamples/libDaisy//src/hid/disp/oled_display.h ****     Writes the current display buffer to the OLED device using SPI or I2C depending on 
  49:../DaisyExamples/libDaisy//src/hid/disp/oled_display.h ****     how the object was initialized.
  50:../DaisyExamples/libDaisy//src/hid/disp/oled_display.h ****     */
  51:../DaisyExamples/libDaisy//src/hid/disp/oled_display.h ****     void Update() override { driver_.Update(); }
 181              		.loc 3 51 10 is_stmt 1 view -0
 182              		.cfi_startproc
 183              		@ args = 0, pretend = 0, frame = 8
 184              		@ frame_needed = 0, uses_anonymous_args = 0
 185              		.loc 3 51 10 is_stmt 0 view .LVU31
 186 0000 2DE9F04F 		push	{r4, r5, r6, r7, r8, r9, r10, fp, lr}
 187              		.cfi_def_cfa_offset 36
 188              		.cfi_offset 4, -36
 189              		.cfi_offset 5, -32
 190              		.cfi_offset 6, -28
 191              		.cfi_offset 7, -24
 192              		.cfi_offset 8, -20
 193              		.cfi_offset 9, -16
 194              		.cfi_offset 10, -12
 195              		.cfi_offset 11, -8
 196              		.cfi_offset 14, -4
 197              	.LBB890:
 198              	.LBB891:
 199              	.LBB892:
 200              	.LBB893:
  45:../DaisyExamples/libDaisy//src/dev/oled_ssd130x.h ****     };
ARM GAS  /var/folders/41/s_9r3f9s4p3_9jgx7wszdkhh0000gn/T//ccURNtC3.s 			page 21


 201              		.loc 4 45 30 view .LVU32
 202 0004 4FF0B008 		mov	r8, #176
 203              	.LBE893:
 204              	.LBE892:
 205              	.LBE891:
 206              	.LBE890:
 207              		.loc 3 51 10 view .LVU33
 208 0008 85B0     		sub	sp, sp, #20
 209              		.cfi_def_cfa_offset 56
 210              		.loc 3 51 10 view .LVU34
 211 000a 0546     		mov	r5, r0
 212              	.LVL9:
 213              	.LBB905:
 214              	.LBI890:
 367:../DaisyExamples/libDaisy//src/dev/oled_ssd130x.h ****         }
 368:../DaisyExamples/libDaisy//src/dev/oled_ssd130x.h ****     };
 369:../DaisyExamples/libDaisy//src/dev/oled_ssd130x.h **** 
 370:../DaisyExamples/libDaisy//src/dev/oled_ssd130x.h ****     /**
 371:../DaisyExamples/libDaisy//src/dev/oled_ssd130x.h ****      * Update the display 
 372:../DaisyExamples/libDaisy//src/dev/oled_ssd130x.h ****     */
 373:../DaisyExamples/libDaisy//src/dev/oled_ssd130x.h ****     void Update()
 215              		.loc 4 373 10 is_stmt 1 view .LVU35
 216              	.LBB904:
 374:../DaisyExamples/libDaisy//src/dev/oled_ssd130x.h ****     {
 375:../DaisyExamples/libDaisy//src/dev/oled_ssd130x.h ****         uint8_t i;
 376:../DaisyExamples/libDaisy//src/dev/oled_ssd130x.h ****         uint8_t high_column_addr;
 377:../DaisyExamples/libDaisy//src/dev/oled_ssd130x.h ****         switch(height)
 378:../DaisyExamples/libDaisy//src/dev/oled_ssd130x.h ****         {
 379:../DaisyExamples/libDaisy//src/dev/oled_ssd130x.h ****             case 32: high_column_addr = 0x12; break;
 380:../DaisyExamples/libDaisy//src/dev/oled_ssd130x.h **** 
 381:../DaisyExamples/libDaisy//src/dev/oled_ssd130x.h ****             default: high_column_addr = 0x10; break;
 382:../DaisyExamples/libDaisy//src/dev/oled_ssd130x.h ****         }
 383:../DaisyExamples/libDaisy//src/dev/oled_ssd130x.h ****         for(i = 0; i < (height / 8); i++)
 217              		.loc 4 383 22 view .LVU36
 218              	.LBB896:
 219              	.LBB894:
  45:../DaisyExamples/libDaisy//src/dev/oled_ssd130x.h ****     };
 220              		.loc 4 45 30 is_stmt 0 view .LVU37
 221 000c 00F10807 		add	r7, r0, #8
 222              	.LVL10:
  45:../DaisyExamples/libDaisy//src/dev/oled_ssd130x.h ****     };
 223              		.loc 4 45 30 view .LVU38
 224 0010 00F18F06 		add	r6, r0, #143
 225 0014 00F28F49 		addw	r9, r0, #1167
 226              	.LVL11:
 227              	.L9:
  45:../DaisyExamples/libDaisy//src/dev/oled_ssd130x.h ****     };
 228              		.loc 4 45 30 view .LVU39
 229              	.LBE894:
 230              	.LBI892:
  42:../DaisyExamples/libDaisy//src/dev/oled_ssd130x.h ****     {
 231              		.loc 4 42 10 is_stmt 1 view .LVU40
 232              	.LBB895:
  44:../DaisyExamples/libDaisy//src/dev/oled_ssd130x.h ****         i2c_.TransmitBlocking(i2c_address_, buf, 2, 1000);
 233              		.loc 4 44 9 view .LVU41
  45:../DaisyExamples/libDaisy//src/dev/oled_ssd130x.h ****     };
 234              		.loc 4 45 30 is_stmt 0 view .LVU42
ARM GAS  /var/folders/41/s_9r3f9s4p3_9jgx7wszdkhh0000gn/T//ccURNtC3.s 			page 22


 235 0018 4FF47A7B 		mov	fp, #1000
  44:../DaisyExamples/libDaisy//src/dev/oled_ssd130x.h ****         i2c_.TransmitBlocking(i2c_address_, buf, 2, 1000);
 236              		.loc 4 44 17 view .LVU43
 237 001c 4FF0000A 		mov	r10, #0
  45:../DaisyExamples/libDaisy//src/dev/oled_ssd130x.h ****     };
 238              		.loc 4 45 30 view .LVU44
 239 0020 297B     		ldrb	r1, [r5, #12]	@ zero_extendqisi2
 240 0022 0223     		movs	r3, #2
 241 0024 03AA     		add	r2, sp, #12
 242 0026 3846     		mov	r0, r7
 243 0028 CDF800B0 		str	fp, [sp]
 244 002c A6F18004 		sub	r4, r6, #128
  44:../DaisyExamples/libDaisy//src/dev/oled_ssd130x.h ****         i2c_.TransmitBlocking(i2c_address_, buf, 2, 1000);
 245              		.loc 4 44 17 view .LVU45
 246 0030 8DF80CA0 		strb	r10, [sp, #12]
  44:../DaisyExamples/libDaisy//src/dev/oled_ssd130x.h ****         i2c_.TransmitBlocking(i2c_address_, buf, 2, 1000);
 247              		.loc 4 44 36 view .LVU46
 248 0034 8DF80D80 		strb	r8, [sp, #13]
  45:../DaisyExamples/libDaisy//src/dev/oled_ssd130x.h ****     };
 249              		.loc 4 45 9 is_stmt 1 view .LVU47
  45:../DaisyExamples/libDaisy//src/dev/oled_ssd130x.h ****     };
 250              		.loc 4 45 30 is_stmt 0 view .LVU48
 251 0038 FFF7FEFF 		bl	_ZN5daisy9I2CHandle16TransmitBlockingEtPhtm
 252              	.LVL12:
  45:../DaisyExamples/libDaisy//src/dev/oled_ssd130x.h ****     };
 253              		.loc 4 45 30 view .LVU49
 254              	.LBE895:
 255              	.LBE896:
 256              	.LBB897:
 257              	.LBI897:
  42:../DaisyExamples/libDaisy//src/dev/oled_ssd130x.h ****     {
 258              		.loc 4 42 10 is_stmt 1 view .LVU50
 259              	.LBB898:
  44:../DaisyExamples/libDaisy//src/dev/oled_ssd130x.h ****         i2c_.TransmitBlocking(i2c_address_, buf, 2, 1000);
 260              		.loc 4 44 9 view .LVU51
  45:../DaisyExamples/libDaisy//src/dev/oled_ssd130x.h ****     };
 261              		.loc 4 45 30 is_stmt 0 view .LVU52
 262 003c 297B     		ldrb	r1, [r5, #12]	@ zero_extendqisi2
 263 003e 0223     		movs	r3, #2
 264 0040 03AA     		add	r2, sp, #12
 265 0042 3846     		mov	r0, r7
 266 0044 CDF800B0 		str	fp, [sp]
  44:../DaisyExamples/libDaisy//src/dev/oled_ssd130x.h ****         i2c_.TransmitBlocking(i2c_address_, buf, 2, 1000);
 267              		.loc 4 44 17 view .LVU53
 268 0048 8DF80CA0 		strb	r10, [sp, #12]
  44:../DaisyExamples/libDaisy//src/dev/oled_ssd130x.h ****         i2c_.TransmitBlocking(i2c_address_, buf, 2, 1000);
 269              		.loc 4 44 36 view .LVU54
 270 004c 8DF80DA0 		strb	r10, [sp, #13]
  45:../DaisyExamples/libDaisy//src/dev/oled_ssd130x.h ****     };
 271              		.loc 4 45 9 is_stmt 1 view .LVU55
  45:../DaisyExamples/libDaisy//src/dev/oled_ssd130x.h ****     };
 272              		.loc 4 45 30 is_stmt 0 view .LVU56
 273 0050 FFF7FEFF 		bl	_ZN5daisy9I2CHandle16TransmitBlockingEtPhtm
 274              	.LVL13:
  45:../DaisyExamples/libDaisy//src/dev/oled_ssd130x.h ****     };
 275              		.loc 4 45 30 view .LVU57
 276              	.LBE898:
ARM GAS  /var/folders/41/s_9r3f9s4p3_9jgx7wszdkhh0000gn/T//ccURNtC3.s 			page 23


 277              	.LBE897:
 278              	.LBB899:
 279              	.LBI899:
  42:../DaisyExamples/libDaisy//src/dev/oled_ssd130x.h ****     {
 280              		.loc 4 42 10 is_stmt 1 view .LVU58
 281              	.LBB900:
  44:../DaisyExamples/libDaisy//src/dev/oled_ssd130x.h ****         i2c_.TransmitBlocking(i2c_address_, buf, 2, 1000);
 282              		.loc 4 44 9 view .LVU59
  44:../DaisyExamples/libDaisy//src/dev/oled_ssd130x.h ****         i2c_.TransmitBlocking(i2c_address_, buf, 2, 1000);
 283              		.loc 4 44 36 is_stmt 0 view .LVU60
 284 0054 4FF0100C 		mov	ip, #16
  45:../DaisyExamples/libDaisy//src/dev/oled_ssd130x.h ****     };
 285              		.loc 4 45 30 view .LVU61
 286 0058 297B     		ldrb	r1, [r5, #12]	@ zero_extendqisi2
 287 005a 0223     		movs	r3, #2
 288 005c 03AA     		add	r2, sp, #12
 289 005e 3846     		mov	r0, r7
 290 0060 CDF800B0 		str	fp, [sp]
  44:../DaisyExamples/libDaisy//src/dev/oled_ssd130x.h ****         i2c_.TransmitBlocking(i2c_address_, buf, 2, 1000);
 291              		.loc 4 44 17 view .LVU62
 292 0064 8DF80CA0 		strb	r10, [sp, #12]
  44:../DaisyExamples/libDaisy//src/dev/oled_ssd130x.h ****         i2c_.TransmitBlocking(i2c_address_, buf, 2, 1000);
 293              		.loc 4 44 36 view .LVU63
 294 0068 8DF80DC0 		strb	ip, [sp, #13]
  45:../DaisyExamples/libDaisy//src/dev/oled_ssd130x.h ****     };
 295              		.loc 4 45 9 is_stmt 1 view .LVU64
  45:../DaisyExamples/libDaisy//src/dev/oled_ssd130x.h ****     };
 296              		.loc 4 45 30 is_stmt 0 view .LVU65
 297 006c FFF7FEFF 		bl	_ZN5daisy9I2CHandle16TransmitBlockingEtPhtm
 298              	.LVL14:
  45:../DaisyExamples/libDaisy//src/dev/oled_ssd130x.h ****     };
 299              		.loc 4 45 30 view .LVU66
 300              	.LBE900:
 301              	.LBE899:
 302              	.LBB901:
 303              	.LBI901:
  48:../DaisyExamples/libDaisy//src/dev/oled_ssd130x.h ****     {
 304              		.loc 4 48 10 is_stmt 1 view .LVU67
 305              	.LBB902:
  50:../DaisyExamples/libDaisy//src/dev/oled_ssd130x.h ****         {
 306              		.loc 4 50 29 view .LVU68
 307              	.L8:
 308              	.LBB903:
  52:../DaisyExamples/libDaisy//src/dev/oled_ssd130x.h ****             i2c_.TransmitBlocking(i2c_address_, buf, 2, 1000);
 309              		.loc 4 52 13 view .LVU69
  53:../DaisyExamples/libDaisy//src/dev/oled_ssd130x.h ****         }
 310              		.loc 4 53 34 is_stmt 0 view .LVU70
 311 0070 4FF47A70 		mov	r0, #1000
  52:../DaisyExamples/libDaisy//src/dev/oled_ssd130x.h ****             i2c_.TransmitBlocking(i2c_address_, buf, 2, 1000);
 312              		.loc 4 52 44 view .LVU71
 313 0074 14F801CF 		ldrb	ip, [r4, #1]!	@ zero_extendqisi2
 314              	.LVL15:
  52:../DaisyExamples/libDaisy//src/dev/oled_ssd130x.h ****             i2c_.TransmitBlocking(i2c_address_, buf, 2, 1000);
 315              		.loc 4 52 21 view .LVU72
 316 0078 4FF0400E 		mov	lr, #64
  53:../DaisyExamples/libDaisy//src/dev/oled_ssd130x.h ****         }
 317              		.loc 4 53 34 view .LVU73
ARM GAS  /var/folders/41/s_9r3f9s4p3_9jgx7wszdkhh0000gn/T//ccURNtC3.s 			page 24


 318 007c 297B     		ldrb	r1, [r5, #12]	@ zero_extendqisi2
 319 007e 0223     		movs	r3, #2
 320 0080 0090     		str	r0, [sp]
 321 0082 03AA     		add	r2, sp, #12
 322 0084 3846     		mov	r0, r7
  52:../DaisyExamples/libDaisy//src/dev/oled_ssd130x.h ****             i2c_.TransmitBlocking(i2c_address_, buf, 2, 1000);
 323              		.loc 4 52 21 view .LVU74
 324 0086 8DF80CE0 		strb	lr, [sp, #12]
  52:../DaisyExamples/libDaisy//src/dev/oled_ssd130x.h ****             i2c_.TransmitBlocking(i2c_address_, buf, 2, 1000);
 325              		.loc 4 52 44 view .LVU75
 326 008a 8DF80DC0 		strb	ip, [sp, #13]
  53:../DaisyExamples/libDaisy//src/dev/oled_ssd130x.h ****         }
 327              		.loc 4 53 13 is_stmt 1 view .LVU76
  53:../DaisyExamples/libDaisy//src/dev/oled_ssd130x.h ****         }
 328              		.loc 4 53 34 is_stmt 0 view .LVU77
 329 008e FFF7FEFF 		bl	_ZN5daisy9I2CHandle16TransmitBlockingEtPhtm
 330              	.LVL16:
 331              	.LBE903:
  50:../DaisyExamples/libDaisy//src/dev/oled_ssd130x.h ****         {
 332              		.loc 4 50 9 is_stmt 1 view .LVU78
  50:../DaisyExamples/libDaisy//src/dev/oled_ssd130x.h ****         {
 333              		.loc 4 50 29 view .LVU79
 334 0092 B442     		cmp	r4, r6
 335 0094 ECD1     		bne	.L8
 336              	.LVL17:
  50:../DaisyExamples/libDaisy//src/dev/oled_ssd130x.h ****         {
 337              		.loc 4 50 29 is_stmt 0 view .LVU80
 338              	.LBE902:
 339              	.LBE901:
 340              		.loc 4 383 9 is_stmt 1 view .LVU81
 341              		.loc 4 383 22 view .LVU82
 342 0096 04F18006 		add	r6, r4, #128
 343 009a 08F10108 		add	r8, r8, #1
 344              	.LVL18:
 345              		.loc 4 383 22 is_stmt 0 view .LVU83
 346 009e 4E45     		cmp	r6, r9
 347 00a0 5FFA88F8 		uxtb	r8, r8
 348 00a4 B8D1     		bne	.L9
 349              	.LBE904:
 350              	.LBE905:
 351              		.loc 3 51 48 view .LVU84
 352 00a6 05B0     		add	sp, sp, #20
 353              		.cfi_def_cfa_offset 36
 354              		@ sp needed
 355 00a8 BDE8F08F 		pop	{r4, r5, r6, r7, r8, r9, r10, fp, pc}
 356              		.loc 3 51 48 view .LVU85
 357              		.cfi_endproc
 358              	.LFE5328:
 360              		.section	.text._ZN5daisy11OledDisplayINS_13SSD130xDriverILj128ELj64ENS_19SSD130xI2CTransportEEEE9D
 361              		.align	1
 362              		.p2align 2,,3
 363              		.weak	_ZN5daisy11OledDisplayINS_13SSD130xDriverILj128ELj64ENS_19SSD130xI2CTransportEEEE9DrawPixelE
 364              		.syntax unified
 365              		.thumb
 366              		.thumb_func
 368              	_ZN5daisy11OledDisplayINS_13SSD130xDriverILj128ELj64ENS_19SSD130xI2CTransportEEEE9DrawPixelEjjb:
 369              	.LVL19:
ARM GAS  /var/folders/41/s_9r3f9s4p3_9jgx7wszdkhh0000gn/T//ccURNtC3.s 			page 25


 370              	.LFB5325:
  42:../DaisyExamples/libDaisy//src/hid/disp/oled_display.h ****     {
 371              		.loc 3 42 10 is_stmt 1 view -0
 372              		.cfi_startproc
 373              		@ args = 0, pretend = 0, frame = 0
 374              		@ frame_needed = 0, uses_anonymous_args = 0
 375              		@ link register save eliminated.
 376              	.LBB910:
 377              	.LBI910:
 352:../DaisyExamples/libDaisy//src/dev/oled_ssd130x.h ****     {
 378              		.loc 4 352 10 view .LVU87
 379              	.LBB911:
 354:../DaisyExamples/libDaisy//src/dev/oled_ssd130x.h ****             return;
 380              		.loc 4 354 9 is_stmt 0 view .LVU88
 381 0000 7F29     		cmp	r1, #127
 382 0002 1ED8     		bhi	.L13
 383 0004 3F2A     		cmp	r2, #63
 384 0006 1CD8     		bhi	.L13
 356:../DaisyExamples/libDaisy//src/dev/oled_ssd130x.h ****             buffer_[x + (y / 8) * width] |= (1 << (y % 8));
 385              		.loc 4 356 9 view .LVU89
 386 0008 6BB1     		cbz	r3, .L15
 357:../DaisyExamples/libDaisy//src/dev/oled_ssd130x.h ****         else
 387              		.loc 4 357 28 view .LVU90
 388 000a D308     		lsrs	r3, r2, #3
 389              	.LVL20:
 357:../DaisyExamples/libDaisy//src/dev/oled_ssd130x.h ****         else
 390              		.loc 4 357 48 view .LVU91
 391 000c 4FF0010C 		mov	ip, #1
 357:../DaisyExamples/libDaisy//src/dev/oled_ssd130x.h ****         else
 392              		.loc 4 357 54 view .LVU92
 393 0010 02F00702 		and	r2, r2, #7
 394              	.LVL21:
 357:../DaisyExamples/libDaisy//src/dev/oled_ssd130x.h ****         else
 395              		.loc 4 357 42 view .LVU93
 396 0014 01EBC313 		add	r3, r1, r3, lsl #7
 357:../DaisyExamples/libDaisy//src/dev/oled_ssd130x.h ****         else
 397              		.loc 4 357 48 view .LVU94
 398 0018 0CFA02F2 		lsl	r2, ip, r2
 357:../DaisyExamples/libDaisy//src/dev/oled_ssd130x.h ****         else
 399              		.loc 4 357 42 view .LVU95
 400 001c C118     		adds	r1, r0, r3
 401              	.LVL22:
 357:../DaisyExamples/libDaisy//src/dev/oled_ssd130x.h ****         else
 402              		.loc 4 357 42 view .LVU96
 403 001e 0B7C     		ldrb	r3, [r1, #16]	@ zero_extendqisi2
 404 0020 1A43     		orrs	r2, r2, r3
 405 0022 0A74     		strb	r2, [r1, #16]
 406 0024 7047     		bx	lr
 407              	.LVL23:
 408              	.L15:
 409              	.LBB912:
 410              	.LBI912:
 352:../DaisyExamples/libDaisy//src/dev/oled_ssd130x.h ****     {
 411              		.loc 4 352 10 is_stmt 1 view .LVU97
 412              	.LBB913:
 359:../DaisyExamples/libDaisy//src/dev/oled_ssd130x.h ****     }
 413              		.loc 4 359 28 is_stmt 0 view .LVU98
ARM GAS  /var/folders/41/s_9r3f9s4p3_9jgx7wszdkhh0000gn/T//ccURNtC3.s 			page 26


 414 0026 D308     		lsrs	r3, r2, #3
 415              	.LVL24:
 359:../DaisyExamples/libDaisy//src/dev/oled_ssd130x.h ****     }
 416              		.loc 4 359 49 view .LVU99
 417 0028 4FF0010C 		mov	ip, #1
 359:../DaisyExamples/libDaisy//src/dev/oled_ssd130x.h ****     }
 418              		.loc 4 359 55 view .LVU100
 419 002c 02F00702 		and	r2, r2, #7
 420              	.LVL25:
 359:../DaisyExamples/libDaisy//src/dev/oled_ssd130x.h ****     }
 421              		.loc 4 359 42 view .LVU101
 422 0030 01EBC313 		add	r3, r1, r3, lsl #7
 359:../DaisyExamples/libDaisy//src/dev/oled_ssd130x.h ****     }
 423              		.loc 4 359 49 view .LVU102
 424 0034 0CFA02FC 		lsl	ip, ip, r2
 359:../DaisyExamples/libDaisy//src/dev/oled_ssd130x.h ****     }
 425              		.loc 4 359 42 view .LVU103
 426 0038 C118     		adds	r1, r0, r3
 427              	.LVL26:
 359:../DaisyExamples/libDaisy//src/dev/oled_ssd130x.h ****     }
 428              		.loc 4 359 42 view .LVU104
 429 003a 0A7C     		ldrb	r2, [r1, #16]	@ zero_extendqisi2
 430 003c 22EA0C02 		bic	r2, r2, ip
 431 0040 0A74     		strb	r2, [r1, #16]
 432              	.LVL27:
 433              	.L13:
 359:../DaisyExamples/libDaisy//src/dev/oled_ssd130x.h ****     }
 434              		.loc 4 359 42 view .LVU105
 435              	.LBE913:
 436              	.LBE912:
 437              	.LBE911:
 438              	.LBE910:
  45:../DaisyExamples/libDaisy//src/hid/disp/oled_display.h **** 
 439              		.loc 3 45 5 view .LVU106
 440 0042 7047     		bx	lr
 441              		.cfi_endproc
 442              	.LFE5325:
 444              		.section	.text._ZN9Sequencer8InitStepEP4Step,"ax",%progbits
 445              		.align	1
 446              		.p2align 2,,3
 447              		.global	_ZN9Sequencer8InitStepEP4Step
 448              		.syntax unified
 449              		.thumb
 450              		.thumb_func
 452              	_ZN9Sequencer8InitStepEP4Step:
 453              	.LVL28:
 454              	.LFB4945:
  22:src/UI/sequencer.cpp **** void Sequencer::InitStep(Step* step) {
 455              		.loc 2 22 38 is_stmt 1 view -0
 456              		.cfi_startproc
 457              		@ args = 0, pretend = 0, frame = 0
 458              		@ frame_needed = 0, uses_anonymous_args = 0
 459              		@ link register save eliminated.
  23:src/UI/sequencer.cpp ****     step->note = 48;
 460              		.loc 2 23 5 view .LVU108
  24:src/UI/sequencer.cpp ****     step->instrument = -1;
 461              		.loc 2 24 5 view .LVU109
ARM GAS  /var/folders/41/s_9r3f9s4p3_9jgx7wszdkhh0000gn/T//ccURNtC3.s 			page 27


  25:src/UI/sequencer.cpp ****     step->fx = 0;
 462              		.loc 2 25 5 view .LVU110
  26:src/UI/sequencer.cpp ****     step->fxAmount = 0;
 463              		.loc 2 26 5 view .LVU111
  27:src/UI/sequencer.cpp ****     step->selected = false;
 464              		.loc 2 27 5 view .LVU112
  28:src/UI/sequencer.cpp ****     step->paramEdit = Step::i;
 465              		.loc 2 28 5 view .LVU113
  25:src/UI/sequencer.cpp ****     step->fx = 0;
 466              		.loc 2 25 14 is_stmt 0 view .LVU114
 467 0000 0023     		movs	r3, #0
  23:src/UI/sequencer.cpp ****     step->note = 48;
 468              		.loc 2 23 16 view .LVU115
 469 0002 4FF0FF30 		mov	r0, #-1
 470              	.LVL29:
  23:src/UI/sequencer.cpp ****     step->note = 48;
 471              		.loc 2 23 16 view .LVU116
 472 0006 3022     		movs	r2, #48
  27:src/UI/sequencer.cpp ****     step->selected = false;
 473              		.loc 2 27 20 view .LVU117
 474 0008 0B82     		strh	r3, [r1, #16]	@ movhi
  23:src/UI/sequencer.cpp ****     step->note = 48;
 475              		.loc 2 23 16 view .LVU118
 476 000a C1E90002 		strd	r0, r2, [r1]
  26:src/UI/sequencer.cpp ****     step->fxAmount = 0;
 477              		.loc 2 26 20 view .LVU119
 478 000e C1E90233 		strd	r3, r3, [r1, #8]
  29:src/UI/sequencer.cpp **** }
 479              		.loc 2 29 1 view .LVU120
 480 0012 7047     		bx	lr
 481              		.cfi_endproc
 482              	.LFE4945:
 484              		.section	.text._ZN9Sequencer10DrawSquareEiib,"ax",%progbits
 485              		.align	1
 486              		.p2align 2,,3
 487              		.global	_ZN9Sequencer10DrawSquareEiib
 488              		.syntax unified
 489              		.thumb
 490              		.thumb_func
 492              	_ZN9Sequencer10DrawSquareEiib:
 493              	.LVL30:
 494              	.LFB4947:
  88:src/UI/sequencer.cpp **** void Sequencer::DrawSquare(int x, int y, bool fill) {
 495              		.loc 2 88 53 is_stmt 1 view -0
 496              		.cfi_startproc
 497              		@ args = 0, pretend = 0, frame = 8
 498              		@ frame_needed = 0, uses_anonymous_args = 0
  89:src/UI/sequencer.cpp ****     if (fill) {
 499              		.loc 2 89 5 view .LVU122
  88:src/UI/sequencer.cpp **** void Sequencer::DrawSquare(int x, int y, bool fill) {
 500              		.loc 2 88 53 is_stmt 0 view .LVU123
 501 0000 2DE9F04F 		push	{r4, r5, r6, r7, r8, r9, r10, fp, lr}
 502              		.cfi_def_cfa_offset 36
 503              		.cfi_offset 4, -36
 504              		.cfi_offset 5, -32
 505              		.cfi_offset 6, -28
 506              		.cfi_offset 7, -24
ARM GAS  /var/folders/41/s_9r3f9s4p3_9jgx7wszdkhh0000gn/T//ccURNtC3.s 			page 28


 507              		.cfi_offset 8, -20
 508              		.cfi_offset 9, -16
 509              		.cfi_offset 10, -12
 510              		.cfi_offset 11, -8
 511              		.cfi_offset 14, -4
 512 0004 0546     		mov	r5, r0
 513 0006 83B0     		sub	sp, sp, #12
 514              		.cfi_def_cfa_offset 48
  88:src/UI/sequencer.cpp **** void Sequencer::DrawSquare(int x, int y, bool fill) {
 515              		.loc 2 88 53 view .LVU124
 516 0008 0C46     		mov	r4, r1
 517 000a 1746     		mov	r7, r2
 518              	.LBB993:
  89:src/UI/sequencer.cpp ****     if (fill) {
 519              		.loc 2 89 5 view .LVU125
 520 000c 8BB3     		cbz	r3, .L18
 521              	.LVL31:
 522              	.LBB994:
  90:src/UI/sequencer.cpp ****         for (int i = x; i < x + 7; i++) {
 523              		.loc 2 90 27 is_stmt 1 view .LVU126
 524 000e 01F1060A 		add	r10, r1, #6
 525              	.LBB995:
  91:src/UI/sequencer.cpp ****             for (int j = y; j < y + 7; j++) {
 526              		.loc 2 91 31 is_stmt 0 view .LVU127
 527 0012 02F10609 		add	r9, r2, #6
 528 0016 AF4E     		ldr	r6, .L64
 529 0018 8B46     		mov	fp, r1
 530              	.LVL32:
 531              	.L22:
  91:src/UI/sequencer.cpp ****             for (int j = y; j < y + 7; j++) {
 532              		.loc 2 91 31 is_stmt 1 view .LVU128
 533              	.LBE995:
 534              	.LBE994:
 535              	.LBE993:
  88:src/UI/sequencer.cpp **** void Sequencer::DrawSquare(int x, int y, bool fill) {
 536              		.loc 2 88 53 is_stmt 0 view .LVU129
 537 001a B846     		mov	r8, r7
 538 001c 0CE0     		b	.L21
 539              	.LVL33:
 540              	.L52:
 541              	.LBB1046:
 542              	.LBB1009:
 543              	.LBB1008:
 544              	.LBB996:
 545              	.LBB997:
 546              	.LBB998:
 354:../DaisyExamples/libDaisy//src/dev/oled_ssd130x.h ****             return;
 547              		.loc 4 354 9 view .LVU130
 548 001e BBF17F0F 		cmp	fp, #127
 549 0022 05D8     		bhi	.L20
 550 0024 B8F13F0F 		cmp	r8, #63
 551 0028 02D8     		bhi	.L20
 357:../DaisyExamples/libDaisy//src/dev/oled_ssd130x.h ****         else
 552              		.loc 4 357 42 view .LVU131
 553 002a 1A7C     		ldrb	r2, [r3, #16]	@ zero_extendqisi2
 554 002c 1143     		orrs	r1, r1, r2
 555 002e 1974     		strb	r1, [r3, #16]
ARM GAS  /var/folders/41/s_9r3f9s4p3_9jgx7wszdkhh0000gn/T//ccURNtC3.s 			page 29


 556              	.L20:
 557              	.LVL34:
 357:../DaisyExamples/libDaisy//src/dev/oled_ssd130x.h ****         else
 558              		.loc 4 357 42 view .LVU132
 559              	.LBE998:
 560              	.LBE997:
 561              	.LBE996:
  91:src/UI/sequencer.cpp ****             for (int j = y; j < y + 7; j++) {
 562              		.loc 2 91 13 is_stmt 1 discriminator 2 view .LVU133
 563 0030 08F10108 		add	r8, r8, #1
 564              	.LVL35:
  91:src/UI/sequencer.cpp ****             for (int j = y; j < y + 7; j++) {
 565              		.loc 2 91 31 discriminator 2 view .LVU134
 566 0034 C845     		cmp	r8, r9
 567 0036 15DC     		bgt	.L51
 568              	.L21:
  92:src/UI/sequencer.cpp ****                 display_->DrawPixel(i, j, true);
 569              		.loc 2 92 17 discriminator 2 view .LVU135
 570 0038 6868     		ldr	r0, [r5, #4]
 571              	.LVL36:
 572              	.LBB1005:
 573              	.LBI996:
  42:../DaisyExamples/libDaisy//src/hid/disp/oled_display.h ****     {
 574              		.loc 3 42 10 discriminator 2 view .LVU136
 575              	.LBB1002:
 576              	.LBI997:
 352:../DaisyExamples/libDaisy//src/dev/oled_ssd130x.h ****     {
 577              		.loc 4 352 10 discriminator 2 view .LVU137
 578              	.LBB999:
 357:../DaisyExamples/libDaisy//src/dev/oled_ssd130x.h ****         else
 579              		.loc 4 357 54 is_stmt 0 discriminator 2 view .LVU138
 580 003a 08F00704 		and	r4, r8, #7
 357:../DaisyExamples/libDaisy//src/dev/oled_ssd130x.h ****         else
 581              		.loc 4 357 48 discriminator 2 view .LVU139
 582 003e 0121     		movs	r1, #1
 357:../DaisyExamples/libDaisy//src/dev/oled_ssd130x.h ****         else
 583              		.loc 4 357 28 discriminator 2 view .LVU140
 584 0040 4FEAD803 		lsr	r3, r8, #3
 585              	.LBE999:
 586              	.LBE1002:
 587              	.LBE1005:
  92:src/UI/sequencer.cpp ****                 display_->DrawPixel(i, j, true);
 588              		.loc 2 92 47 discriminator 2 view .LVU141
 589 0044 0268     		ldr	r2, [r0]
 590              	.LBB1006:
 591              	.LBB1003:
 592              	.LBB1000:
 357:../DaisyExamples/libDaisy//src/dev/oled_ssd130x.h ****         else
 593              		.loc 4 357 48 discriminator 2 view .LVU142
 594 0046 A140     		lsls	r1, r1, r4
 357:../DaisyExamples/libDaisy//src/dev/oled_ssd130x.h ****         else
 595              		.loc 4 357 42 discriminator 2 view .LVU143
 596 0048 0BEBC313 		add	r3, fp, r3, lsl #7
 597              	.LBE1000:
 598              	.LBE1003:
 599              	.LBE1006:
  92:src/UI/sequencer.cpp ****                 display_->DrawPixel(i, j, true);
ARM GAS  /var/folders/41/s_9r3f9s4p3_9jgx7wszdkhh0000gn/T//ccURNtC3.s 			page 30


 600              		.loc 2 92 47 discriminator 2 view .LVU144
 601 004c 5469     		ldr	r4, [r2, #20]
 602              	.LBB1007:
 603              	.LBB1004:
 604              	.LBB1001:
 357:../DaisyExamples/libDaisy//src/dev/oled_ssd130x.h ****         else
 605              		.loc 4 357 42 discriminator 2 view .LVU145
 606 004e 0344     		add	r3, r3, r0
 607 0050 B442     		cmp	r4, r6
 608 0052 E4D0     		beq	.L52
 357:../DaisyExamples/libDaisy//src/dev/oled_ssd130x.h ****         else
 609              		.loc 4 357 42 discriminator 2 view .LVU146
 610              	.LBE1001:
 611              	.LBE1004:
 612              	.LBE1007:
  92:src/UI/sequencer.cpp ****                 display_->DrawPixel(i, j, true);
 613              		.loc 2 92 36 discriminator 2 view .LVU147
 614 0054 4246     		mov	r2, r8
  91:src/UI/sequencer.cpp ****             for (int j = y; j < y + 7; j++) {
 615              		.loc 2 91 13 discriminator 2 view .LVU148
 616 0056 08F10108 		add	r8, r8, #1
 617              	.LVL37:
  92:src/UI/sequencer.cpp ****                 display_->DrawPixel(i, j, true);
 618              		.loc 2 92 36 discriminator 2 view .LVU149
 619 005a 0123     		movs	r3, #1
 620 005c 5946     		mov	r1, fp
 621 005e A047     		blx	r4
 622              	.LVL38:
  91:src/UI/sequencer.cpp ****             for (int j = y; j < y + 7; j++) {
 623              		.loc 2 91 13 is_stmt 1 discriminator 2 view .LVU150
  91:src/UI/sequencer.cpp ****             for (int j = y; j < y + 7; j++) {
 624              		.loc 2 91 31 discriminator 2 view .LVU151
 625 0060 C845     		cmp	r8, r9
 626 0062 E9DD     		ble	.L21
 627              	.L51:
  91:src/UI/sequencer.cpp ****             for (int j = y; j < y + 7; j++) {
 628              		.loc 2 91 31 is_stmt 0 discriminator 2 view .LVU152
 629              	.LBE1008:
  90:src/UI/sequencer.cpp ****         for (int i = x; i < x + 7; i++) {
 630              		.loc 2 90 9 is_stmt 1 discriminator 2 view .LVU153
 631 0064 0BF1010B 		add	fp, fp, #1
 632              	.LVL39:
  90:src/UI/sequencer.cpp ****         for (int i = x; i < x + 7; i++) {
 633              		.loc 2 90 27 discriminator 2 view .LVU154
 634 0068 D345     		cmp	fp, r10
 635 006a D6DD     		ble	.L22
 636              	.LVL40:
 637              	.L17:
  90:src/UI/sequencer.cpp ****         for (int i = x; i < x + 7; i++) {
 638              		.loc 2 90 27 is_stmt 0 discriminator 2 view .LVU155
 639              	.LBE1009:
 640              	.LBE1046:
 112:src/UI/sequencer.cpp **** }
 641              		.loc 2 112 1 view .LVU156
 642 006c 03B0     		add	sp, sp, #12
 643              		.cfi_remember_state
 644              		.cfi_def_cfa_offset 36
ARM GAS  /var/folders/41/s_9r3f9s4p3_9jgx7wszdkhh0000gn/T//ccURNtC3.s 			page 31


 645              		@ sp needed
 646 006e BDE8F08F 		pop	{r4, r5, r6, r7, r8, r9, r10, fp, pc}
 647              	.LVL41:
 648              	.L18:
 649              		.cfi_restore_state
 650              	.LBB1047:
  96:src/UI/sequencer.cpp ****         display_->DrawPixel(x, y, true);
 651              		.loc 2 96 9 is_stmt 1 view .LVU157
 652 0072 4068     		ldr	r0, [r0, #4]
 653              	.LVL42:
  96:src/UI/sequencer.cpp ****         display_->DrawPixel(x, y, true);
 654              		.loc 2 96 9 is_stmt 0 view .LVU158
 655 0074 974E     		ldr	r6, .L64
  96:src/UI/sequencer.cpp ****         display_->DrawPixel(x, y, true);
 656              		.loc 2 96 39 view .LVU159
 657 0076 0368     		ldr	r3, [r0]
 658              	.LVL43:
  96:src/UI/sequencer.cpp ****         display_->DrawPixel(x, y, true);
 659              		.loc 2 96 39 view .LVU160
 660 0078 D3F81480 		ldr	r8, [r3, #20]
 661 007c B045     		cmp	r8, r6
 662 007e 40F02B81 		bne	.L24
 663              	.LVL44:
 664              	.LBB1010:
 665              	.LBI1010:
  42:../DaisyExamples/libDaisy//src/hid/disp/oled_display.h ****     {
 666              		.loc 3 42 10 is_stmt 1 view .LVU161
 667              	.LBB1011:
 668              	.LBI1011:
 352:../DaisyExamples/libDaisy//src/dev/oled_ssd130x.h ****     {
 669              		.loc 4 352 10 view .LVU162
 670              	.LBB1012:
 354:../DaisyExamples/libDaisy//src/dev/oled_ssd130x.h ****             return;
 671              		.loc 4 354 9 is_stmt 0 view .LVU163
 672 0082 7F29     		cmp	r1, #127
 673 0084 10D8     		bhi	.L25
 674 0086 3F2A     		cmp	r2, #63
 675 0088 0ED8     		bhi	.L25
 357:../DaisyExamples/libDaisy//src/dev/oled_ssd130x.h ****         else
 676              		.loc 4 357 28 view .LVU164
 677 008a D308     		lsrs	r3, r2, #3
 357:../DaisyExamples/libDaisy//src/dev/oled_ssd130x.h ****         else
 678              		.loc 4 357 54 view .LVU165
 679 008c 02F00702 		and	r2, r2, #7
 680              	.LVL45:
 357:../DaisyExamples/libDaisy//src/dev/oled_ssd130x.h ****         else
 681              		.loc 4 357 42 view .LVU166
 682 0090 01EBC313 		add	r3, r1, r3, lsl #7
 683 0094 1844     		add	r0, r0, r3
 684              	.LVL46:
 357:../DaisyExamples/libDaisy//src/dev/oled_ssd130x.h ****         else
 685              		.loc 4 357 48 view .LVU167
 686 0096 0123     		movs	r3, #1
 687 0098 9340     		lsls	r3, r3, r2
 357:../DaisyExamples/libDaisy//src/dev/oled_ssd130x.h ****         else
 688              		.loc 4 357 42 view .LVU168
 689 009a 027C     		ldrb	r2, [r0, #16]	@ zero_extendqisi2
ARM GAS  /var/folders/41/s_9r3f9s4p3_9jgx7wszdkhh0000gn/T//ccURNtC3.s 			page 32


 690 009c 1343     		orrs	r3, r3, r2
 691 009e 0374     		strb	r3, [r0, #16]
 692              	.LVL47:
 357:../DaisyExamples/libDaisy//src/dev/oled_ssd130x.h ****         else
 693              		.loc 4 357 42 view .LVU169
 694              	.LBE1012:
 695              	.LBE1011:
 696              	.LBE1010:
  97:src/UI/sequencer.cpp ****         display_->DrawPixel(x+1, y, true);
 697              		.loc 2 97 9 view .LVU170
 698 00a0 6868     		ldr	r0, [r5, #4]
  97:src/UI/sequencer.cpp ****         display_->DrawPixel(x+1, y, true);
 699              		.loc 2 97 41 view .LVU171
 700 00a2 0368     		ldr	r3, [r0]
 701 00a4 D3F81480 		ldr	r8, [r3, #20]
 702              	.L25:
 703              	.LVL48:
  97:src/UI/sequencer.cpp ****         display_->DrawPixel(x+1, y, true);
 704              		.loc 2 97 9 is_stmt 1 view .LVU172
 705 00a8 B045     		cmp	r8, r6
  97:src/UI/sequencer.cpp ****         display_->DrawPixel(x+1, y, true);
 706              		.loc 2 97 30 is_stmt 0 view .LVU173
 707 00aa 04F1010B 		add	fp, r4, #1
 708 00ae 40F01E81 		bne	.L26
 709              	.LVL49:
 710              	.L53:
 711              	.LBB1013:
 712              	.LBI1013:
  42:../DaisyExamples/libDaisy//src/hid/disp/oled_display.h ****     {
 713              		.loc 3 42 10 is_stmt 1 view .LVU174
 714              	.LBB1014:
 715              	.LBI1014:
 352:../DaisyExamples/libDaisy//src/dev/oled_ssd130x.h ****     {
 716              		.loc 4 352 10 view .LVU175
 717              	.LBB1015:
 354:../DaisyExamples/libDaisy//src/dev/oled_ssd130x.h ****             return;
 718              		.loc 4 354 9 is_stmt 0 view .LVU176
 719 00b2 BBF17F0F 		cmp	fp, #127
 720 00b6 10D8     		bhi	.L27
 721 00b8 3F2F     		cmp	r7, #63
 722 00ba 0ED8     		bhi	.L27
 357:../DaisyExamples/libDaisy//src/dev/oled_ssd130x.h ****         else
 723              		.loc 4 357 28 view .LVU177
 724 00bc FB08     		lsrs	r3, r7, #3
 357:../DaisyExamples/libDaisy//src/dev/oled_ssd130x.h ****         else
 725              		.loc 4 357 54 view .LVU178
 726 00be 07F00702 		and	r2, r7, #7
 357:../DaisyExamples/libDaisy//src/dev/oled_ssd130x.h ****         else
 727              		.loc 4 357 42 view .LVU179
 728 00c2 0BEBC313 		add	r3, fp, r3, lsl #7
 729 00c6 1844     		add	r0, r0, r3
 357:../DaisyExamples/libDaisy//src/dev/oled_ssd130x.h ****         else
 730              		.loc 4 357 48 view .LVU180
 731 00c8 0123     		movs	r3, #1
 732 00ca 9340     		lsls	r3, r3, r2
 357:../DaisyExamples/libDaisy//src/dev/oled_ssd130x.h ****         else
 733              		.loc 4 357 42 view .LVU181
ARM GAS  /var/folders/41/s_9r3f9s4p3_9jgx7wszdkhh0000gn/T//ccURNtC3.s 			page 33


 734 00cc 027C     		ldrb	r2, [r0, #16]	@ zero_extendqisi2
 735 00ce 1343     		orrs	r3, r3, r2
 736 00d0 0374     		strb	r3, [r0, #16]
 737              	.LBE1015:
 738              	.LBE1014:
 739              	.LBE1013:
  98:src/UI/sequencer.cpp ****         display_->DrawPixel(x, y+1, true);
 740              		.loc 2 98 9 view .LVU182
 741 00d2 6868     		ldr	r0, [r5, #4]
  98:src/UI/sequencer.cpp ****         display_->DrawPixel(x, y+1, true);
 742              		.loc 2 98 41 view .LVU183
 743 00d4 0368     		ldr	r3, [r0]
 744 00d6 D3F81480 		ldr	r8, [r3, #20]
 745              	.L27:
 746              	.LVL50:
  98:src/UI/sequencer.cpp ****         display_->DrawPixel(x, y+1, true);
 747              		.loc 2 98 9 is_stmt 1 view .LVU184
 748 00da B045     		cmp	r8, r6
  98:src/UI/sequencer.cpp ****         display_->DrawPixel(x, y+1, true);
 749              		.loc 2 98 33 is_stmt 0 view .LVU185
 750 00dc 07F10109 		add	r9, r7, #1
 751 00e0 40F01281 		bne	.L28
 752              	.L54:
 753              	.LVL51:
 754              	.LBB1016:
 755              	.LBI1016:
  42:../DaisyExamples/libDaisy//src/hid/disp/oled_display.h ****     {
 756              		.loc 3 42 10 is_stmt 1 view .LVU186
 757              	.LBB1017:
 758              	.LBI1017:
 352:../DaisyExamples/libDaisy//src/dev/oled_ssd130x.h ****     {
 759              		.loc 4 352 10 view .LVU187
 760              	.LBB1018:
 354:../DaisyExamples/libDaisy//src/dev/oled_ssd130x.h ****             return;
 761              		.loc 4 354 9 is_stmt 0 view .LVU188
 762 00e4 7F2C     		cmp	r4, #127
 763 00e6 12D8     		bhi	.L29
 764 00e8 B9F13F0F 		cmp	r9, #63
 765 00ec 0FD8     		bhi	.L29
 357:../DaisyExamples/libDaisy//src/dev/oled_ssd130x.h ****         else
 766              		.loc 4 357 28 view .LVU189
 767 00ee 4FEAD903 		lsr	r3, r9, #3
 357:../DaisyExamples/libDaisy//src/dev/oled_ssd130x.h ****         else
 768              		.loc 4 357 54 view .LVU190
 769 00f2 09F00702 		and	r2, r9, #7
 357:../DaisyExamples/libDaisy//src/dev/oled_ssd130x.h ****         else
 770              		.loc 4 357 42 view .LVU191
 771 00f6 04EBC313 		add	r3, r4, r3, lsl #7
 772 00fa 1844     		add	r0, r0, r3
 357:../DaisyExamples/libDaisy//src/dev/oled_ssd130x.h ****         else
 773              		.loc 4 357 48 view .LVU192
 774 00fc 0123     		movs	r3, #1
 775 00fe 9340     		lsls	r3, r3, r2
 357:../DaisyExamples/libDaisy//src/dev/oled_ssd130x.h ****         else
 776              		.loc 4 357 42 view .LVU193
 777 0100 027C     		ldrb	r2, [r0, #16]	@ zero_extendqisi2
 778 0102 1343     		orrs	r3, r3, r2
ARM GAS  /var/folders/41/s_9r3f9s4p3_9jgx7wszdkhh0000gn/T//ccURNtC3.s 			page 34


 779 0104 0374     		strb	r3, [r0, #16]
 780              	.LBE1018:
 781              	.LBE1017:
 782              	.LBE1016:
 100:src/UI/sequencer.cpp ****         display_->DrawPixel(x+6, y, true);
 783              		.loc 2 100 9 view .LVU194
 784 0106 6868     		ldr	r0, [r5, #4]
 100:src/UI/sequencer.cpp ****         display_->DrawPixel(x+6, y, true);
 785              		.loc 2 100 41 view .LVU195
 786 0108 0368     		ldr	r3, [r0]
 787 010a D3F81480 		ldr	r8, [r3, #20]
 788              	.L29:
 789              	.LVL52:
 100:src/UI/sequencer.cpp ****         display_->DrawPixel(x+6, y, true);
 790              		.loc 2 100 9 is_stmt 1 view .LVU196
 791 010e B045     		cmp	r8, r6
 100:src/UI/sequencer.cpp ****         display_->DrawPixel(x+6, y, true);
 792              		.loc 2 100 30 is_stmt 0 view .LVU197
 793 0110 04F1060A 		add	r10, r4, #6
 794 0114 40F00581 		bne	.L30
 795              	.L55:
 796              	.LVL53:
 797              	.LBB1019:
 798              	.LBI1019:
  42:../DaisyExamples/libDaisy//src/hid/disp/oled_display.h ****     {
 799              		.loc 3 42 10 is_stmt 1 view .LVU198
 800              	.LBB1020:
 801              	.LBI1020:
 352:../DaisyExamples/libDaisy//src/dev/oled_ssd130x.h ****     {
 802              		.loc 4 352 10 view .LVU199
 803              	.LBB1021:
 354:../DaisyExamples/libDaisy//src/dev/oled_ssd130x.h ****             return;
 804              		.loc 4 354 9 is_stmt 0 view .LVU200
 805 0118 BAF17F0F 		cmp	r10, #127
 806 011c 10D8     		bhi	.L31
 807 011e 3F2F     		cmp	r7, #63
 808 0120 0ED8     		bhi	.L31
 357:../DaisyExamples/libDaisy//src/dev/oled_ssd130x.h ****         else
 809              		.loc 4 357 28 view .LVU201
 810 0122 FB08     		lsrs	r3, r7, #3
 357:../DaisyExamples/libDaisy//src/dev/oled_ssd130x.h ****         else
 811              		.loc 4 357 54 view .LVU202
 812 0124 07F00702 		and	r2, r7, #7
 357:../DaisyExamples/libDaisy//src/dev/oled_ssd130x.h ****         else
 813              		.loc 4 357 42 view .LVU203
 814 0128 0AEBC313 		add	r3, r10, r3, lsl #7
 815 012c 1844     		add	r0, r0, r3
 357:../DaisyExamples/libDaisy//src/dev/oled_ssd130x.h ****         else
 816              		.loc 4 357 48 view .LVU204
 817 012e 0123     		movs	r3, #1
 818 0130 9340     		lsls	r3, r3, r2
 357:../DaisyExamples/libDaisy//src/dev/oled_ssd130x.h ****         else
 819              		.loc 4 357 42 view .LVU205
 820 0132 027C     		ldrb	r2, [r0, #16]	@ zero_extendqisi2
 821 0134 1343     		orrs	r3, r3, r2
 822 0136 0374     		strb	r3, [r0, #16]
 823              	.LBE1021:
ARM GAS  /var/folders/41/s_9r3f9s4p3_9jgx7wszdkhh0000gn/T//ccURNtC3.s 			page 35


 824              	.LBE1020:
 825              	.LBE1019:
 101:src/UI/sequencer.cpp ****         display_->DrawPixel(x+5, y, true);
 826              		.loc 2 101 9 view .LVU206
 827 0138 6868     		ldr	r0, [r5, #4]
 101:src/UI/sequencer.cpp ****         display_->DrawPixel(x+5, y, true);
 828              		.loc 2 101 41 view .LVU207
 829 013a 0368     		ldr	r3, [r0]
 830 013c D3F81480 		ldr	r8, [r3, #20]
 831              	.L31:
 832              	.LVL54:
 101:src/UI/sequencer.cpp ****         display_->DrawPixel(x+5, y, true);
 833              		.loc 2 101 9 is_stmt 1 view .LVU208
 101:src/UI/sequencer.cpp ****         display_->DrawPixel(x+5, y, true);
 834              		.loc 2 101 30 is_stmt 0 view .LVU209
 835 0140 621D     		adds	r2, r4, #5
 836 0142 B045     		cmp	r8, r6
 837 0144 0192     		str	r2, [sp, #4]
 838 0146 40F0F980 		bne	.L32
 839              	.L56:
 840              	.LVL55:
 841              	.LBB1022:
 842              	.LBI1022:
  42:../DaisyExamples/libDaisy//src/hid/disp/oled_display.h ****     {
 843              		.loc 3 42 10 is_stmt 1 view .LVU210
 844              	.LBB1023:
 845              	.LBI1023:
 352:../DaisyExamples/libDaisy//src/dev/oled_ssd130x.h ****     {
 846              		.loc 4 352 10 view .LVU211
 847              	.LBB1024:
 354:../DaisyExamples/libDaisy//src/dev/oled_ssd130x.h ****             return;
 848              		.loc 4 354 9 is_stmt 0 view .LVU212
 849 014a 7F2A     		cmp	r2, #127
 850 014c 10D8     		bhi	.L33
 851 014e 3F2F     		cmp	r7, #63
 852 0150 0ED8     		bhi	.L33
 357:../DaisyExamples/libDaisy//src/dev/oled_ssd130x.h ****         else
 853              		.loc 4 357 28 view .LVU213
 854 0152 FB08     		lsrs	r3, r7, #3
 357:../DaisyExamples/libDaisy//src/dev/oled_ssd130x.h ****         else
 855              		.loc 4 357 42 view .LVU214
 856 0154 02EBC313 		add	r3, r2, r3, lsl #7
 357:../DaisyExamples/libDaisy//src/dev/oled_ssd130x.h ****         else
 857              		.loc 4 357 54 view .LVU215
 858 0158 07F00702 		and	r2, r7, #7
 859              	.LVL56:
 357:../DaisyExamples/libDaisy//src/dev/oled_ssd130x.h ****         else
 860              		.loc 4 357 42 view .LVU216
 861 015c 1844     		add	r0, r0, r3
 357:../DaisyExamples/libDaisy//src/dev/oled_ssd130x.h ****         else
 862              		.loc 4 357 48 view .LVU217
 863 015e 0123     		movs	r3, #1
 864 0160 9340     		lsls	r3, r3, r2
 357:../DaisyExamples/libDaisy//src/dev/oled_ssd130x.h ****         else
 865              		.loc 4 357 42 view .LVU218
 866 0162 027C     		ldrb	r2, [r0, #16]	@ zero_extendqisi2
 867 0164 1343     		orrs	r3, r3, r2
ARM GAS  /var/folders/41/s_9r3f9s4p3_9jgx7wszdkhh0000gn/T//ccURNtC3.s 			page 36


 868 0166 0374     		strb	r3, [r0, #16]
 869              	.LBE1024:
 870              	.LBE1023:
 871              	.LBE1022:
 102:src/UI/sequencer.cpp ****         display_->DrawPixel(x+6, y+1, true);
 872              		.loc 2 102 9 view .LVU219
 873 0168 6868     		ldr	r0, [r5, #4]
 102:src/UI/sequencer.cpp ****         display_->DrawPixel(x+6, y+1, true);
 874              		.loc 2 102 43 view .LVU220
 875 016a 0368     		ldr	r3, [r0]
 876 016c D3F81480 		ldr	r8, [r3, #20]
 877              	.L33:
 878              	.LVL57:
 102:src/UI/sequencer.cpp ****         display_->DrawPixel(x+6, y+1, true);
 879              		.loc 2 102 9 is_stmt 1 view .LVU221
 880 0170 B045     		cmp	r8, r6
 881 0172 40F0EE80 		bne	.L34
 882              	.L57:
 883              	.LVL58:
 884              	.LBB1025:
 885              	.LBI1025:
  42:../DaisyExamples/libDaisy//src/hid/disp/oled_display.h ****     {
 886              		.loc 3 42 10 view .LVU222
 887              	.LBB1026:
 888              	.LBI1026:
 352:../DaisyExamples/libDaisy//src/dev/oled_ssd130x.h ****     {
 889              		.loc 4 352 10 view .LVU223
 890              	.LBB1027:
 354:../DaisyExamples/libDaisy//src/dev/oled_ssd130x.h ****             return;
 891              		.loc 4 354 9 is_stmt 0 view .LVU224
 892 0176 BAF17F0F 		cmp	r10, #127
 893 017a 13D8     		bhi	.L35
 894 017c B9F13F0F 		cmp	r9, #63
 895 0180 10D8     		bhi	.L35
 357:../DaisyExamples/libDaisy//src/dev/oled_ssd130x.h ****         else
 896              		.loc 4 357 28 view .LVU225
 897 0182 4FEAD903 		lsr	r3, r9, #3
 357:../DaisyExamples/libDaisy//src/dev/oled_ssd130x.h ****         else
 898              		.loc 4 357 54 view .LVU226
 899 0186 09F00709 		and	r9, r9, #7
 900              	.LVL59:
 357:../DaisyExamples/libDaisy//src/dev/oled_ssd130x.h ****         else
 901              		.loc 4 357 42 view .LVU227
 902 018a 0AEBC313 		add	r3, r10, r3, lsl #7
 903 018e 1844     		add	r0, r0, r3
 357:../DaisyExamples/libDaisy//src/dev/oled_ssd130x.h ****         else
 904              		.loc 4 357 48 view .LVU228
 905 0190 0123     		movs	r3, #1
 357:../DaisyExamples/libDaisy//src/dev/oled_ssd130x.h ****         else
 906              		.loc 4 357 42 view .LVU229
 907 0192 027C     		ldrb	r2, [r0, #16]	@ zero_extendqisi2
 357:../DaisyExamples/libDaisy//src/dev/oled_ssd130x.h ****         else
 908              		.loc 4 357 48 view .LVU230
 909 0194 03FA09F3 		lsl	r3, r3, r9
 357:../DaisyExamples/libDaisy//src/dev/oled_ssd130x.h ****         else
 910              		.loc 4 357 42 view .LVU231
 911 0198 1343     		orrs	r3, r3, r2
ARM GAS  /var/folders/41/s_9r3f9s4p3_9jgx7wszdkhh0000gn/T//ccURNtC3.s 			page 37


 912 019a 0374     		strb	r3, [r0, #16]
 913              	.LBE1027:
 914              	.LBE1026:
 915              	.LBE1025:
 104:src/UI/sequencer.cpp ****         display_->DrawPixel(x, y+6, true);
 916              		.loc 2 104 9 view .LVU232
 917 019c 6868     		ldr	r0, [r5, #4]
 104:src/UI/sequencer.cpp ****         display_->DrawPixel(x, y+6, true);
 918              		.loc 2 104 41 view .LVU233
 919 019e 0368     		ldr	r3, [r0]
 920 01a0 D3F81480 		ldr	r8, [r3, #20]
 921              	.L35:
 922              	.LVL60:
 104:src/UI/sequencer.cpp ****         display_->DrawPixel(x, y+6, true);
 923              		.loc 2 104 9 is_stmt 1 view .LVU234
 924 01a4 B045     		cmp	r8, r6
 104:src/UI/sequencer.cpp ****         display_->DrawPixel(x, y+6, true);
 925              		.loc 2 104 33 is_stmt 0 view .LVU235
 926 01a6 07F10609 		add	r9, r7, #6
 927 01aa 40F0DF80 		bne	.L36
 928              	.L58:
 929              	.LVL61:
 930              	.LBB1028:
 931              	.LBI1028:
  42:../DaisyExamples/libDaisy//src/hid/disp/oled_display.h ****     {
 932              		.loc 3 42 10 is_stmt 1 view .LVU236
 933              	.LBB1029:
 934              	.LBI1029:
 352:../DaisyExamples/libDaisy//src/dev/oled_ssd130x.h ****     {
 935              		.loc 4 352 10 view .LVU237
 936              	.LBB1030:
 354:../DaisyExamples/libDaisy//src/dev/oled_ssd130x.h ****             return;
 937              		.loc 4 354 9 is_stmt 0 view .LVU238
 938 01ae 7F2C     		cmp	r4, #127
 939 01b0 12D8     		bhi	.L37
 940 01b2 B9F13F0F 		cmp	r9, #63
 941 01b6 0FD8     		bhi	.L37
 357:../DaisyExamples/libDaisy//src/dev/oled_ssd130x.h ****         else
 942              		.loc 4 357 28 view .LVU239
 943 01b8 4FEAD903 		lsr	r3, r9, #3
 357:../DaisyExamples/libDaisy//src/dev/oled_ssd130x.h ****         else
 944              		.loc 4 357 54 view .LVU240
 945 01bc 09F00702 		and	r2, r9, #7
 357:../DaisyExamples/libDaisy//src/dev/oled_ssd130x.h ****         else
 946              		.loc 4 357 42 view .LVU241
 947 01c0 04EBC313 		add	r3, r4, r3, lsl #7
 948 01c4 1844     		add	r0, r0, r3
 357:../DaisyExamples/libDaisy//src/dev/oled_ssd130x.h ****         else
 949              		.loc 4 357 48 view .LVU242
 950 01c6 0123     		movs	r3, #1
 951 01c8 9340     		lsls	r3, r3, r2
 357:../DaisyExamples/libDaisy//src/dev/oled_ssd130x.h ****         else
 952              		.loc 4 357 42 view .LVU243
 953 01ca 027C     		ldrb	r2, [r0, #16]	@ zero_extendqisi2
 954 01cc 1343     		orrs	r3, r3, r2
 955 01ce 0374     		strb	r3, [r0, #16]
 956              	.LBE1030:
ARM GAS  /var/folders/41/s_9r3f9s4p3_9jgx7wszdkhh0000gn/T//ccURNtC3.s 			page 38


 957              	.LBE1029:
 958              	.LBE1028:
 105:src/UI/sequencer.cpp ****         display_->DrawPixel(x+1, y+6, true);
 959              		.loc 2 105 9 view .LVU244
 960 01d0 6868     		ldr	r0, [r5, #4]
 105:src/UI/sequencer.cpp ****         display_->DrawPixel(x+1, y+6, true);
 961              		.loc 2 105 43 view .LVU245
 962 01d2 0368     		ldr	r3, [r0]
 963 01d4 D3F81480 		ldr	r8, [r3, #20]
 964              	.L37:
 965              	.LVL62:
 105:src/UI/sequencer.cpp ****         display_->DrawPixel(x+1, y+6, true);
 966              		.loc 2 105 9 is_stmt 1 view .LVU246
 967 01d8 B045     		cmp	r8, r6
 968 01da 40F0D280 		bne	.L38
 969              	.L59:
 970              	.LVL63:
 971              	.LBB1031:
 972              	.LBI1031:
  42:../DaisyExamples/libDaisy//src/hid/disp/oled_display.h ****     {
 973              		.loc 3 42 10 view .LVU247
 974              	.LBB1032:
 975              	.LBI1032:
 352:../DaisyExamples/libDaisy//src/dev/oled_ssd130x.h ****     {
 976              		.loc 4 352 10 view .LVU248
 977              	.LBB1033:
 354:../DaisyExamples/libDaisy//src/dev/oled_ssd130x.h ****             return;
 978              		.loc 4 354 9 is_stmt 0 view .LVU249
 979 01de BBF17F0F 		cmp	fp, #127
 980 01e2 12D8     		bhi	.L39
 981 01e4 B9F13F0F 		cmp	r9, #63
 982 01e8 0FD8     		bhi	.L39
 357:../DaisyExamples/libDaisy//src/dev/oled_ssd130x.h ****         else
 983              		.loc 4 357 28 view .LVU250
 984 01ea 4FEAD903 		lsr	r3, r9, #3
 357:../DaisyExamples/libDaisy//src/dev/oled_ssd130x.h ****         else
 985              		.loc 4 357 54 view .LVU251
 986 01ee 09F00702 		and	r2, r9, #7
 357:../DaisyExamples/libDaisy//src/dev/oled_ssd130x.h ****         else
 987              		.loc 4 357 42 view .LVU252
 988 01f2 0BEBC31B 		add	fp, fp, r3, lsl #7
 989              	.LVL64:
 357:../DaisyExamples/libDaisy//src/dev/oled_ssd130x.h ****         else
 990              		.loc 4 357 48 view .LVU253
 991 01f6 0123     		movs	r3, #1
 357:../DaisyExamples/libDaisy//src/dev/oled_ssd130x.h ****         else
 992              		.loc 4 357 42 view .LVU254
 993 01f8 5844     		add	r0, r0, fp
 357:../DaisyExamples/libDaisy//src/dev/oled_ssd130x.h ****         else
 994              		.loc 4 357 48 view .LVU255
 995 01fa 9340     		lsls	r3, r3, r2
 357:../DaisyExamples/libDaisy//src/dev/oled_ssd130x.h ****         else
 996              		.loc 4 357 42 view .LVU256
 997 01fc 027C     		ldrb	r2, [r0, #16]	@ zero_extendqisi2
 998 01fe 1343     		orrs	r3, r3, r2
 999 0200 0374     		strb	r3, [r0, #16]
 1000              	.LBE1033:
ARM GAS  /var/folders/41/s_9r3f9s4p3_9jgx7wszdkhh0000gn/T//ccURNtC3.s 			page 39


 1001              	.LBE1032:
 1002              	.LBE1031:
 106:src/UI/sequencer.cpp ****         display_->DrawPixel(x, y+5, true);
 1003              		.loc 2 106 9 view .LVU257
 1004 0202 6868     		ldr	r0, [r5, #4]
 106:src/UI/sequencer.cpp ****         display_->DrawPixel(x, y+5, true);
 1005              		.loc 2 106 41 view .LVU258
 1006 0204 0368     		ldr	r3, [r0]
 1007 0206 D3F81480 		ldr	r8, [r3, #20]
 1008              	.L39:
 1009              	.LVL65:
 106:src/UI/sequencer.cpp ****         display_->DrawPixel(x, y+5, true);
 1010              		.loc 2 106 9 is_stmt 1 view .LVU259
 1011 020a B045     		cmp	r8, r6
 106:src/UI/sequencer.cpp ****         display_->DrawPixel(x, y+5, true);
 1012              		.loc 2 106 33 is_stmt 0 view .LVU260
 1013 020c 07F10507 		add	r7, r7, #5
 1014              	.LVL66:
 106:src/UI/sequencer.cpp ****         display_->DrawPixel(x, y+5, true);
 1015              		.loc 2 106 33 view .LVU261
 1016 0210 40F0C380 		bne	.L40
 1017              	.LVL67:
 1018              	.L60:
 1019              	.LBB1034:
 1020              	.LBI1034:
  42:../DaisyExamples/libDaisy//src/hid/disp/oled_display.h ****     {
 1021              		.loc 3 42 10 is_stmt 1 view .LVU262
 1022              	.LBB1035:
 1023              	.LBI1035:
 352:../DaisyExamples/libDaisy//src/dev/oled_ssd130x.h ****     {
 1024              		.loc 4 352 10 view .LVU263
 1025              	.LBB1036:
 354:../DaisyExamples/libDaisy//src/dev/oled_ssd130x.h ****             return;
 1026              		.loc 4 354 9 is_stmt 0 view .LVU264
 1027 0214 7F2C     		cmp	r4, #127
 1028 0216 10D8     		bhi	.L41
 1029 0218 3F2F     		cmp	r7, #63
 1030 021a 0ED8     		bhi	.L41
 357:../DaisyExamples/libDaisy//src/dev/oled_ssd130x.h ****         else
 1031              		.loc 4 357 28 view .LVU265
 1032 021c FB08     		lsrs	r3, r7, #3
 357:../DaisyExamples/libDaisy//src/dev/oled_ssd130x.h ****         else
 1033              		.loc 4 357 54 view .LVU266
 1034 021e 07F00702 		and	r2, r7, #7
 357:../DaisyExamples/libDaisy//src/dev/oled_ssd130x.h ****         else
 1035              		.loc 4 357 42 view .LVU267
 1036 0222 04EBC314 		add	r4, r4, r3, lsl #7
 1037              	.LVL68:
 357:../DaisyExamples/libDaisy//src/dev/oled_ssd130x.h ****         else
 1038              		.loc 4 357 48 view .LVU268
 1039 0226 0123     		movs	r3, #1
 357:../DaisyExamples/libDaisy//src/dev/oled_ssd130x.h ****         else
 1040              		.loc 4 357 42 view .LVU269
 1041 0228 2044     		add	r0, r0, r4
 357:../DaisyExamples/libDaisy//src/dev/oled_ssd130x.h ****         else
 1042              		.loc 4 357 48 view .LVU270
 1043 022a 9340     		lsls	r3, r3, r2
ARM GAS  /var/folders/41/s_9r3f9s4p3_9jgx7wszdkhh0000gn/T//ccURNtC3.s 			page 40


 357:../DaisyExamples/libDaisy//src/dev/oled_ssd130x.h ****         else
 1044              		.loc 4 357 42 view .LVU271
 1045 022c 027C     		ldrb	r2, [r0, #16]	@ zero_extendqisi2
 1046 022e 1343     		orrs	r3, r3, r2
 1047 0230 0374     		strb	r3, [r0, #16]
 1048              	.LBE1036:
 1049              	.LBE1035:
 1050              	.LBE1034:
 108:src/UI/sequencer.cpp ****         display_->DrawPixel(x+6, y+6, true);
 1051              		.loc 2 108 9 view .LVU272
 1052 0232 6868     		ldr	r0, [r5, #4]
 108:src/UI/sequencer.cpp ****         display_->DrawPixel(x+6, y+6, true);
 1053              		.loc 2 108 43 view .LVU273
 1054 0234 0368     		ldr	r3, [r0]
 1055 0236 D3F81480 		ldr	r8, [r3, #20]
 1056              	.L41:
 1057              	.LVL69:
 108:src/UI/sequencer.cpp ****         display_->DrawPixel(x+6, y+6, true);
 1058              		.loc 2 108 9 is_stmt 1 view .LVU274
 1059 023a B045     		cmp	r8, r6
 1060 023c 40F0B880 		bne	.L42
 1061              	.L61:
 1062              	.LVL70:
 1063              	.LBB1037:
 1064              	.LBI1037:
  42:../DaisyExamples/libDaisy//src/hid/disp/oled_display.h ****     {
 1065              		.loc 3 42 10 view .LVU275
 1066              	.LBB1038:
 1067              	.LBI1038:
 352:../DaisyExamples/libDaisy//src/dev/oled_ssd130x.h ****     {
 1068              		.loc 4 352 10 view .LVU276
 1069              	.LBB1039:
 354:../DaisyExamples/libDaisy//src/dev/oled_ssd130x.h ****             return;
 1070              		.loc 4 354 9 is_stmt 0 view .LVU277
 1071 0240 BAF17F0F 		cmp	r10, #127
 1072 0244 12D8     		bhi	.L43
 1073 0246 B9F13F0F 		cmp	r9, #63
 1074 024a 0FD8     		bhi	.L43
 357:../DaisyExamples/libDaisy//src/dev/oled_ssd130x.h ****         else
 1075              		.loc 4 357 28 view .LVU278
 1076 024c 4FEAD903 		lsr	r3, r9, #3
 357:../DaisyExamples/libDaisy//src/dev/oled_ssd130x.h ****         else
 1077              		.loc 4 357 54 view .LVU279
 1078 0250 09F00702 		and	r2, r9, #7
 357:../DaisyExamples/libDaisy//src/dev/oled_ssd130x.h ****         else
 1079              		.loc 4 357 42 view .LVU280
 1080 0254 0AEBC313 		add	r3, r10, r3, lsl #7
 1081 0258 1844     		add	r0, r0, r3
 357:../DaisyExamples/libDaisy//src/dev/oled_ssd130x.h ****         else
 1082              		.loc 4 357 48 view .LVU281
 1083 025a 0123     		movs	r3, #1
 1084 025c 9340     		lsls	r3, r3, r2
 357:../DaisyExamples/libDaisy//src/dev/oled_ssd130x.h ****         else
 1085              		.loc 4 357 42 view .LVU282
 1086 025e 027C     		ldrb	r2, [r0, #16]	@ zero_extendqisi2
 1087 0260 1343     		orrs	r3, r3, r2
 1088 0262 0374     		strb	r3, [r0, #16]
ARM GAS  /var/folders/41/s_9r3f9s4p3_9jgx7wszdkhh0000gn/T//ccURNtC3.s 			page 41


 1089              	.LBE1039:
 1090              	.LBE1038:
 1091              	.LBE1037:
 109:src/UI/sequencer.cpp ****         display_->DrawPixel(x+5, y+6, true);
 1092              		.loc 2 109 9 view .LVU283
 1093 0264 6868     		ldr	r0, [r5, #4]
 109:src/UI/sequencer.cpp ****         display_->DrawPixel(x+5, y+6, true);
 1094              		.loc 2 109 43 view .LVU284
 1095 0266 0368     		ldr	r3, [r0]
 1096 0268 D3F81480 		ldr	r8, [r3, #20]
 1097              	.L43:
 1098              	.LVL71:
 109:src/UI/sequencer.cpp ****         display_->DrawPixel(x+5, y+6, true);
 1099              		.loc 2 109 9 is_stmt 1 view .LVU285
 1100 026c B045     		cmp	r8, r6
 1101 026e 40F0AA80 		bne	.L44
 1102              	.L62:
 1103              	.LVL72:
 1104              	.LBB1040:
 1105              	.LBI1040:
  42:../DaisyExamples/libDaisy//src/hid/disp/oled_display.h ****     {
 1106              		.loc 3 42 10 view .LVU286
 1107              	.LBB1041:
 1108              	.LBI1041:
 352:../DaisyExamples/libDaisy//src/dev/oled_ssd130x.h ****     {
 1109              		.loc 4 352 10 view .LVU287
 1110              	.LBB1042:
 354:../DaisyExamples/libDaisy//src/dev/oled_ssd130x.h ****             return;
 1111              		.loc 4 354 9 is_stmt 0 view .LVU288
 1112 0272 019A     		ldr	r2, [sp, #4]
 1113 0274 7F2A     		cmp	r2, #127
 1114 0276 13D8     		bhi	.L45
 1115 0278 B9F13F0F 		cmp	r9, #63
 1116 027c 10D8     		bhi	.L45
 357:../DaisyExamples/libDaisy//src/dev/oled_ssd130x.h ****         else
 1117              		.loc 4 357 28 view .LVU289
 1118 027e 4FEAD903 		lsr	r3, r9, #3
 357:../DaisyExamples/libDaisy//src/dev/oled_ssd130x.h ****         else
 1119              		.loc 4 357 54 view .LVU290
 1120 0282 09F00709 		and	r9, r9, #7
 1121              	.LVL73:
 357:../DaisyExamples/libDaisy//src/dev/oled_ssd130x.h ****         else
 1122              		.loc 4 357 42 view .LVU291
 1123 0286 02EBC313 		add	r3, r2, r3, lsl #7
 1124 028a 1844     		add	r0, r0, r3
 357:../DaisyExamples/libDaisy//src/dev/oled_ssd130x.h ****         else
 1125              		.loc 4 357 48 view .LVU292
 1126 028c 0123     		movs	r3, #1
 357:../DaisyExamples/libDaisy//src/dev/oled_ssd130x.h ****         else
 1127              		.loc 4 357 42 view .LVU293
 1128 028e 027C     		ldrb	r2, [r0, #16]	@ zero_extendqisi2
 357:../DaisyExamples/libDaisy//src/dev/oled_ssd130x.h ****         else
 1129              		.loc 4 357 48 view .LVU294
 1130 0290 03FA09F3 		lsl	r3, r3, r9
 357:../DaisyExamples/libDaisy//src/dev/oled_ssd130x.h ****         else
 1131              		.loc 4 357 42 view .LVU295
 1132 0294 1343     		orrs	r3, r3, r2
ARM GAS  /var/folders/41/s_9r3f9s4p3_9jgx7wszdkhh0000gn/T//ccURNtC3.s 			page 42


 1133 0296 0374     		strb	r3, [r0, #16]
 1134              	.LBE1042:
 1135              	.LBE1041:
 1136              	.LBE1040:
 110:src/UI/sequencer.cpp ****         display_->DrawPixel(x+6, y+5, true);
 1137              		.loc 2 110 9 view .LVU296
 1138 0298 6868     		ldr	r0, [r5, #4]
 110:src/UI/sequencer.cpp ****         display_->DrawPixel(x+6, y+5, true);
 1139              		.loc 2 110 43 view .LVU297
 1140 029a 0368     		ldr	r3, [r0]
 1141 029c D3F81480 		ldr	r8, [r3, #20]
 1142              	.L45:
 1143              	.LVL74:
 110:src/UI/sequencer.cpp ****         display_->DrawPixel(x+6, y+5, true);
 1144              		.loc 2 110 9 is_stmt 1 view .LVU298
 1145 02a0 B045     		cmp	r8, r6
 1146 02a2 40F09B80 		bne	.L46
 1147              	.L63:
 1148              	.LVL75:
 1149              	.LBB1043:
 1150              	.LBI1043:
  42:../DaisyExamples/libDaisy//src/hid/disp/oled_display.h ****     {
 1151              		.loc 3 42 10 view .LVU299
 1152              	.LBB1044:
 1153              	.LBI1044:
 352:../DaisyExamples/libDaisy//src/dev/oled_ssd130x.h ****     {
 1154              		.loc 4 352 10 view .LVU300
 1155              	.LBB1045:
 354:../DaisyExamples/libDaisy//src/dev/oled_ssd130x.h ****             return;
 1156              		.loc 4 354 9 is_stmt 0 view .LVU301
 1157 02a6 BAF17F0F 		cmp	r10, #127
 1158 02aa 3FF6DFAE 		bhi	.L17
 1159 02ae 3F2F     		cmp	r7, #63
 1160 02b0 3FF6DCAE 		bhi	.L17
 357:../DaisyExamples/libDaisy//src/dev/oled_ssd130x.h ****         else
 1161              		.loc 4 357 28 view .LVU302
 1162 02b4 FB08     		lsrs	r3, r7, #3
 357:../DaisyExamples/libDaisy//src/dev/oled_ssd130x.h ****         else
 1163              		.loc 4 357 48 view .LVU303
 1164 02b6 0122     		movs	r2, #1
 357:../DaisyExamples/libDaisy//src/dev/oled_ssd130x.h ****         else
 1165              		.loc 4 357 54 view .LVU304
 1166 02b8 07F00707 		and	r7, r7, #7
 1167              	.LVL76:
 357:../DaisyExamples/libDaisy//src/dev/oled_ssd130x.h ****         else
 1168              		.loc 4 357 42 view .LVU305
 1169 02bc 0AEBC31A 		add	r10, r10, r3, lsl #7
 1170              	.LVL77:
 357:../DaisyExamples/libDaisy//src/dev/oled_ssd130x.h ****         else
 1171              		.loc 4 357 48 view .LVU306
 1172 02c0 02FA07F3 		lsl	r3, r2, r7
 357:../DaisyExamples/libDaisy//src/dev/oled_ssd130x.h ****         else
 1173              		.loc 4 357 42 view .LVU307
 1174 02c4 5044     		add	r0, r0, r10
 1175 02c6 027C     		ldrb	r2, [r0, #16]	@ zero_extendqisi2
 1176 02c8 1343     		orrs	r3, r3, r2
 1177 02ca 0374     		strb	r3, [r0, #16]
ARM GAS  /var/folders/41/s_9r3f9s4p3_9jgx7wszdkhh0000gn/T//ccURNtC3.s 			page 43


 1178              	.LBE1045:
 1179              	.LBE1044:
 1180              	.LBE1043:
 1181              	.LBE1047:
 112:src/UI/sequencer.cpp **** }
 1182              		.loc 2 112 1 view .LVU308
 1183 02cc 03B0     		add	sp, sp, #12
 1184              		.cfi_remember_state
 1185              		.cfi_def_cfa_offset 36
 1186              		@ sp needed
 1187 02ce BDE8F08F 		pop	{r4, r5, r6, r7, r8, r9, r10, fp, pc}
 1188              	.LVL78:
 1189              	.L65:
 112:src/UI/sequencer.cpp **** }
 1190              		.loc 2 112 1 view .LVU309
 1191 02d2 00BF     		.align	2
 1192              	.L64:
 1193 02d4 00000000 		.word	_ZN5daisy11OledDisplayINS_13SSD130xDriverILj128ELj64ENS_19SSD130xI2CTransportEEEE9DrawPixelE
 1194              	.LVL79:
 1195              	.L24:
 1196              		.cfi_restore_state
 1197              	.LBB1048:
  96:src/UI/sequencer.cpp ****         display_->DrawPixel(x, y, true);
 1198              		.loc 2 96 28 view .LVU310
 1199 02d8 0123     		movs	r3, #1
  97:src/UI/sequencer.cpp ****         display_->DrawPixel(x+1, y, true);
 1200              		.loc 2 97 30 view .LVU311
 1201 02da 04F1010B 		add	fp, r4, #1
  96:src/UI/sequencer.cpp ****         display_->DrawPixel(x, y, true);
 1202              		.loc 2 96 28 view .LVU312
 1203 02de C047     		blx	r8
 1204              	.LVL80:
  97:src/UI/sequencer.cpp ****         display_->DrawPixel(x+1, y, true);
 1205              		.loc 2 97 9 view .LVU313
 1206 02e0 6868     		ldr	r0, [r5, #4]
  97:src/UI/sequencer.cpp ****         display_->DrawPixel(x+1, y, true);
 1207              		.loc 2 97 41 view .LVU314
 1208 02e2 0368     		ldr	r3, [r0]
 1209 02e4 D3F81480 		ldr	r8, [r3, #20]
  97:src/UI/sequencer.cpp ****         display_->DrawPixel(x+1, y, true);
 1210              		.loc 2 97 9 is_stmt 1 view .LVU315
 1211 02e8 B045     		cmp	r8, r6
 1212 02ea 3FF4E2AE 		beq	.L53
 1213              	.L26:
  97:src/UI/sequencer.cpp ****         display_->DrawPixel(x+1, y, true);
 1214              		.loc 2 97 28 is_stmt 0 view .LVU316
 1215 02ee 0123     		movs	r3, #1
 1216 02f0 3A46     		mov	r2, r7
 1217 02f2 5946     		mov	r1, fp
  98:src/UI/sequencer.cpp ****         display_->DrawPixel(x, y+1, true);
 1218              		.loc 2 98 33 view .LVU317
 1219 02f4 07F10109 		add	r9, r7, #1
  97:src/UI/sequencer.cpp ****         display_->DrawPixel(x+1, y, true);
 1220              		.loc 2 97 28 view .LVU318
 1221 02f8 C047     		blx	r8
 1222              	.LVL81:
  98:src/UI/sequencer.cpp ****         display_->DrawPixel(x, y+1, true);
ARM GAS  /var/folders/41/s_9r3f9s4p3_9jgx7wszdkhh0000gn/T//ccURNtC3.s 			page 44


 1223              		.loc 2 98 9 view .LVU319
 1224 02fa 6868     		ldr	r0, [r5, #4]
  98:src/UI/sequencer.cpp ****         display_->DrawPixel(x, y+1, true);
 1225              		.loc 2 98 41 view .LVU320
 1226 02fc 0368     		ldr	r3, [r0]
 1227 02fe D3F81480 		ldr	r8, [r3, #20]
  98:src/UI/sequencer.cpp ****         display_->DrawPixel(x, y+1, true);
 1228              		.loc 2 98 9 is_stmt 1 view .LVU321
 1229 0302 B045     		cmp	r8, r6
 1230 0304 3FF4EEAE 		beq	.L54
 1231              	.L28:
  98:src/UI/sequencer.cpp ****         display_->DrawPixel(x, y+1, true);
 1232              		.loc 2 98 28 is_stmt 0 view .LVU322
 1233 0308 0123     		movs	r3, #1
 1234 030a 4A46     		mov	r2, r9
 1235 030c 2146     		mov	r1, r4
 100:src/UI/sequencer.cpp ****         display_->DrawPixel(x+6, y, true);
 1236              		.loc 2 100 30 view .LVU323
 1237 030e 04F1060A 		add	r10, r4, #6
  98:src/UI/sequencer.cpp ****         display_->DrawPixel(x, y+1, true);
 1238              		.loc 2 98 28 view .LVU324
 1239 0312 C047     		blx	r8
 1240              	.LVL82:
 100:src/UI/sequencer.cpp ****         display_->DrawPixel(x+6, y, true);
 1241              		.loc 2 100 9 view .LVU325
 1242 0314 6868     		ldr	r0, [r5, #4]
 100:src/UI/sequencer.cpp ****         display_->DrawPixel(x+6, y, true);
 1243              		.loc 2 100 41 view .LVU326
 1244 0316 0368     		ldr	r3, [r0]
 1245 0318 D3F81480 		ldr	r8, [r3, #20]
 100:src/UI/sequencer.cpp ****         display_->DrawPixel(x+6, y, true);
 1246              		.loc 2 100 9 is_stmt 1 view .LVU327
 1247 031c B045     		cmp	r8, r6
 1248 031e 3FF4FBAE 		beq	.L55
 1249              	.L30:
 100:src/UI/sequencer.cpp ****         display_->DrawPixel(x+6, y, true);
 1250              		.loc 2 100 28 is_stmt 0 view .LVU328
 1251 0322 0123     		movs	r3, #1
 1252 0324 3A46     		mov	r2, r7
 1253 0326 5146     		mov	r1, r10
 1254 0328 C047     		blx	r8
 1255              	.LVL83:
 101:src/UI/sequencer.cpp ****         display_->DrawPixel(x+5, y, true);
 1256              		.loc 2 101 9 view .LVU329
 1257 032a 6868     		ldr	r0, [r5, #4]
 101:src/UI/sequencer.cpp ****         display_->DrawPixel(x+5, y, true);
 1258              		.loc 2 101 30 view .LVU330
 1259 032c 621D     		adds	r2, r4, #5
 101:src/UI/sequencer.cpp ****         display_->DrawPixel(x+5, y, true);
 1260              		.loc 2 101 41 view .LVU331
 1261 032e 0368     		ldr	r3, [r0]
 1262 0330 D3F81480 		ldr	r8, [r3, #20]
 101:src/UI/sequencer.cpp ****         display_->DrawPixel(x+5, y, true);
 1263              		.loc 2 101 9 is_stmt 1 view .LVU332
 101:src/UI/sequencer.cpp ****         display_->DrawPixel(x+5, y, true);
 1264              		.loc 2 101 30 is_stmt 0 view .LVU333
 1265 0334 0192     		str	r2, [sp, #4]
ARM GAS  /var/folders/41/s_9r3f9s4p3_9jgx7wszdkhh0000gn/T//ccURNtC3.s 			page 45


 1266 0336 B045     		cmp	r8, r6
 1267 0338 3FF407AF 		beq	.L56
 1268              	.L32:
 101:src/UI/sequencer.cpp ****         display_->DrawPixel(x+5, y, true);
 1269              		.loc 2 101 28 view .LVU334
 1270 033c 0123     		movs	r3, #1
 1271 033e 3A46     		mov	r2, r7
 1272 0340 0199     		ldr	r1, [sp, #4]
 1273 0342 C047     		blx	r8
 1274              	.LVL84:
 102:src/UI/sequencer.cpp ****         display_->DrawPixel(x+6, y+1, true);
 1275              		.loc 2 102 9 view .LVU335
 1276 0344 6868     		ldr	r0, [r5, #4]
 102:src/UI/sequencer.cpp ****         display_->DrawPixel(x+6, y+1, true);
 1277              		.loc 2 102 43 view .LVU336
 1278 0346 0368     		ldr	r3, [r0]
 1279 0348 D3F81480 		ldr	r8, [r3, #20]
 102:src/UI/sequencer.cpp ****         display_->DrawPixel(x+6, y+1, true);
 1280              		.loc 2 102 9 is_stmt 1 view .LVU337
 1281 034c B045     		cmp	r8, r6
 1282 034e 3FF412AF 		beq	.L57
 1283              	.L34:
 102:src/UI/sequencer.cpp ****         display_->DrawPixel(x+6, y+1, true);
 1284              		.loc 2 102 28 is_stmt 0 view .LVU338
 1285 0352 4A46     		mov	r2, r9
 1286 0354 0123     		movs	r3, #1
 1287 0356 5146     		mov	r1, r10
 104:src/UI/sequencer.cpp ****         display_->DrawPixel(x, y+6, true);
 1288              		.loc 2 104 33 view .LVU339
 1289 0358 07F10609 		add	r9, r7, #6
 102:src/UI/sequencer.cpp ****         display_->DrawPixel(x+6, y+1, true);
 1290              		.loc 2 102 28 view .LVU340
 1291 035c C047     		blx	r8
 1292              	.LVL85:
 104:src/UI/sequencer.cpp ****         display_->DrawPixel(x, y+6, true);
 1293              		.loc 2 104 9 view .LVU341
 1294 035e 6868     		ldr	r0, [r5, #4]
 104:src/UI/sequencer.cpp ****         display_->DrawPixel(x, y+6, true);
 1295              		.loc 2 104 41 view .LVU342
 1296 0360 0368     		ldr	r3, [r0]
 1297 0362 D3F81480 		ldr	r8, [r3, #20]
 104:src/UI/sequencer.cpp ****         display_->DrawPixel(x, y+6, true);
 1298              		.loc 2 104 9 is_stmt 1 view .LVU343
 1299 0366 B045     		cmp	r8, r6
 1300 0368 3FF421AF 		beq	.L58
 1301              	.L36:
 104:src/UI/sequencer.cpp ****         display_->DrawPixel(x, y+6, true);
 1302              		.loc 2 104 28 is_stmt 0 view .LVU344
 1303 036c 0123     		movs	r3, #1
 1304 036e 4A46     		mov	r2, r9
 1305 0370 2146     		mov	r1, r4
 1306 0372 C047     		blx	r8
 1307              	.LVL86:
 105:src/UI/sequencer.cpp ****         display_->DrawPixel(x+1, y+6, true);
 1308              		.loc 2 105 9 view .LVU345
 1309 0374 6868     		ldr	r0, [r5, #4]
 105:src/UI/sequencer.cpp ****         display_->DrawPixel(x+1, y+6, true);
ARM GAS  /var/folders/41/s_9r3f9s4p3_9jgx7wszdkhh0000gn/T//ccURNtC3.s 			page 46


 1310              		.loc 2 105 43 view .LVU346
 1311 0376 0368     		ldr	r3, [r0]
 1312 0378 D3F81480 		ldr	r8, [r3, #20]
 105:src/UI/sequencer.cpp ****         display_->DrawPixel(x+1, y+6, true);
 1313              		.loc 2 105 9 is_stmt 1 view .LVU347
 1314 037c B045     		cmp	r8, r6
 1315 037e 3FF42EAF 		beq	.L59
 1316              	.L38:
 105:src/UI/sequencer.cpp ****         display_->DrawPixel(x+1, y+6, true);
 1317              		.loc 2 105 28 is_stmt 0 view .LVU348
 1318 0382 0123     		movs	r3, #1
 1319 0384 5946     		mov	r1, fp
 1320 0386 4A46     		mov	r2, r9
 106:src/UI/sequencer.cpp ****         display_->DrawPixel(x, y+5, true);
 1321              		.loc 2 106 33 view .LVU349
 1322 0388 0537     		adds	r7, r7, #5
 1323              	.LVL87:
 105:src/UI/sequencer.cpp ****         display_->DrawPixel(x+1, y+6, true);
 1324              		.loc 2 105 28 view .LVU350
 1325 038a C047     		blx	r8
 1326              	.LVL88:
 106:src/UI/sequencer.cpp ****         display_->DrawPixel(x, y+5, true);
 1327              		.loc 2 106 9 view .LVU351
 1328 038c 6868     		ldr	r0, [r5, #4]
 106:src/UI/sequencer.cpp ****         display_->DrawPixel(x, y+5, true);
 1329              		.loc 2 106 41 view .LVU352
 1330 038e 0368     		ldr	r3, [r0]
 1331 0390 D3F81480 		ldr	r8, [r3, #20]
 106:src/UI/sequencer.cpp ****         display_->DrawPixel(x, y+5, true);
 1332              		.loc 2 106 9 is_stmt 1 view .LVU353
 1333 0394 B045     		cmp	r8, r6
 1334 0396 3FF43DAF 		beq	.L60
 1335              	.LVL89:
 1336              	.L40:
 106:src/UI/sequencer.cpp ****         display_->DrawPixel(x, y+5, true);
 1337              		.loc 2 106 28 is_stmt 0 view .LVU354
 1338 039a 0123     		movs	r3, #1
 1339 039c 2146     		mov	r1, r4
 1340 039e 3A46     		mov	r2, r7
 1341 03a0 C047     		blx	r8
 1342              	.LVL90:
 108:src/UI/sequencer.cpp ****         display_->DrawPixel(x+6, y+6, true);
 1343              		.loc 2 108 9 view .LVU355
 1344 03a2 6868     		ldr	r0, [r5, #4]
 108:src/UI/sequencer.cpp ****         display_->DrawPixel(x+6, y+6, true);
 1345              		.loc 2 108 43 view .LVU356
 1346 03a4 0368     		ldr	r3, [r0]
 1347 03a6 D3F81480 		ldr	r8, [r3, #20]
 108:src/UI/sequencer.cpp ****         display_->DrawPixel(x+6, y+6, true);
 1348              		.loc 2 108 9 is_stmt 1 view .LVU357
 1349 03aa B045     		cmp	r8, r6
 1350 03ac 3FF448AF 		beq	.L61
 1351              	.LVL91:
 1352              	.L42:
 108:src/UI/sequencer.cpp ****         display_->DrawPixel(x+6, y+6, true);
 1353              		.loc 2 108 28 is_stmt 0 view .LVU358
 1354 03b0 0123     		movs	r3, #1
ARM GAS  /var/folders/41/s_9r3f9s4p3_9jgx7wszdkhh0000gn/T//ccURNtC3.s 			page 47


 1355 03b2 4A46     		mov	r2, r9
 1356 03b4 5146     		mov	r1, r10
 1357 03b6 C047     		blx	r8
 1358              	.LVL92:
 109:src/UI/sequencer.cpp ****         display_->DrawPixel(x+5, y+6, true);
 1359              		.loc 2 109 9 view .LVU359
 1360 03b8 6868     		ldr	r0, [r5, #4]
 109:src/UI/sequencer.cpp ****         display_->DrawPixel(x+5, y+6, true);
 1361              		.loc 2 109 43 view .LVU360
 1362 03ba 0368     		ldr	r3, [r0]
 1363 03bc D3F81480 		ldr	r8, [r3, #20]
 109:src/UI/sequencer.cpp ****         display_->DrawPixel(x+5, y+6, true);
 1364              		.loc 2 109 9 is_stmt 1 view .LVU361
 1365 03c0 B045     		cmp	r8, r6
 1366 03c2 3FF456AF 		beq	.L62
 1367              	.L44:
 109:src/UI/sequencer.cpp ****         display_->DrawPixel(x+5, y+6, true);
 1368              		.loc 2 109 28 is_stmt 0 view .LVU362
 1369 03c6 0123     		movs	r3, #1
 1370 03c8 4A46     		mov	r2, r9
 1371 03ca 0199     		ldr	r1, [sp, #4]
 1372 03cc C047     		blx	r8
 1373              	.LVL93:
 110:src/UI/sequencer.cpp ****         display_->DrawPixel(x+6, y+5, true);
 1374              		.loc 2 110 9 view .LVU363
 1375 03ce 6868     		ldr	r0, [r5, #4]
 110:src/UI/sequencer.cpp ****         display_->DrawPixel(x+6, y+5, true);
 1376              		.loc 2 110 43 view .LVU364
 1377 03d0 0368     		ldr	r3, [r0]
 1378 03d2 D3F81480 		ldr	r8, [r3, #20]
 110:src/UI/sequencer.cpp ****         display_->DrawPixel(x+6, y+5, true);
 1379              		.loc 2 110 9 is_stmt 1 view .LVU365
 1380 03d6 B045     		cmp	r8, r6
 1381 03d8 3FF465AF 		beq	.L63
 1382              	.L46:
 110:src/UI/sequencer.cpp ****         display_->DrawPixel(x+6, y+5, true);
 1383              		.loc 2 110 28 is_stmt 0 view .LVU366
 1384 03dc 0123     		movs	r3, #1
 1385 03de 3A46     		mov	r2, r7
 1386 03e0 5146     		mov	r1, r10
 1387 03e2 C446     		mov	ip, r8
 1388              	.LBE1048:
 112:src/UI/sequencer.cpp **** }
 1389              		.loc 2 112 1 view .LVU367
 1390 03e4 03B0     		add	sp, sp, #12
 1391              		.cfi_def_cfa_offset 36
 1392              		@ sp needed
 1393 03e6 BDE8F04F 		pop	{r4, r5, r6, r7, r8, r9, r10, fp, lr}
 1394              		.cfi_restore 14
 1395              		.cfi_restore 11
 1396              		.cfi_restore 10
 1397              		.cfi_restore 9
 1398              		.cfi_restore 8
 1399              		.cfi_restore 7
 1400              		.cfi_restore 6
 1401              		.cfi_restore 5
 1402              		.cfi_restore 4
ARM GAS  /var/folders/41/s_9r3f9s4p3_9jgx7wszdkhh0000gn/T//ccURNtC3.s 			page 48


 1403              		.cfi_def_cfa_offset 0
 1404              	.LVL94:
 1405              	.LBB1049:
 110:src/UI/sequencer.cpp ****         display_->DrawPixel(x+6, y+5, true);
 1406              		.loc 2 110 28 view .LVU368
 1407 03ea 6047     		bx	ip	@ indirect register sibling call
 1408              	.LVL95:
 1409              	.LBE1049:
 1410              		.cfi_endproc
 1411              	.LFE4947:
 1413              		.section	.text._ZN9Sequencer9DrawArrowEiii,"ax",%progbits
 1414              		.align	1
 1415              		.p2align 2,,3
 1416              		.global	_ZN9Sequencer9DrawArrowEiii
 1417              		.syntax unified
 1418              		.thumb
 1419              		.thumb_func
 1421              	_ZN9Sequencer9DrawArrowEiii:
 1422              	.LVL96:
 1423              	.LFB4948:
 114:src/UI/sequencer.cpp **** void Sequencer::DrawArrow(int x, int y, int direction) {
 1424              		.loc 2 114 56 is_stmt 1 view -0
 1425              		.cfi_startproc
 1426              		@ args = 0, pretend = 0, frame = 8
 1427              		@ frame_needed = 0, uses_anonymous_args = 0
 114:src/UI/sequencer.cpp **** void Sequencer::DrawArrow(int x, int y, int direction) {
 1428              		.loc 2 114 56 is_stmt 0 view .LVU370
 1429 0000 2DE9F04F 		push	{r4, r5, r6, r7, r8, r9, r10, fp, lr}
 1430              		.cfi_def_cfa_offset 36
 1431              		.cfi_offset 4, -36
 1432              		.cfi_offset 5, -32
 1433              		.cfi_offset 6, -28
 1434              		.cfi_offset 7, -24
 1435              		.cfi_offset 8, -20
 1436              		.cfi_offset 9, -16
 1437              		.cfi_offset 10, -12
 1438              		.cfi_offset 11, -8
 1439              		.cfi_offset 14, -4
 1440 0004 1F46     		mov	r7, r3
 1441 0006 83B0     		sub	sp, sp, #12
 1442              		.cfi_def_cfa_offset 48
 1443 0008 D31E     		subs	r3, r2, #3
 1444              	.LVL97:
 114:src/UI/sequencer.cpp **** void Sequencer::DrawArrow(int x, int y, int direction) {
 1445              		.loc 2 114 56 view .LVU371
 1446 000a 1446     		mov	r4, r2
 1447 000c 0D46     		mov	r5, r1
 114:src/UI/sequencer.cpp **** void Sequencer::DrawArrow(int x, int y, int direction) {
 1448              		.loc 2 114 56 view .LVU372
 1449 000e 8246     		mov	r10, r0
 115:src/UI/sequencer.cpp ****     for (int i = 0; i < 3; i++) {
 1450              		.loc 2 115 5 is_stmt 1 view .LVU373
 1451              	.LVL98:
 1452              	.LBB1099:
 115:src/UI/sequencer.cpp ****     for (int i = 0; i < 3; i++) {
 1453              		.loc 2 115 23 view .LVU374
 1454              	.LBE1099:
ARM GAS  /var/folders/41/s_9r3f9s4p3_9jgx7wszdkhh0000gn/T//ccURNtC3.s 			page 49


 114:src/UI/sequencer.cpp **** void Sequencer::DrawArrow(int x, int y, int direction) {
 1455              		.loc 2 114 56 is_stmt 0 view .LVU375
 1456 0010 1646     		mov	r6, r2
 1457 0012 8846     		mov	r8, r1
 1458 0014 0193     		str	r3, [sp, #4]
 1459              	.LVL99:
 1460              	.L86:
 1461              	.LBB1127:
 116:src/UI/sequencer.cpp ****         if (direction == 1) {
 1462              		.loc 2 116 9 is_stmt 1 view .LVU376
 1463 0016 012F     		cmp	r7, #1
 1464 0018 12D0     		beq	.L96
 119:src/UI/sequencer.cpp ****         } else if (direction == 2) {
 1465              		.loc 2 119 16 view .LVU377
 1466 001a 022F     		cmp	r7, #2
 1467 001c 41D0     		beq	.L97
 122:src/UI/sequencer.cpp ****         } else if (direction == 3) {
 1468              		.loc 2 122 16 view .LVU378
 1469 001e 032F     		cmp	r7, #3
 1470 0020 68D0     		beq	.L98
 125:src/UI/sequencer.cpp ****         } else if (direction == 4) {
 1471              		.loc 2 125 16 view .LVU379
 1472 0022 042F     		cmp	r7, #4
 1473 0024 00F09380 		beq	.L99
 1474              	.L73:
 115:src/UI/sequencer.cpp ****     for (int i = 0; i < 3; i++) {
 1475              		.loc 2 115 5 discriminator 2 view .LVU380
 1476              	.LVL100:
 115:src/UI/sequencer.cpp ****     for (int i = 0; i < 3; i++) {
 1477              		.loc 2 115 23 discriminator 2 view .LVU381
 1478 0028 013C     		subs	r4, r4, #1
 1479 002a 019B     		ldr	r3, [sp, #4]
 1480 002c 0135     		adds	r5, r5, #1
 1481              	.LVL101:
 115:src/UI/sequencer.cpp ****     for (int i = 0; i < 3; i++) {
 1482              		.loc 2 115 23 is_stmt 0 discriminator 2 view .LVU382
 1483 002e 08F1FF38 		add	r8, r8, #-1
 1484 0032 9C42     		cmp	r4, r3
 1485 0034 06F10106 		add	r6, r6, #1
 1486 0038 EDD1     		bne	.L86
 1487              	.LBE1127:
 130:src/UI/sequencer.cpp **** }
 1488              		.loc 2 130 1 view .LVU383
 1489 003a 03B0     		add	sp, sp, #12
 1490              		.cfi_remember_state
 1491              		.cfi_def_cfa_offset 36
 1492              		@ sp needed
 1493 003c BDE8F08F 		pop	{r4, r5, r6, r7, r8, r9, r10, fp, pc}
 1494              	.LVL102:
 1495              	.L96:
 1496              		.cfi_restore_state
 1497              	.LBB1128:
 117:src/UI/sequencer.cpp ****             display_->DrawPixel(x + i, y + i, true);
 1498              		.loc 2 117 13 is_stmt 1 view .LVU384
 1499 0040 DAF80400 		ldr	r0, [r10, #4]
 1500 0044 DFF8A091 		ldr	r9, .L101
 117:src/UI/sequencer.cpp ****             display_->DrawPixel(x + i, y + i, true);
ARM GAS  /var/folders/41/s_9r3f9s4p3_9jgx7wszdkhh0000gn/T//ccURNtC3.s 			page 50


 1501              		.loc 2 117 51 is_stmt 0 view .LVU385
 1502 0048 0368     		ldr	r3, [r0]
 1503 004a D3F814B0 		ldr	fp, [r3, #20]
 1504 004e CB45     		cmp	fp, r9
 1505 0050 40F09180 		bne	.L68
 1506              	.LVL103:
 1507              	.LBB1100:
 1508              	.LBI1100:
  42:../DaisyExamples/libDaisy//src/hid/disp/oled_display.h ****     {
 1509              		.loc 3 42 10 is_stmt 1 view .LVU386
 1510              	.LBB1101:
 1511              	.LBI1101:
 352:../DaisyExamples/libDaisy//src/dev/oled_ssd130x.h ****     {
 1512              		.loc 4 352 10 view .LVU387
 1513              	.LBB1102:
 354:../DaisyExamples/libDaisy//src/dev/oled_ssd130x.h ****             return;
 1514              		.loc 4 354 9 is_stmt 0 view .LVU388
 1515 0054 7F2D     		cmp	r5, #127
 1516 0056 11D8     		bhi	.L69
 1517 0058 3F2E     		cmp	r6, #63
 1518 005a 0FD8     		bhi	.L69
 357:../DaisyExamples/libDaisy//src/dev/oled_ssd130x.h ****         else
 1519              		.loc 4 357 28 view .LVU389
 1520 005c F308     		lsrs	r3, r6, #3
 357:../DaisyExamples/libDaisy//src/dev/oled_ssd130x.h ****         else
 1521              		.loc 4 357 42 view .LVU390
 1522 005e 05EBC313 		add	r3, r5, r3, lsl #7
 1523 0062 1844     		add	r0, r0, r3
 1524              	.LVL104:
 357:../DaisyExamples/libDaisy//src/dev/oled_ssd130x.h ****         else
 1525              		.loc 4 357 54 view .LVU391
 1526 0064 06F00703 		and	r3, r6, #7
 357:../DaisyExamples/libDaisy//src/dev/oled_ssd130x.h ****         else
 1527              		.loc 4 357 42 view .LVU392
 1528 0068 027C     		ldrb	r2, [r0, #16]	@ zero_extendqisi2
 357:../DaisyExamples/libDaisy//src/dev/oled_ssd130x.h ****         else
 1529              		.loc 4 357 48 view .LVU393
 1530 006a 07FA03F3 		lsl	r3, r7, r3
 357:../DaisyExamples/libDaisy//src/dev/oled_ssd130x.h ****         else
 1531              		.loc 4 357 42 view .LVU394
 1532 006e 1343     		orrs	r3, r3, r2
 1533 0070 0374     		strb	r3, [r0, #16]
 1534              	.LVL105:
 357:../DaisyExamples/libDaisy//src/dev/oled_ssd130x.h ****         else
 1535              		.loc 4 357 42 view .LVU395
 1536              	.LBE1102:
 1537              	.LBE1101:
 1538              	.LBE1100:
 118:src/UI/sequencer.cpp ****             display_->DrawPixel(x + i, y - i, true);
 1539              		.loc 2 118 13 view .LVU396
 1540 0072 DAF80400 		ldr	r0, [r10, #4]
 118:src/UI/sequencer.cpp ****             display_->DrawPixel(x + i, y - i, true);
 1541              		.loc 2 118 51 view .LVU397
 1542 0076 0368     		ldr	r3, [r0]
 1543 0078 D3F814B0 		ldr	fp, [r3, #20]
 1544              	.L69:
 1545              	.LVL106:
ARM GAS  /var/folders/41/s_9r3f9s4p3_9jgx7wszdkhh0000gn/T//ccURNtC3.s 			page 51


 118:src/UI/sequencer.cpp ****             display_->DrawPixel(x + i, y - i, true);
 1546              		.loc 2 118 13 is_stmt 1 view .LVU398
 1547 007c CB45     		cmp	fp, r9
 1548 007e 40F08680 		bne	.L70
 1549              	.L100:
 1550              	.LVL107:
 1551              	.LBB1103:
 1552              	.LBI1103:
  42:../DaisyExamples/libDaisy//src/hid/disp/oled_display.h ****     {
 1553              		.loc 3 42 10 view .LVU399
 1554              	.LBB1104:
 1555              	.LBI1104:
 352:../DaisyExamples/libDaisy//src/dev/oled_ssd130x.h ****     {
 1556              		.loc 4 352 10 view .LVU400
 1557              	.LBB1105:
 354:../DaisyExamples/libDaisy//src/dev/oled_ssd130x.h ****             return;
 1558              		.loc 4 354 9 is_stmt 0 view .LVU401
 1559 0082 7F2D     		cmp	r5, #127
 1560 0084 D0D8     		bhi	.L73
 1561 0086 3F2C     		cmp	r4, #63
 1562 0088 CED8     		bhi	.L73
 357:../DaisyExamples/libDaisy//src/dev/oled_ssd130x.h ****         else
 1563              		.loc 4 357 28 view .LVU402
 1564 008a E308     		lsrs	r3, r4, #3
 357:../DaisyExamples/libDaisy//src/dev/oled_ssd130x.h ****         else
 1565              		.loc 4 357 42 view .LVU403
 1566 008c 05EBC313 		add	r3, r5, r3, lsl #7
 1567              	.LVL108:
 1568              	.L90:
 357:../DaisyExamples/libDaisy//src/dev/oled_ssd130x.h ****         else
 1569              		.loc 4 357 42 view .LVU404
 1570              	.LBE1105:
 1571              	.LBE1104:
 1572              	.LBE1103:
 1573              	.LBB1106:
 1574              	.LBB1107:
 1575              	.LBB1108:
 1576 0090 1844     		add	r0, r0, r3
 357:../DaisyExamples/libDaisy//src/dev/oled_ssd130x.h ****         else
 1577              		.loc 4 357 54 view .LVU405
 1578 0092 04F00702 		and	r2, r4, #7
 1579              	.L91:
 357:../DaisyExamples/libDaisy//src/dev/oled_ssd130x.h ****         else
 1580              		.loc 4 357 48 view .LVU406
 1581 0096 0123     		movs	r3, #1
 1582 0098 9340     		lsls	r3, r3, r2
 357:../DaisyExamples/libDaisy//src/dev/oled_ssd130x.h ****         else
 1583              		.loc 4 357 42 view .LVU407
 1584 009a 027C     		ldrb	r2, [r0, #16]	@ zero_extendqisi2
 1585 009c 1343     		orrs	r3, r3, r2
 1586 009e 0374     		strb	r3, [r0, #16]
 1587 00a0 C2E7     		b	.L73
 1588              	.L97:
 1589              	.LBE1108:
 1590              	.LBE1107:
 1591              	.LBE1106:
 120:src/UI/sequencer.cpp ****             display_->DrawPixel(x - i, y + i, true);
ARM GAS  /var/folders/41/s_9r3f9s4p3_9jgx7wszdkhh0000gn/T//ccURNtC3.s 			page 52


 1592              		.loc 2 120 13 is_stmt 1 view .LVU408
 1593 00a2 DAF80400 		ldr	r0, [r10, #4]
 1594 00a6 DFF84091 		ldr	r9, .L101
 120:src/UI/sequencer.cpp ****             display_->DrawPixel(x - i, y + i, true);
 1595              		.loc 2 120 51 is_stmt 0 view .LVU409
 1596 00aa 0368     		ldr	r3, [r0]
 1597 00ac D3F814B0 		ldr	fp, [r3, #20]
 1598 00b0 CB45     		cmp	fp, r9
 1599 00b2 76D1     		bne	.L75
 1600              	.LVL109:
 1601              	.LBB1111:
 1602              	.LBI1111:
  42:../DaisyExamples/libDaisy//src/hid/disp/oled_display.h ****     {
 1603              		.loc 3 42 10 is_stmt 1 view .LVU410
 1604              	.LBB1112:
 1605              	.LBI1112:
 352:../DaisyExamples/libDaisy//src/dev/oled_ssd130x.h ****     {
 1606              		.loc 4 352 10 view .LVU411
 1607              	.LBB1113:
 354:../DaisyExamples/libDaisy//src/dev/oled_ssd130x.h ****             return;
 1608              		.loc 4 354 9 is_stmt 0 view .LVU412
 1609 00b4 B8F17F0F 		cmp	r8, #127
 1610 00b8 11D8     		bhi	.L84
 1611 00ba 3F2E     		cmp	r6, #63
 1612 00bc 0FD8     		bhi	.L84
 357:../DaisyExamples/libDaisy//src/dev/oled_ssd130x.h ****         else
 1613              		.loc 4 357 28 view .LVU413
 1614 00be F308     		lsrs	r3, r6, #3
 357:../DaisyExamples/libDaisy//src/dev/oled_ssd130x.h ****         else
 1615              		.loc 4 357 54 view .LVU414
 1616 00c0 06F00702 		and	r2, r6, #7
 357:../DaisyExamples/libDaisy//src/dev/oled_ssd130x.h ****         else
 1617              		.loc 4 357 42 view .LVU415
 1618 00c4 08EBC313 		add	r3, r8, r3, lsl #7
 1619 00c8 1844     		add	r0, r0, r3
 1620              	.LVL110:
 1621              	.L95:
 357:../DaisyExamples/libDaisy//src/dev/oled_ssd130x.h ****         else
 1622              		.loc 4 357 42 view .LVU416
 1623              	.LBE1113:
 1624              	.LBE1112:
 1625              	.LBE1111:
 1626              	.LBB1114:
 1627              	.LBB1115:
 1628              	.LBB1116:
 357:../DaisyExamples/libDaisy//src/dev/oled_ssd130x.h ****         else
 1629              		.loc 4 357 48 view .LVU417
 1630 00ca 0123     		movs	r3, #1
 1631 00cc 9340     		lsls	r3, r3, r2
 357:../DaisyExamples/libDaisy//src/dev/oled_ssd130x.h ****         else
 1632              		.loc 4 357 42 view .LVU418
 1633 00ce 027C     		ldrb	r2, [r0, #16]	@ zero_extendqisi2
 1634 00d0 1343     		orrs	r3, r3, r2
 1635 00d2 0374     		strb	r3, [r0, #16]
 1636              	.LBE1116:
 1637              	.LBE1115:
 1638              	.LBE1114:
ARM GAS  /var/folders/41/s_9r3f9s4p3_9jgx7wszdkhh0000gn/T//ccURNtC3.s 			page 53


 127:src/UI/sequencer.cpp ****             display_->DrawPixel(x - i, y - i, true);
 1639              		.loc 2 127 13 view .LVU419
 1640 00d4 DAF80400 		ldr	r0, [r10, #4]
 127:src/UI/sequencer.cpp ****             display_->DrawPixel(x - i, y - i, true);
 1641              		.loc 2 127 51 view .LVU420
 1642 00d8 0368     		ldr	r3, [r0]
 1643 00da D3F814B0 		ldr	fp, [r3, #20]
 1644              	.L84:
 127:src/UI/sequencer.cpp ****             display_->DrawPixel(x - i, y - i, true);
 1645              		.loc 2 127 13 is_stmt 1 view .LVU421
 1646 00de CB45     		cmp	fp, r9
 1647 00e0 5AD1     		bne	.L85
 1648              	.LVL111:
 1649              	.LBB1119:
 1650              	.LBI1106:
  42:../DaisyExamples/libDaisy//src/hid/disp/oled_display.h ****     {
 1651              		.loc 3 42 10 view .LVU422
 1652              	.LBB1110:
 1653              	.LBI1107:
 352:../DaisyExamples/libDaisy//src/dev/oled_ssd130x.h ****     {
 1654              		.loc 4 352 10 view .LVU423
 1655              	.LBB1109:
 354:../DaisyExamples/libDaisy//src/dev/oled_ssd130x.h ****             return;
 1656              		.loc 4 354 9 is_stmt 0 view .LVU424
 1657 00e2 B8F17F0F 		cmp	r8, #127
 1658 00e6 9FD8     		bhi	.L73
 1659 00e8 3F2C     		cmp	r4, #63
 1660 00ea 9DD8     		bhi	.L73
 357:../DaisyExamples/libDaisy//src/dev/oled_ssd130x.h ****         else
 1661              		.loc 4 357 28 view .LVU425
 1662 00ec E308     		lsrs	r3, r4, #3
 357:../DaisyExamples/libDaisy//src/dev/oled_ssd130x.h ****         else
 1663              		.loc 4 357 42 view .LVU426
 1664 00ee 08EBC313 		add	r3, r8, r3, lsl #7
 1665 00f2 CDE7     		b	.L90
 1666              	.LVL112:
 1667              	.L98:
 357:../DaisyExamples/libDaisy//src/dev/oled_ssd130x.h ****         else
 1668              		.loc 4 357 42 view .LVU427
 1669              	.LBE1109:
 1670              	.LBE1110:
 1671              	.LBE1119:
 123:src/UI/sequencer.cpp ****             display_->DrawPixel(x + i, y + i, true);
 1672              		.loc 2 123 13 is_stmt 1 view .LVU428
 1673 00f4 DAF80400 		ldr	r0, [r10, #4]
 1674 00f8 DFF8EC90 		ldr	r9, .L101
 123:src/UI/sequencer.cpp ****             display_->DrawPixel(x + i, y + i, true);
 1675              		.loc 2 123 51 is_stmt 0 view .LVU429
 1676 00fc 0368     		ldr	r3, [r0]
 1677 00fe D3F814B0 		ldr	fp, [r3, #20]
 1678 0102 CB45     		cmp	fp, r9
 1679 0104 5CD1     		bne	.L80
 1680              	.LVL113:
 1681              	.LBB1120:
 1682              	.LBI1120:
  42:../DaisyExamples/libDaisy//src/hid/disp/oled_display.h ****     {
 1683              		.loc 3 42 10 is_stmt 1 view .LVU430
ARM GAS  /var/folders/41/s_9r3f9s4p3_9jgx7wszdkhh0000gn/T//ccURNtC3.s 			page 54


 1684              	.LBB1121:
 1685              	.LBI1121:
 352:../DaisyExamples/libDaisy//src/dev/oled_ssd130x.h ****     {
 1686              		.loc 4 352 10 view .LVU431
 1687              	.LBB1122:
 354:../DaisyExamples/libDaisy//src/dev/oled_ssd130x.h ****             return;
 1688              		.loc 4 354 9 is_stmt 0 view .LVU432
 1689 0106 7F2D     		cmp	r5, #127
 1690 0108 11D8     		bhi	.L81
 1691 010a 3F2E     		cmp	r6, #63
 1692 010c 0FD8     		bhi	.L81
 357:../DaisyExamples/libDaisy//src/dev/oled_ssd130x.h ****         else
 1693              		.loc 4 357 28 view .LVU433
 1694 010e F308     		lsrs	r3, r6, #3
 357:../DaisyExamples/libDaisy//src/dev/oled_ssd130x.h ****         else
 1695              		.loc 4 357 54 view .LVU434
 1696 0110 06F00702 		and	r2, r6, #7
 357:../DaisyExamples/libDaisy//src/dev/oled_ssd130x.h ****         else
 1697              		.loc 4 357 42 view .LVU435
 1698 0114 05EBC313 		add	r3, r5, r3, lsl #7
 1699 0118 1844     		add	r0, r0, r3
 1700              	.LVL114:
 357:../DaisyExamples/libDaisy//src/dev/oled_ssd130x.h ****         else
 1701              		.loc 4 357 48 view .LVU436
 1702 011a 0123     		movs	r3, #1
 1703 011c 9340     		lsls	r3, r3, r2
 357:../DaisyExamples/libDaisy//src/dev/oled_ssd130x.h ****         else
 1704              		.loc 4 357 42 view .LVU437
 1705 011e 027C     		ldrb	r2, [r0, #16]	@ zero_extendqisi2
 1706 0120 1343     		orrs	r3, r3, r2
 1707 0122 0374     		strb	r3, [r0, #16]
 1708              	.LVL115:
 357:../DaisyExamples/libDaisy//src/dev/oled_ssd130x.h ****         else
 1709              		.loc 4 357 42 view .LVU438
 1710              	.LBE1122:
 1711              	.LBE1121:
 1712              	.LBE1120:
 124:src/UI/sequencer.cpp ****             display_->DrawPixel(x - i, y + i, true);
 1713              		.loc 2 124 13 view .LVU439
 1714 0124 DAF80400 		ldr	r0, [r10, #4]
 124:src/UI/sequencer.cpp ****             display_->DrawPixel(x - i, y + i, true);
 1715              		.loc 2 124 51 view .LVU440
 1716 0128 0368     		ldr	r3, [r0]
 1717 012a D3F814B0 		ldr	fp, [r3, #20]
 1718              	.LVL116:
 1719              	.L81:
 124:src/UI/sequencer.cpp ****             display_->DrawPixel(x - i, y + i, true);
 1720              		.loc 2 124 13 is_stmt 1 view .LVU441
 1721 012e CB45     		cmp	fp, r9
 1722 0130 41D1     		bne	.L82
 1723              	.LVL117:
 1724              	.LBB1123:
 1725              	.LBI1123:
  42:../DaisyExamples/libDaisy//src/hid/disp/oled_display.h ****     {
 1726              		.loc 3 42 10 view .LVU442
 1727              	.LBB1124:
 1728              	.LBI1124:
ARM GAS  /var/folders/41/s_9r3f9s4p3_9jgx7wszdkhh0000gn/T//ccURNtC3.s 			page 55


 352:../DaisyExamples/libDaisy//src/dev/oled_ssd130x.h ****     {
 1729              		.loc 4 352 10 view .LVU443
 1730              	.LBB1125:
 354:../DaisyExamples/libDaisy//src/dev/oled_ssd130x.h ****             return;
 1731              		.loc 4 354 9 is_stmt 0 view .LVU444
 1732 0132 B8F17F0F 		cmp	r8, #127
 1733 0136 3FF677AF 		bhi	.L73
 1734 013a 3F2E     		cmp	r6, #63
 1735 013c 3FF674AF 		bhi	.L73
 357:../DaisyExamples/libDaisy//src/dev/oled_ssd130x.h ****         else
 1736              		.loc 4 357 28 view .LVU445
 1737 0140 F308     		lsrs	r3, r6, #3
 357:../DaisyExamples/libDaisy//src/dev/oled_ssd130x.h ****         else
 1738              		.loc 4 357 54 view .LVU446
 1739 0142 06F00702 		and	r2, r6, #7
 357:../DaisyExamples/libDaisy//src/dev/oled_ssd130x.h ****         else
 1740              		.loc 4 357 42 view .LVU447
 1741 0146 08EBC313 		add	r3, r8, r3, lsl #7
 1742 014a 1844     		add	r0, r0, r3
 1743 014c A3E7     		b	.L91
 1744              	.LVL118:
 1745              	.L99:
 357:../DaisyExamples/libDaisy//src/dev/oled_ssd130x.h ****         else
 1746              		.loc 4 357 42 view .LVU448
 1747              	.LBE1125:
 1748              	.LBE1124:
 1749              	.LBE1123:
 126:src/UI/sequencer.cpp ****             display_->DrawPixel(x + i, y - i, true);
 1750              		.loc 2 126 13 is_stmt 1 view .LVU449
 1751 014e DAF80400 		ldr	r0, [r10, #4]
 1752 0152 DFF89490 		ldr	r9, .L101
 126:src/UI/sequencer.cpp ****             display_->DrawPixel(x + i, y - i, true);
 1753              		.loc 2 126 51 is_stmt 0 view .LVU450
 1754 0156 0368     		ldr	r3, [r0]
 1755 0158 D3F814B0 		ldr	fp, [r3, #20]
 1756 015c CB45     		cmp	fp, r9
 1757 015e 39D1     		bne	.L83
 1758              	.LVL119:
 1759              	.LBB1126:
 1760              	.LBI1114:
  42:../DaisyExamples/libDaisy//src/hid/disp/oled_display.h ****     {
 1761              		.loc 3 42 10 is_stmt 1 view .LVU451
 1762              	.LBB1118:
 1763              	.LBI1115:
 352:../DaisyExamples/libDaisy//src/dev/oled_ssd130x.h ****     {
 1764              		.loc 4 352 10 view .LVU452
 1765              	.LBB1117:
 354:../DaisyExamples/libDaisy//src/dev/oled_ssd130x.h ****             return;
 1766              		.loc 4 354 9 is_stmt 0 view .LVU453
 1767 0160 7F2D     		cmp	r5, #127
 1768 0162 BCD8     		bhi	.L84
 1769 0164 3F2C     		cmp	r4, #63
 1770 0166 BAD8     		bhi	.L84
 357:../DaisyExamples/libDaisy//src/dev/oled_ssd130x.h ****         else
 1771              		.loc 4 357 28 view .LVU454
 1772 0168 E308     		lsrs	r3, r4, #3
 357:../DaisyExamples/libDaisy//src/dev/oled_ssd130x.h ****         else
ARM GAS  /var/folders/41/s_9r3f9s4p3_9jgx7wszdkhh0000gn/T//ccURNtC3.s 			page 56


 1773              		.loc 4 357 54 view .LVU455
 1774 016a 04F00702 		and	r2, r4, #7
 357:../DaisyExamples/libDaisy//src/dev/oled_ssd130x.h ****         else
 1775              		.loc 4 357 42 view .LVU456
 1776 016e 05EBC313 		add	r3, r5, r3, lsl #7
 1777 0172 1844     		add	r0, r0, r3
 1778              	.LVL120:
 357:../DaisyExamples/libDaisy//src/dev/oled_ssd130x.h ****         else
 1779              		.loc 4 357 42 view .LVU457
 1780 0174 A9E7     		b	.L95
 1781              	.LVL121:
 1782              	.L68:
 357:../DaisyExamples/libDaisy//src/dev/oled_ssd130x.h ****         else
 1783              		.loc 4 357 42 view .LVU458
 1784              	.LBE1117:
 1785              	.LBE1118:
 1786              	.LBE1126:
 117:src/UI/sequencer.cpp ****             display_->DrawPixel(x + i, y + i, true);
 1787              		.loc 2 117 32 view .LVU459
 1788 0176 3B46     		mov	r3, r7
 1789 0178 3246     		mov	r2, r6
 1790 017a 2946     		mov	r1, r5
 1791 017c D847     		blx	fp
 1792              	.LVL122:
 118:src/UI/sequencer.cpp ****             display_->DrawPixel(x + i, y - i, true);
 1793              		.loc 2 118 13 view .LVU460
 1794 017e DAF80400 		ldr	r0, [r10, #4]
 118:src/UI/sequencer.cpp ****             display_->DrawPixel(x + i, y - i, true);
 1795              		.loc 2 118 51 view .LVU461
 1796 0182 0368     		ldr	r3, [r0]
 1797 0184 D3F814B0 		ldr	fp, [r3, #20]
 118:src/UI/sequencer.cpp ****             display_->DrawPixel(x + i, y - i, true);
 1798              		.loc 2 118 13 is_stmt 1 view .LVU462
 1799 0188 CB45     		cmp	fp, r9
 1800 018a 3FF47AAF 		beq	.L100
 1801              	.L70:
 118:src/UI/sequencer.cpp ****             display_->DrawPixel(x + i, y - i, true);
 1802              		.loc 2 118 32 is_stmt 0 view .LVU463
 1803 018e 0123     		movs	r3, #1
 1804 0190 2246     		mov	r2, r4
 1805 0192 2946     		mov	r1, r5
 1806 0194 D847     		blx	fp
 1807              	.LVL123:
 1808 0196 47E7     		b	.L73
 1809              	.L85:
 127:src/UI/sequencer.cpp ****             display_->DrawPixel(x - i, y - i, true);
 1810              		.loc 2 127 32 view .LVU464
 1811 0198 0123     		movs	r3, #1
 1812 019a 2246     		mov	r2, r4
 1813 019c 4146     		mov	r1, r8
 1814 019e D847     		blx	fp
 1815              	.LVL124:
 1816 01a0 42E7     		b	.L73
 1817              	.L75:
 120:src/UI/sequencer.cpp ****             display_->DrawPixel(x - i, y + i, true);
 1818              		.loc 2 120 32 view .LVU465
 1819 01a2 0123     		movs	r3, #1
ARM GAS  /var/folders/41/s_9r3f9s4p3_9jgx7wszdkhh0000gn/T//ccURNtC3.s 			page 57


 1820 01a4 3246     		mov	r2, r6
 1821 01a6 4146     		mov	r1, r8
 1822 01a8 D847     		blx	fp
 1823              	.LVL125:
 121:src/UI/sequencer.cpp ****             display_->DrawPixel(x - i, y - i, true);
 1824              		.loc 2 121 13 view .LVU466
 1825 01aa DAF80400 		ldr	r0, [r10, #4]
 121:src/UI/sequencer.cpp ****             display_->DrawPixel(x - i, y - i, true);
 1826              		.loc 2 121 51 view .LVU467
 1827 01ae 0368     		ldr	r3, [r0]
 1828 01b0 D3F814B0 		ldr	fp, [r3, #20]
 121:src/UI/sequencer.cpp ****             display_->DrawPixel(x - i, y - i, true);
 1829              		.loc 2 121 13 is_stmt 1 view .LVU468
 1830 01b4 93E7     		b	.L84
 1831              	.L82:
 124:src/UI/sequencer.cpp ****             display_->DrawPixel(x - i, y + i, true);
 1832              		.loc 2 124 32 is_stmt 0 view .LVU469
 1833 01b6 0123     		movs	r3, #1
 1834 01b8 3246     		mov	r2, r6
 1835 01ba 4146     		mov	r1, r8
 1836 01bc D847     		blx	fp
 1837              	.LVL126:
 1838 01be 33E7     		b	.L73
 1839              	.L80:
 123:src/UI/sequencer.cpp ****             display_->DrawPixel(x + i, y + i, true);
 1840              		.loc 2 123 32 view .LVU470
 1841 01c0 0123     		movs	r3, #1
 1842 01c2 3246     		mov	r2, r6
 1843 01c4 2946     		mov	r1, r5
 1844 01c6 D847     		blx	fp
 1845              	.LVL127:
 124:src/UI/sequencer.cpp ****             display_->DrawPixel(x - i, y + i, true);
 1846              		.loc 2 124 13 view .LVU471
 1847 01c8 DAF80400 		ldr	r0, [r10, #4]
 124:src/UI/sequencer.cpp ****             display_->DrawPixel(x - i, y + i, true);
 1848              		.loc 2 124 51 view .LVU472
 1849 01cc 0368     		ldr	r3, [r0]
 1850 01ce D3F814B0 		ldr	fp, [r3, #20]
 1851 01d2 ACE7     		b	.L81
 1852              	.L83:
 126:src/UI/sequencer.cpp ****             display_->DrawPixel(x + i, y - i, true);
 1853              		.loc 2 126 32 view .LVU473
 1854 01d4 0123     		movs	r3, #1
 1855 01d6 2246     		mov	r2, r4
 1856 01d8 2946     		mov	r1, r5
 1857 01da D847     		blx	fp
 1858              	.LVL128:
 127:src/UI/sequencer.cpp ****             display_->DrawPixel(x - i, y - i, true);
 1859              		.loc 2 127 13 view .LVU474
 1860 01dc DAF80400 		ldr	r0, [r10, #4]
 127:src/UI/sequencer.cpp ****             display_->DrawPixel(x - i, y - i, true);
 1861              		.loc 2 127 51 view .LVU475
 1862 01e0 0368     		ldr	r3, [r0]
 1863 01e2 D3F814B0 		ldr	fp, [r3, #20]
 1864 01e6 7AE7     		b	.L84
 1865              	.L102:
 1866              		.align	2
ARM GAS  /var/folders/41/s_9r3f9s4p3_9jgx7wszdkhh0000gn/T//ccURNtC3.s 			page 58


 1867              	.L101:
 1868 01e8 00000000 		.word	_ZN5daisy11OledDisplayINS_13SSD130xDriverILj128ELj64ENS_19SSD130xI2CTransportEEEE9DrawPixelE
 1869              	.LBE1128:
 1870              		.cfi_endproc
 1871              	.LFE4948:
 1873              		.section	.rodata._ZN9Sequencer11GetFxStringEPcii.str1.4,"aMS",%progbits,1
 1874              		.align	2
 1875              	.LC0:
 1876 0000 2D2D2D00 		.ascii	"---\000"
 1877              		.align	2
 1878              	.LC1:
 1879 0004 5200     		.ascii	"R\000"
 1880 0006 0000     		.align	2
 1881              	.LC2:
 1882 0008 5500     		.ascii	"U\000"
 1883 000a 0000     		.align	2
 1884              	.LC3:
 1885 000c 4400     		.ascii	"D\000"
 1886 000e 0000     		.align	2
 1887              	.LC4:
 1888 0010 4900     		.ascii	"I\000"
 1889 0012 0000     		.align	2
 1890              	.LC5:
 1891 0014 4F00     		.ascii	"O\000"
 1892 0016 0000     		.align	2
 1893              	.LC6:
 1894 0018 4600     		.ascii	"F\000"
 1895 001a 0000     		.align	2
 1896              	.LC7:
 1897 001c 2D256400 		.ascii	"-%d\000"
 1898              		.align	2
 1899              	.LC8:
 1900 0020 256400   		.ascii	"%d\000"
 1901              		.section	.text._ZN9Sequencer11GetFxStringEPcii,"ax",%progbits
 1902              		.align	1
 1903              		.p2align 2,,3
 1904              		.global	_ZN9Sequencer11GetFxStringEPcii
 1905              		.syntax unified
 1906              		.thumb
 1907              		.thumb_func
 1909              	_ZN9Sequencer11GetFxStringEPcii:
 1910              	.LVL129:
 1911              	.LFB4949:
 132:src/UI/sequencer.cpp **** void Sequencer::GetFxString(char* strbuff, int fx, int fxAmount) {
 1912              		.loc 2 132 66 is_stmt 1 view -0
 1913              		.cfi_startproc
 1914              		@ args = 0, pretend = 0, frame = 0
 1915              		@ frame_needed = 0, uses_anonymous_args = 0
 133:src/UI/sequencer.cpp ****     if (fx == 0) sprintf(strbuff, "---");
 1916              		.loc 2 133 5 view .LVU477
 132:src/UI/sequencer.cpp **** void Sequencer::GetFxString(char* strbuff, int fx, int fxAmount) {
 1917              		.loc 2 132 66 is_stmt 0 view .LVU478
 1918 0000 38B5     		push	{r3, r4, r5, lr}
 1919              		.cfi_def_cfa_offset 16
 1920              		.cfi_offset 3, -16
 1921              		.cfi_offset 4, -12
 1922              		.cfi_offset 5, -8
ARM GAS  /var/folders/41/s_9r3f9s4p3_9jgx7wszdkhh0000gn/T//ccURNtC3.s 			page 59


 1923              		.cfi_offset 14, -4
 132:src/UI/sequencer.cpp **** void Sequencer::GetFxString(char* strbuff, int fx, int fxAmount) {
 1924              		.loc 2 132 66 view .LVU479
 1925 0002 0C46     		mov	r4, r1
 133:src/UI/sequencer.cpp ****     if (fx == 0) sprintf(strbuff, "---");
 1926              		.loc 2 133 5 view .LVU480
 1927 0004 1AB3     		cbz	r2, .L115
 1928              	.LBB1131:
 1929              	.LBB1132:
 135:src/UI/sequencer.cpp ****         if (fx == 1) sprintf(strbuff, "R");
 1930              		.loc 2 135 9 view .LVU481
 1931 0006 012A     		cmp	r2, #1
 1932 0008 1D46     		mov	r5, r3
 1933              	.LVL130:
 135:src/UI/sequencer.cpp ****         if (fx == 1) sprintf(strbuff, "R");
 1934              		.loc 2 135 9 view .LVU482
 1935              	.LBE1132:
 1936              	.LBI1131:
 132:src/UI/sequencer.cpp **** void Sequencer::GetFxString(char* strbuff, int fx, int fxAmount) {
 1937              		.loc 2 132 6 is_stmt 1 view .LVU483
 1938              	.LBB1133:
 135:src/UI/sequencer.cpp ****         if (fx == 1) sprintf(strbuff, "R");
 1939              		.loc 2 135 9 view .LVU484
 1940 000a 28D0     		beq	.L116
 136:src/UI/sequencer.cpp ****         else if (fx == 2) sprintf(strbuff, "U");
 1941              		.loc 2 136 14 view .LVU485
 1942 000c 022A     		cmp	r2, #2
 1943 000e 22D0     		beq	.L117
 137:src/UI/sequencer.cpp ****         else if (fx == 3) sprintf(strbuff, "D");
 1944              		.loc 2 137 14 view .LVU486
 1945 0010 032A     		cmp	r2, #3
 1946 0012 28D0     		beq	.L118
 138:src/UI/sequencer.cpp ****         else if (fx == 4) sprintf(strbuff, "I");
 1947              		.loc 2 138 14 view .LVU487
 1948 0014 042A     		cmp	r2, #4
 1949 0016 2AD0     		beq	.L119
 139:src/UI/sequencer.cpp ****         else if (fx == 5) sprintf(strbuff, "O");
 1950              		.loc 2 139 14 view .LVU488
 1951 0018 052A     		cmp	r2, #5
 139:src/UI/sequencer.cpp ****         else if (fx == 5) sprintf(strbuff, "O");
 1952              		.loc 2 139 27 view .LVU489
 139:src/UI/sequencer.cpp ****         else if (fx == 5) sprintf(strbuff, "O");
 1953              		.loc 2 139 34 is_stmt 0 view .LVU490
 1954 001a 0CBF     		ite	eq
 1955 001c 164B     		ldreq	r3, .L120
 1956              	.LVL131:
 140:src/UI/sequencer.cpp ****         else sprintf(strbuff, "F");
 1957              		.loc 2 140 14 is_stmt 1 view .LVU491
 140:src/UI/sequencer.cpp ****         else sprintf(strbuff, "F");
 1958              		.loc 2 140 21 is_stmt 0 view .LVU492
 1959 001e 174B     		ldrne	r3, .L120+4
 1960 0020 1B88     		ldrh	r3, [r3]	@ unaligned
 1961 0022 0B80     		strh	r3, [r1]	@ unaligned
 1962              	.L107:
 142:src/UI/sequencer.cpp ****         if (fxAmount < 10) sprintf(strbuff + strlen(strbuff), "-%d", fxAmount);
 1963              		.loc 2 142 9 is_stmt 1 view .LVU493
 1964 0024 092D     		cmp	r5, #9
ARM GAS  /var/folders/41/s_9r3f9s4p3_9jgx7wszdkhh0000gn/T//ccURNtC3.s 			page 60


 142:src/UI/sequencer.cpp ****         if (fxAmount < 10) sprintf(strbuff + strlen(strbuff), "-%d", fxAmount);
 1965              		.loc 2 142 52 is_stmt 0 view .LVU494
 1966 0026 2046     		mov	r0, r4
 1967              	.LVL132:
 142:src/UI/sequencer.cpp ****         if (fxAmount < 10) sprintf(strbuff + strlen(strbuff), "-%d", fxAmount);
 1968              		.loc 2 142 9 view .LVU495
 1969 0028 08DC     		bgt	.L112
 1970              	.LVL133:
 142:src/UI/sequencer.cpp ****         if (fxAmount < 10) sprintf(strbuff + strlen(strbuff), "-%d", fxAmount);
 1971              		.loc 2 142 28 is_stmt 1 view .LVU496
 142:src/UI/sequencer.cpp ****         if (fxAmount < 10) sprintf(strbuff + strlen(strbuff), "-%d", fxAmount);
 1972              		.loc 2 142 52 is_stmt 0 view .LVU497
 1973 002a FFF7FEFF 		bl	strlen
 1974              	.LVL134:
 142:src/UI/sequencer.cpp ****         if (fxAmount < 10) sprintf(strbuff + strlen(strbuff), "-%d", fxAmount);
 1975              		.loc 2 142 35 view .LVU498
 1976 002e 2A46     		mov	r2, r5
 1977 0030 2044     		add	r0, r0, r4
 1978 0032 1349     		ldr	r1, .L120+8
 1979              	.LBE1133:
 1980              	.LBE1131:
 145:src/UI/sequencer.cpp **** }
 1981              		.loc 2 145 1 view .LVU499
 1982 0034 BDE83840 		pop	{r3, r4, r5, lr}
 1983              		.cfi_remember_state
 1984              		.cfi_restore 14
 1985              		.cfi_restore 5
 1986              		.cfi_restore 4
 1987              		.cfi_restore 3
 1988              		.cfi_def_cfa_offset 0
 1989              	.LVL135:
 1990              	.LBB1137:
 1991              	.LBB1134:
 142:src/UI/sequencer.cpp ****         if (fxAmount < 10) sprintf(strbuff + strlen(strbuff), "-%d", fxAmount);
 1992              		.loc 2 142 35 view .LVU500
 1993 0038 FFF7FEBF 		b	sprintf
 1994              	.LVL136:
 1995              	.L112:
 1996              		.cfi_restore_state
 143:src/UI/sequencer.cpp ****         else sprintf(strbuff + strlen(strbuff), "%d", fxAmount);
 1997              		.loc 2 143 14 is_stmt 1 view .LVU501
 143:src/UI/sequencer.cpp ****         else sprintf(strbuff + strlen(strbuff), "%d", fxAmount);
 1998              		.loc 2 143 38 is_stmt 0 view .LVU502
 1999 003c FFF7FEFF 		bl	strlen
 2000              	.LVL137:
 143:src/UI/sequencer.cpp ****         else sprintf(strbuff + strlen(strbuff), "%d", fxAmount);
 2001              		.loc 2 143 21 view .LVU503
 2002 0040 2A46     		mov	r2, r5
 2003 0042 2044     		add	r0, r0, r4
 2004 0044 0F49     		ldr	r1, .L120+12
 2005              	.LBE1134:
 2006              	.LBE1137:
 145:src/UI/sequencer.cpp **** }
 2007              		.loc 2 145 1 view .LVU504
 2008 0046 BDE83840 		pop	{r3, r4, r5, lr}
 2009              		.cfi_remember_state
 2010              		.cfi_restore 14
ARM GAS  /var/folders/41/s_9r3f9s4p3_9jgx7wszdkhh0000gn/T//ccURNtC3.s 			page 61


 2011              		.cfi_restore 5
 2012              		.cfi_restore 4
 2013              		.cfi_restore 3
 2014              		.cfi_def_cfa_offset 0
 2015              	.LVL138:
 2016              	.LBB1138:
 2017              	.LBB1135:
 143:src/UI/sequencer.cpp ****         else sprintf(strbuff + strlen(strbuff), "%d", fxAmount);
 2018              		.loc 2 143 21 view .LVU505
 2019 004a FFF7FEBF 		b	sprintf
 2020              	.LVL139:
 2021              	.L115:
 2022              		.cfi_restore_state
 143:src/UI/sequencer.cpp ****         else sprintf(strbuff + strlen(strbuff), "%d", fxAmount);
 2023              		.loc 2 143 21 view .LVU506
 2024              	.LBE1135:
 2025              	.LBE1138:
 133:src/UI/sequencer.cpp ****     if (fx == 0) sprintf(strbuff, "---");
 2026              		.loc 2 133 18 is_stmt 1 discriminator 1 view .LVU507
 133:src/UI/sequencer.cpp ****     if (fx == 0) sprintf(strbuff, "---");
 2027              		.loc 2 133 25 is_stmt 0 discriminator 1 view .LVU508
 2028 004e 0E4B     		ldr	r3, .L120+16
 2029              	.LVL140:
 133:src/UI/sequencer.cpp ****     if (fx == 0) sprintf(strbuff, "---");
 2030              		.loc 2 133 25 discriminator 1 view .LVU509
 2031 0050 1868     		ldr	r0, [r3]
 2032              	.LVL141:
 133:src/UI/sequencer.cpp ****     if (fx == 0) sprintf(strbuff, "---");
 2033              		.loc 2 133 25 discriminator 1 view .LVU510
 2034 0052 0860     		str	r0, [r1]	@ unaligned
 145:src/UI/sequencer.cpp **** }
 2035              		.loc 2 145 1 discriminator 1 view .LVU511
 2036 0054 38BD     		pop	{r3, r4, r5, pc}
 2037              	.LVL142:
 2038              	.L117:
 2039              	.LBB1139:
 2040              	.LBB1136:
 136:src/UI/sequencer.cpp ****         else if (fx == 2) sprintf(strbuff, "U");
 2041              		.loc 2 136 27 is_stmt 1 view .LVU512
 136:src/UI/sequencer.cpp ****         else if (fx == 2) sprintf(strbuff, "U");
 2042              		.loc 2 136 34 is_stmt 0 view .LVU513
 2043 0056 0D4B     		ldr	r3, .L120+20
 2044              	.LVL143:
 136:src/UI/sequencer.cpp ****         else if (fx == 2) sprintf(strbuff, "U");
 2045              		.loc 2 136 34 view .LVU514
 2046 0058 1B88     		ldrh	r3, [r3]	@ unaligned
 2047 005a 0B80     		strh	r3, [r1]	@ unaligned
 2048 005c E2E7     		b	.L107
 2049              	.LVL144:
 2050              	.L116:
 135:src/UI/sequencer.cpp ****         if (fx == 1) sprintf(strbuff, "R");
 2051              		.loc 2 135 22 is_stmt 1 view .LVU515
 135:src/UI/sequencer.cpp ****         if (fx == 1) sprintf(strbuff, "R");
 2052              		.loc 2 135 29 is_stmt 0 view .LVU516
 2053 005e 0C4B     		ldr	r3, .L120+24
 2054              	.LVL145:
 135:src/UI/sequencer.cpp ****         if (fx == 1) sprintf(strbuff, "R");
ARM GAS  /var/folders/41/s_9r3f9s4p3_9jgx7wszdkhh0000gn/T//ccURNtC3.s 			page 62


 2055              		.loc 2 135 29 view .LVU517
 2056 0060 1B88     		ldrh	r3, [r3]	@ unaligned
 2057 0062 0B80     		strh	r3, [r1]	@ unaligned
 2058 0064 DEE7     		b	.L107
 2059              	.LVL146:
 2060              	.L118:
 137:src/UI/sequencer.cpp ****         else if (fx == 3) sprintf(strbuff, "D");
 2061              		.loc 2 137 27 is_stmt 1 view .LVU518
 137:src/UI/sequencer.cpp ****         else if (fx == 3) sprintf(strbuff, "D");
 2062              		.loc 2 137 34 is_stmt 0 view .LVU519
 2063 0066 0B4B     		ldr	r3, .L120+28
 2064              	.LVL147:
 137:src/UI/sequencer.cpp ****         else if (fx == 3) sprintf(strbuff, "D");
 2065              		.loc 2 137 34 view .LVU520
 2066 0068 1B88     		ldrh	r3, [r3]	@ unaligned
 2067 006a 0B80     		strh	r3, [r1]	@ unaligned
 2068 006c DAE7     		b	.L107
 2069              	.LVL148:
 2070              	.L119:
 138:src/UI/sequencer.cpp ****         else if (fx == 4) sprintf(strbuff, "I");
 2071              		.loc 2 138 27 is_stmt 1 view .LVU521
 138:src/UI/sequencer.cpp ****         else if (fx == 4) sprintf(strbuff, "I");
 2072              		.loc 2 138 34 is_stmt 0 view .LVU522
 2073 006e 0A4B     		ldr	r3, .L120+32
 2074              	.LVL149:
 138:src/UI/sequencer.cpp ****         else if (fx == 4) sprintf(strbuff, "I");
 2075              		.loc 2 138 34 view .LVU523
 2076 0070 1B88     		ldrh	r3, [r3]	@ unaligned
 2077 0072 0B80     		strh	r3, [r1]	@ unaligned
 2078 0074 D6E7     		b	.L107
 2079              	.L121:
 2080 0076 00BF     		.align	2
 2081              	.L120:
 2082 0078 14000000 		.word	.LC5
 2083 007c 18000000 		.word	.LC6
 2084 0080 1C000000 		.word	.LC7
 2085 0084 20000000 		.word	.LC8
 2086 0088 00000000 		.word	.LC0
 2087 008c 08000000 		.word	.LC2
 2088 0090 04000000 		.word	.LC1
 2089 0094 0C000000 		.word	.LC3
 2090 0098 10000000 		.word	.LC4
 2091              	.LBE1136:
 2092              	.LBE1139:
 2093              		.cfi_endproc
 2094              	.LFE4949:
 2096              		.section	.rodata._ZN9Sequencer13GetNoteStringEPci.str1.4,"aMS",%progbits,1
 2097              		.align	2
 2098              	.LC9:
 2099 0000 432D2564 		.ascii	"C-%d\000"
 2099      00
 2100 0005 000000   		.align	2
 2101              	.LC10:
 2102 0008 44622564 		.ascii	"Db%d\000"
 2102      00
 2103 000d 000000   		.align	2
 2104              	.LC11:
ARM GAS  /var/folders/41/s_9r3f9s4p3_9jgx7wszdkhh0000gn/T//ccURNtC3.s 			page 63


 2105 0010 442D2564 		.ascii	"D-%d\000"
 2105      00
 2106 0015 000000   		.align	2
 2107              	.LC12:
 2108 0018 45622564 		.ascii	"Eb%d\000"
 2108      00
 2109 001d 000000   		.align	2
 2110              	.LC13:
 2111 0020 452D2564 		.ascii	"E-%d\000"
 2111      00
 2112 0025 000000   		.align	2
 2113              	.LC14:
 2114 0028 462D2564 		.ascii	"F-%d\000"
 2114      00
 2115 002d 000000   		.align	2
 2116              	.LC15:
 2117 0030 47622564 		.ascii	"Gb%d\000"
 2117      00
 2118 0035 000000   		.align	2
 2119              	.LC16:
 2120 0038 472D2564 		.ascii	"G-%d\000"
 2120      00
 2121 003d 000000   		.align	2
 2122              	.LC17:
 2123 0040 41622564 		.ascii	"Ab%d\000"
 2123      00
 2124 0045 000000   		.align	2
 2125              	.LC18:
 2126 0048 412D2564 		.ascii	"A-%d\000"
 2126      00
 2127 004d 000000   		.align	2
 2128              	.LC19:
 2129 0050 42622564 		.ascii	"Bb%d\000"
 2129      00
 2130 0055 000000   		.align	2
 2131              	.LC20:
 2132 0058 422D2564 		.ascii	"B-%d\000"
 2132      00
 2133 005d 000000   		.align	2
 2134              	.LC21:
 2135 0060 4F464600 		.ascii	"OFF\000"
 2136              		.section	.text._ZN9Sequencer13GetNoteStringEPci,"ax",%progbits
 2137              		.align	1
 2138              		.p2align 2,,3
 2139              		.global	_ZN9Sequencer13GetNoteStringEPci
 2140              		.syntax unified
 2141              		.thumb
 2142              		.thumb_func
 2144              	_ZN9Sequencer13GetNoteStringEPci:
 2145              	.LVL150:
 2146              	.LFB4950:
 147:src/UI/sequencer.cpp **** void Sequencer::GetNoteString(char* strbuff, int note) {
 2147              		.loc 2 147 56 is_stmt 1 view -0
 2148              		.cfi_startproc
 2149              		@ args = 0, pretend = 0, frame = 0
 2150              		@ frame_needed = 0, uses_anonymous_args = 0
 148:src/UI/sequencer.cpp ****     int root = note % 12;
ARM GAS  /var/folders/41/s_9r3f9s4p3_9jgx7wszdkhh0000gn/T//ccURNtC3.s 			page 64


 2151              		.loc 2 148 5 view .LVU525
 147:src/UI/sequencer.cpp **** void Sequencer::GetNoteString(char* strbuff, int note) {
 2152              		.loc 2 147 56 is_stmt 0 view .LVU526
 2153 0000 10B5     		push	{r4, lr}
 2154              		.cfi_def_cfa_offset 8
 2155              		.cfi_offset 4, -8
 2156              		.cfi_offset 14, -4
 148:src/UI/sequencer.cpp ****     int root = note % 12;
 2157              		.loc 2 148 9 view .LVU527
 2158 0002 354C     		ldr	r4, .L138
 147:src/UI/sequencer.cpp **** void Sequencer::GetNoteString(char* strbuff, int note) {
 2159              		.loc 2 147 56 view .LVU528
 2160 0004 8E46     		mov	lr, r1
 148:src/UI/sequencer.cpp ****     int root = note % 12;
 2161              		.loc 2 148 9 view .LVU529
 2162 0006 84FB023C 		smull	r3, ip, r4, r2
 2163 000a D317     		asrs	r3, r2, #31
 2164 000c C3EB6C03 		rsb	r3, r3, ip, asr #1
 2165 0010 03EB4303 		add	r3, r3, r3, lsl #1
 149:src/UI/sequencer.cpp ****     int octave = (note - root) / 12;
 2166              		.loc 2 149 24 view .LVU530
 2167 0014 4FEA830C 		lsl	ip, r3, #2
 148:src/UI/sequencer.cpp ****     int root = note % 12;
 2168              		.loc 2 148 9 view .LVU531
 2169 0018 A2EB8303 		sub	r3, r2, r3, lsl #2
 2170              	.LVL151:
 149:src/UI/sequencer.cpp ****     int octave = (note - root) / 12;
 2171              		.loc 2 149 5 is_stmt 1 view .LVU532
 149:src/UI/sequencer.cpp ****     int octave = (note - root) / 12;
 2172              		.loc 2 149 9 is_stmt 0 view .LVU533
 2173 001c 84FB0C12 		smull	r1, r2, r4, ip
 2174              	.LVL152:
 149:src/UI/sequencer.cpp ****     int octave = (note - root) / 12;
 2175              		.loc 2 149 9 view .LVU534
 2176 0020 4FEAEC7C 		asr	ip, ip, #31
 2177 0024 CCEB6202 		rsb	r2, ip, r2, asr #1
 2178              	.LVL153:
 150:src/UI/sequencer.cpp ****     switch (root) {
 2179              		.loc 2 150 5 is_stmt 1 view .LVU535
 2180 0028 0B2B     		cmp	r3, #11
 2181 002a 4FD8     		bhi	.L123
 2182 002c DFE803F0 		tbb	[pc, r3]
 2183              	.L125:
 2184 0030 0C       		.byte	(.L136-.L125)/2
 2185 0031 12       		.byte	(.L135-.L125)/2
 2186 0032 18       		.byte	(.L134-.L125)/2
 2187 0033 1E       		.byte	(.L133-.L125)/2
 2188 0034 24       		.byte	(.L132-.L125)/2
 2189 0035 2A       		.byte	(.L131-.L125)/2
 2190 0036 30       		.byte	(.L130-.L125)/2
 2191 0037 36       		.byte	(.L129-.L125)/2
 2192 0038 3C       		.byte	(.L128-.L125)/2
 2193 0039 42       		.byte	(.L127-.L125)/2
 2194 003a 48       		.byte	(.L126-.L125)/2
 2195 003b 06       		.byte	(.L124-.L125)/2
 2196              		.p2align 1
 2197              	.L124:
ARM GAS  /var/folders/41/s_9r3f9s4p3_9jgx7wszdkhh0000gn/T//ccURNtC3.s 			page 65


 162:src/UI/sequencer.cpp ****         case 11: sprintf(strbuff, "B-%d", octave); break;
 2198              		.loc 2 162 9 view .LVU536
 162:src/UI/sequencer.cpp ****         case 11: sprintf(strbuff, "B-%d", octave); break;
 2199              		.loc 2 162 18 view .LVU537
 162:src/UI/sequencer.cpp ****         case 11: sprintf(strbuff, "B-%d", octave); break;
 2200              		.loc 2 162 25 is_stmt 0 view .LVU538
 2201 003c 7046     		mov	r0, lr
 2202              	.LVL154:
 162:src/UI/sequencer.cpp ****         case 11: sprintf(strbuff, "B-%d", octave); break;
 2203              		.loc 2 162 25 view .LVU539
 2204 003e 2749     		ldr	r1, .L138+4
 165:src/UI/sequencer.cpp **** }
 2205              		.loc 2 165 1 view .LVU540
 2206 0040 BDE81040 		pop	{r4, lr}
 2207              		.cfi_remember_state
 2208              		.cfi_restore 14
 2209              		.cfi_restore 4
 2210              		.cfi_def_cfa_offset 0
 2211              	.LVL155:
 162:src/UI/sequencer.cpp ****         case 11: sprintf(strbuff, "B-%d", octave); break;
 2212              		.loc 2 162 25 view .LVU541
 2213 0044 FFF7FEBF 		b	sprintf
 2214              	.LVL156:
 2215              	.L136:
 2216              		.cfi_restore_state
 151:src/UI/sequencer.cpp ****         case 0: sprintf(strbuff, "C-%d", octave); break;
 2217              		.loc 2 151 9 is_stmt 1 view .LVU542
 151:src/UI/sequencer.cpp ****         case 0: sprintf(strbuff, "C-%d", octave); break;
 2218              		.loc 2 151 17 view .LVU543
 151:src/UI/sequencer.cpp ****         case 0: sprintf(strbuff, "C-%d", octave); break;
 2219              		.loc 2 151 24 is_stmt 0 view .LVU544
 2220 0048 7046     		mov	r0, lr
 2221              	.LVL157:
 151:src/UI/sequencer.cpp ****         case 0: sprintf(strbuff, "C-%d", octave); break;
 2222              		.loc 2 151 24 view .LVU545
 2223 004a 2549     		ldr	r1, .L138+8
 165:src/UI/sequencer.cpp **** }
 2224              		.loc 2 165 1 view .LVU546
 2225 004c BDE81040 		pop	{r4, lr}
 2226              		.cfi_remember_state
 2227              		.cfi_restore 14
 2228              		.cfi_restore 4
 2229              		.cfi_def_cfa_offset 0
 2230              	.LVL158:
 151:src/UI/sequencer.cpp ****         case 0: sprintf(strbuff, "C-%d", octave); break;
 2231              		.loc 2 151 24 view .LVU547
 2232 0050 FFF7FEBF 		b	sprintf
 2233              	.LVL159:
 2234              	.L135:
 2235              		.cfi_restore_state
 152:src/UI/sequencer.cpp ****         case 1: sprintf(strbuff, "Db%d", octave); break;
 2236              		.loc 2 152 9 is_stmt 1 view .LVU548
 152:src/UI/sequencer.cpp ****         case 1: sprintf(strbuff, "Db%d", octave); break;
 2237              		.loc 2 152 17 view .LVU549
 152:src/UI/sequencer.cpp ****         case 1: sprintf(strbuff, "Db%d", octave); break;
 2238              		.loc 2 152 24 is_stmt 0 view .LVU550
 2239 0054 7046     		mov	r0, lr
ARM GAS  /var/folders/41/s_9r3f9s4p3_9jgx7wszdkhh0000gn/T//ccURNtC3.s 			page 66


 2240              	.LVL160:
 152:src/UI/sequencer.cpp ****         case 1: sprintf(strbuff, "Db%d", octave); break;
 2241              		.loc 2 152 24 view .LVU551
 2242 0056 2349     		ldr	r1, .L138+12
 165:src/UI/sequencer.cpp **** }
 2243              		.loc 2 165 1 view .LVU552
 2244 0058 BDE81040 		pop	{r4, lr}
 2245              		.cfi_remember_state
 2246              		.cfi_restore 14
 2247              		.cfi_restore 4
 2248              		.cfi_def_cfa_offset 0
 2249              	.LVL161:
 152:src/UI/sequencer.cpp ****         case 1: sprintf(strbuff, "Db%d", octave); break;
 2250              		.loc 2 152 24 view .LVU553
 2251 005c FFF7FEBF 		b	sprintf
 2252              	.LVL162:
 2253              	.L134:
 2254              		.cfi_restore_state
 153:src/UI/sequencer.cpp ****         case 2: sprintf(strbuff, "D-%d", octave); break;
 2255              		.loc 2 153 9 is_stmt 1 view .LVU554
 153:src/UI/sequencer.cpp ****         case 2: sprintf(strbuff, "D-%d", octave); break;
 2256              		.loc 2 153 17 view .LVU555
 153:src/UI/sequencer.cpp ****         case 2: sprintf(strbuff, "D-%d", octave); break;
 2257              		.loc 2 153 24 is_stmt 0 view .LVU556
 2258 0060 7046     		mov	r0, lr
 2259              	.LVL163:
 153:src/UI/sequencer.cpp ****         case 2: sprintf(strbuff, "D-%d", octave); break;
 2260              		.loc 2 153 24 view .LVU557
 2261 0062 2149     		ldr	r1, .L138+16
 165:src/UI/sequencer.cpp **** }
 2262              		.loc 2 165 1 view .LVU558
 2263 0064 BDE81040 		pop	{r4, lr}
 2264              		.cfi_remember_state
 2265              		.cfi_restore 14
 2266              		.cfi_restore 4
 2267              		.cfi_def_cfa_offset 0
 2268              	.LVL164:
 153:src/UI/sequencer.cpp ****         case 2: sprintf(strbuff, "D-%d", octave); break;
 2269              		.loc 2 153 24 view .LVU559
 2270 0068 FFF7FEBF 		b	sprintf
 2271              	.LVL165:
 2272              	.L133:
 2273              		.cfi_restore_state
 154:src/UI/sequencer.cpp ****         case 3: sprintf(strbuff, "Eb%d", octave); break;
 2274              		.loc 2 154 9 is_stmt 1 view .LVU560
 154:src/UI/sequencer.cpp ****         case 3: sprintf(strbuff, "Eb%d", octave); break;
 2275              		.loc 2 154 17 view .LVU561
 154:src/UI/sequencer.cpp ****         case 3: sprintf(strbuff, "Eb%d", octave); break;
 2276              		.loc 2 154 24 is_stmt 0 view .LVU562
 2277 006c 7046     		mov	r0, lr
 2278              	.LVL166:
 154:src/UI/sequencer.cpp ****         case 3: sprintf(strbuff, "Eb%d", octave); break;
 2279              		.loc 2 154 24 view .LVU563
 2280 006e 1F49     		ldr	r1, .L138+20
 165:src/UI/sequencer.cpp **** }
 2281              		.loc 2 165 1 view .LVU564
 2282 0070 BDE81040 		pop	{r4, lr}
ARM GAS  /var/folders/41/s_9r3f9s4p3_9jgx7wszdkhh0000gn/T//ccURNtC3.s 			page 67


 2283              		.cfi_remember_state
 2284              		.cfi_restore 14
 2285              		.cfi_restore 4
 2286              		.cfi_def_cfa_offset 0
 2287              	.LVL167:
 154:src/UI/sequencer.cpp ****         case 3: sprintf(strbuff, "Eb%d", octave); break;
 2288              		.loc 2 154 24 view .LVU565
 2289 0074 FFF7FEBF 		b	sprintf
 2290              	.LVL168:
 2291              	.L132:
 2292              		.cfi_restore_state
 155:src/UI/sequencer.cpp ****         case 4: sprintf(strbuff, "E-%d", octave); break;
 2293              		.loc 2 155 9 is_stmt 1 view .LVU566
 155:src/UI/sequencer.cpp ****         case 4: sprintf(strbuff, "E-%d", octave); break;
 2294              		.loc 2 155 17 view .LVU567
 155:src/UI/sequencer.cpp ****         case 4: sprintf(strbuff, "E-%d", octave); break;
 2295              		.loc 2 155 24 is_stmt 0 view .LVU568
 2296 0078 7046     		mov	r0, lr
 2297              	.LVL169:
 155:src/UI/sequencer.cpp ****         case 4: sprintf(strbuff, "E-%d", octave); break;
 2298              		.loc 2 155 24 view .LVU569
 2299 007a 1D49     		ldr	r1, .L138+24
 165:src/UI/sequencer.cpp **** }
 2300              		.loc 2 165 1 view .LVU570
 2301 007c BDE81040 		pop	{r4, lr}
 2302              		.cfi_remember_state
 2303              		.cfi_restore 14
 2304              		.cfi_restore 4
 2305              		.cfi_def_cfa_offset 0
 2306              	.LVL170:
 155:src/UI/sequencer.cpp ****         case 4: sprintf(strbuff, "E-%d", octave); break;
 2307              		.loc 2 155 24 view .LVU571
 2308 0080 FFF7FEBF 		b	sprintf
 2309              	.LVL171:
 2310              	.L131:
 2311              		.cfi_restore_state
 156:src/UI/sequencer.cpp ****         case 5: sprintf(strbuff, "F-%d", octave); break;
 2312              		.loc 2 156 9 is_stmt 1 view .LVU572
 156:src/UI/sequencer.cpp ****         case 5: sprintf(strbuff, "F-%d", octave); break;
 2313              		.loc 2 156 17 view .LVU573
 156:src/UI/sequencer.cpp ****         case 5: sprintf(strbuff, "F-%d", octave); break;
 2314              		.loc 2 156 24 is_stmt 0 view .LVU574
 2315 0084 7046     		mov	r0, lr
 2316              	.LVL172:
 156:src/UI/sequencer.cpp ****         case 5: sprintf(strbuff, "F-%d", octave); break;
 2317              		.loc 2 156 24 view .LVU575
 2318 0086 1B49     		ldr	r1, .L138+28
 165:src/UI/sequencer.cpp **** }
 2319              		.loc 2 165 1 view .LVU576
 2320 0088 BDE81040 		pop	{r4, lr}
 2321              		.cfi_remember_state
 2322              		.cfi_restore 14
 2323              		.cfi_restore 4
 2324              		.cfi_def_cfa_offset 0
 2325              	.LVL173:
 156:src/UI/sequencer.cpp ****         case 5: sprintf(strbuff, "F-%d", octave); break;
 2326              		.loc 2 156 24 view .LVU577
ARM GAS  /var/folders/41/s_9r3f9s4p3_9jgx7wszdkhh0000gn/T//ccURNtC3.s 			page 68


 2327 008c FFF7FEBF 		b	sprintf
 2328              	.LVL174:
 2329              	.L130:
 2330              		.cfi_restore_state
 157:src/UI/sequencer.cpp ****         case 6: sprintf(strbuff, "Gb%d", octave); break;
 2331              		.loc 2 157 9 is_stmt 1 view .LVU578
 157:src/UI/sequencer.cpp ****         case 6: sprintf(strbuff, "Gb%d", octave); break;
 2332              		.loc 2 157 17 view .LVU579
 157:src/UI/sequencer.cpp ****         case 6: sprintf(strbuff, "Gb%d", octave); break;
 2333              		.loc 2 157 24 is_stmt 0 view .LVU580
 2334 0090 7046     		mov	r0, lr
 2335              	.LVL175:
 157:src/UI/sequencer.cpp ****         case 6: sprintf(strbuff, "Gb%d", octave); break;
 2336              		.loc 2 157 24 view .LVU581
 2337 0092 1949     		ldr	r1, .L138+32
 165:src/UI/sequencer.cpp **** }
 2338              		.loc 2 165 1 view .LVU582
 2339 0094 BDE81040 		pop	{r4, lr}
 2340              		.cfi_remember_state
 2341              		.cfi_restore 14
 2342              		.cfi_restore 4
 2343              		.cfi_def_cfa_offset 0
 2344              	.LVL176:
 157:src/UI/sequencer.cpp ****         case 6: sprintf(strbuff, "Gb%d", octave); break;
 2345              		.loc 2 157 24 view .LVU583
 2346 0098 FFF7FEBF 		b	sprintf
 2347              	.LVL177:
 2348              	.L129:
 2349              		.cfi_restore_state
 158:src/UI/sequencer.cpp ****         case 7: sprintf(strbuff, "G-%d", octave); break;
 2350              		.loc 2 158 9 is_stmt 1 view .LVU584
 158:src/UI/sequencer.cpp ****         case 7: sprintf(strbuff, "G-%d", octave); break;
 2351              		.loc 2 158 17 view .LVU585
 158:src/UI/sequencer.cpp ****         case 7: sprintf(strbuff, "G-%d", octave); break;
 2352              		.loc 2 158 24 is_stmt 0 view .LVU586
 2353 009c 7046     		mov	r0, lr
 2354              	.LVL178:
 158:src/UI/sequencer.cpp ****         case 7: sprintf(strbuff, "G-%d", octave); break;
 2355              		.loc 2 158 24 view .LVU587
 2356 009e 1749     		ldr	r1, .L138+36
 165:src/UI/sequencer.cpp **** }
 2357              		.loc 2 165 1 view .LVU588
 2358 00a0 BDE81040 		pop	{r4, lr}
 2359              		.cfi_remember_state
 2360              		.cfi_restore 14
 2361              		.cfi_restore 4
 2362              		.cfi_def_cfa_offset 0
 2363              	.LVL179:
 158:src/UI/sequencer.cpp ****         case 7: sprintf(strbuff, "G-%d", octave); break;
 2364              		.loc 2 158 24 view .LVU589
 2365 00a4 FFF7FEBF 		b	sprintf
 2366              	.LVL180:
 2367              	.L128:
 2368              		.cfi_restore_state
 159:src/UI/sequencer.cpp ****         case 8: sprintf(strbuff, "Ab%d", octave); break;
 2369              		.loc 2 159 9 is_stmt 1 view .LVU590
 159:src/UI/sequencer.cpp ****         case 8: sprintf(strbuff, "Ab%d", octave); break;
ARM GAS  /var/folders/41/s_9r3f9s4p3_9jgx7wszdkhh0000gn/T//ccURNtC3.s 			page 69


 2370              		.loc 2 159 17 view .LVU591
 159:src/UI/sequencer.cpp ****         case 8: sprintf(strbuff, "Ab%d", octave); break;
 2371              		.loc 2 159 24 is_stmt 0 view .LVU592
 2372 00a8 7046     		mov	r0, lr
 2373              	.LVL181:
 159:src/UI/sequencer.cpp ****         case 8: sprintf(strbuff, "Ab%d", octave); break;
 2374              		.loc 2 159 24 view .LVU593
 2375 00aa 1549     		ldr	r1, .L138+40
 165:src/UI/sequencer.cpp **** }
 2376              		.loc 2 165 1 view .LVU594
 2377 00ac BDE81040 		pop	{r4, lr}
 2378              		.cfi_remember_state
 2379              		.cfi_restore 14
 2380              		.cfi_restore 4
 2381              		.cfi_def_cfa_offset 0
 2382              	.LVL182:
 159:src/UI/sequencer.cpp ****         case 8: sprintf(strbuff, "Ab%d", octave); break;
 2383              		.loc 2 159 24 view .LVU595
 2384 00b0 FFF7FEBF 		b	sprintf
 2385              	.LVL183:
 2386              	.L127:
 2387              		.cfi_restore_state
 160:src/UI/sequencer.cpp ****         case 9: sprintf(strbuff, "A-%d", octave); break;
 2388              		.loc 2 160 9 is_stmt 1 view .LVU596
 160:src/UI/sequencer.cpp ****         case 9: sprintf(strbuff, "A-%d", octave); break;
 2389              		.loc 2 160 17 view .LVU597
 160:src/UI/sequencer.cpp ****         case 9: sprintf(strbuff, "A-%d", octave); break;
 2390              		.loc 2 160 24 is_stmt 0 view .LVU598
 2391 00b4 7046     		mov	r0, lr
 2392              	.LVL184:
 160:src/UI/sequencer.cpp ****         case 9: sprintf(strbuff, "A-%d", octave); break;
 2393              		.loc 2 160 24 view .LVU599
 2394 00b6 1349     		ldr	r1, .L138+44
 165:src/UI/sequencer.cpp **** }
 2395              		.loc 2 165 1 view .LVU600
 2396 00b8 BDE81040 		pop	{r4, lr}
 2397              		.cfi_remember_state
 2398              		.cfi_restore 14
 2399              		.cfi_restore 4
 2400              		.cfi_def_cfa_offset 0
 2401              	.LVL185:
 160:src/UI/sequencer.cpp ****         case 9: sprintf(strbuff, "A-%d", octave); break;
 2402              		.loc 2 160 24 view .LVU601
 2403 00bc FFF7FEBF 		b	sprintf
 2404              	.LVL186:
 2405              	.L126:
 2406              		.cfi_restore_state
 161:src/UI/sequencer.cpp ****         case 10: sprintf(strbuff, "Bb%d", octave); break;
 2407              		.loc 2 161 9 is_stmt 1 view .LVU602
 161:src/UI/sequencer.cpp ****         case 10: sprintf(strbuff, "Bb%d", octave); break;
 2408              		.loc 2 161 18 view .LVU603
 161:src/UI/sequencer.cpp ****         case 10: sprintf(strbuff, "Bb%d", octave); break;
 2409              		.loc 2 161 25 is_stmt 0 view .LVU604
 2410 00c0 7046     		mov	r0, lr
 2411              	.LVL187:
 161:src/UI/sequencer.cpp ****         case 10: sprintf(strbuff, "Bb%d", octave); break;
 2412              		.loc 2 161 25 view .LVU605
ARM GAS  /var/folders/41/s_9r3f9s4p3_9jgx7wszdkhh0000gn/T//ccURNtC3.s 			page 70


 2413 00c2 1149     		ldr	r1, .L138+48
 165:src/UI/sequencer.cpp **** }
 2414              		.loc 2 165 1 view .LVU606
 2415 00c4 BDE81040 		pop	{r4, lr}
 2416              		.cfi_remember_state
 2417              		.cfi_restore 14
 2418              		.cfi_restore 4
 2419              		.cfi_def_cfa_offset 0
 2420              	.LVL188:
 161:src/UI/sequencer.cpp ****         case 10: sprintf(strbuff, "Bb%d", octave); break;
 2421              		.loc 2 161 25 view .LVU607
 2422 00c8 FFF7FEBF 		b	sprintf
 2423              	.LVL189:
 2424              	.L123:
 2425              		.cfi_restore_state
 163:src/UI/sequencer.cpp ****         default: sprintf(strbuff, "OFF"); break;
 2426              		.loc 2 163 9 is_stmt 1 view .LVU608
 163:src/UI/sequencer.cpp ****         default: sprintf(strbuff, "OFF"); break;
 2427              		.loc 2 163 18 view .LVU609
 163:src/UI/sequencer.cpp ****         default: sprintf(strbuff, "OFF"); break;
 2428              		.loc 2 163 25 is_stmt 0 view .LVU610
 2429 00cc 0F4B     		ldr	r3, .L138+52
 2430              	.LVL190:
 163:src/UI/sequencer.cpp ****         default: sprintf(strbuff, "OFF"); break;
 2431              		.loc 2 163 25 view .LVU611
 2432 00ce 1868     		ldr	r0, [r3]
 2433              	.LVL191:
 163:src/UI/sequencer.cpp ****         default: sprintf(strbuff, "OFF"); break;
 2434              		.loc 2 163 25 view .LVU612
 2435 00d0 CEF80000 		str	r0, [lr]	@ unaligned
 163:src/UI/sequencer.cpp ****         default: sprintf(strbuff, "OFF"); break;
 2436              		.loc 2 163 43 is_stmt 1 view .LVU613
 165:src/UI/sequencer.cpp **** }
 2437              		.loc 2 165 1 is_stmt 0 view .LVU614
 2438 00d4 10BD     		pop	{r4, pc}
 2439              	.LVL192:
 2440              	.L139:
 165:src/UI/sequencer.cpp **** }
 2441              		.loc 2 165 1 view .LVU615
 2442 00d6 00BF     		.align	2
 2443              	.L138:
 2444 00d8 ABAAAA2A 		.word	715827883
 2445 00dc 58000000 		.word	.LC20
 2446 00e0 00000000 		.word	.LC9
 2447 00e4 08000000 		.word	.LC10
 2448 00e8 10000000 		.word	.LC11
 2449 00ec 18000000 		.word	.LC12
 2450 00f0 20000000 		.word	.LC13
 2451 00f4 28000000 		.word	.LC14
 2452 00f8 30000000 		.word	.LC15
 2453 00fc 38000000 		.word	.LC16
 2454 0100 40000000 		.word	.LC17
 2455 0104 48000000 		.word	.LC18
 2456 0108 50000000 		.word	.LC19
 2457 010c 60000000 		.word	.LC21
 2458              		.cfi_endproc
 2459              	.LFE4950:
ARM GAS  /var/folders/41/s_9r3f9s4p3_9jgx7wszdkhh0000gn/T//ccURNtC3.s 			page 71


 2461              		.section	.rodata._ZN9Sequencer8DrawStepEiiP4Step.str1.4,"aMS",%progbits,1
 2462              		.align	2
 2463              	.LC22:
 2464 0000 2D2D00   		.ascii	"--\000"
 2465 0003 00       		.align	2
 2466              	.LC23:
 2467 0004 30256400 		.ascii	"0%d\000"
 2468              		.section	.text._ZN9Sequencer8DrawStepEiiP4Step,"ax",%progbits
 2469              		.align	1
 2470              		.p2align 2,,3
 2471              		.global	_ZN9Sequencer8DrawStepEiiP4Step
 2472              		.syntax unified
 2473              		.thumb
 2474              		.thumb_func
 2476              	_ZN9Sequencer8DrawStepEiiP4Step:
 2477              	.LVL193:
 2478              	.LFB4946:
  31:src/UI/sequencer.cpp **** void Sequencer::DrawStep(int x, int y, Step* step) {
 2479              		.loc 2 31 52 is_stmt 1 view -0
 2480              		.cfi_startproc
 2481              		@ args = 0, pretend = 0, frame = 16
 2482              		@ frame_needed = 0, uses_anonymous_args = 0
  33:src/UI/sequencer.cpp ****     display_->SetCursor(x + 2, y + 2);
 2483              		.loc 2 33 5 view .LVU617
  31:src/UI/sequencer.cpp **** void Sequencer::DrawStep(int x, int y, Step* step) {
 2484              		.loc 2 31 52 is_stmt 0 view .LVU618
 2485 0000 2DE9F04F 		push	{r4, r5, r6, r7, r8, r9, r10, fp, lr}
 2486              		.cfi_def_cfa_offset 36
 2487              		.cfi_offset 4, -36
 2488              		.cfi_offset 5, -32
 2489              		.cfi_offset 6, -28
 2490              		.cfi_offset 7, -24
 2491              		.cfi_offset 8, -20
 2492              		.cfi_offset 9, -16
 2493              		.cfi_offset 10, -12
 2494              		.cfi_offset 11, -8
 2495              		.cfi_offset 14, -4
 2496 0004 1546     		mov	r5, r2
  33:src/UI/sequencer.cpp ****     display_->SetCursor(x + 2, y + 2);
 2497              		.loc 2 33 24 view .LVU619
 2498 0006 8AB2     		uxth	r2, r1
 2499              	.LVL194:
  33:src/UI/sequencer.cpp ****     display_->SetCursor(x + 2, y + 2);
 2500              		.loc 2 33 5 view .LVU620
 2501 0008 4668     		ldr	r6, [r0, #4]
  31:src/UI/sequencer.cpp **** void Sequencer::DrawStep(int x, int y, Step* step) {
 2502              		.loc 2 31 52 view .LVU621
 2503 000a 87B0     		sub	sp, sp, #28
 2504              		.cfi_def_cfa_offset 64
  33:src/UI/sequencer.cpp ****     display_->SetCursor(x + 2, y + 2);
 2505              		.loc 2 33 24 view .LVU622
 2506 000c 02F10209 		add	r9, r2, #2
  31:src/UI/sequencer.cpp **** void Sequencer::DrawStep(int x, int y, Step* step) {
 2507              		.loc 2 31 52 view .LVU623
 2508 0010 9846     		mov	r8, r3
 2509              	.LBB1258:
 2510              	.LBB1259:
ARM GAS  /var/folders/41/s_9r3f9s4p3_9jgx7wszdkhh0000gn/T//ccURNtC3.s 			page 72


 2511              		.file 5 "../DaisyExamples/libDaisy//src/hid/disp/display.h"
   1:../DaisyExamples/libDaisy//src/hid/disp/display.h **** #pragma once
   2:../DaisyExamples/libDaisy//src/hid/disp/display.h **** #ifndef DSY_DISPLAY_H
   3:../DaisyExamples/libDaisy//src/hid/disp/display.h **** #define DSY_DISPLAY_H /**< Macro */
   4:../DaisyExamples/libDaisy//src/hid/disp/display.h **** #include <cmath>
   5:../DaisyExamples/libDaisy//src/hid/disp/display.h **** #include "util/oled_fonts.h"
   6:../DaisyExamples/libDaisy//src/hid/disp/display.h **** #include "daisy_core.h"
   7:../DaisyExamples/libDaisy//src/hid/disp/display.h **** #include "graphics_common.h"
   8:../DaisyExamples/libDaisy//src/hid/disp/display.h **** 
   9:../DaisyExamples/libDaisy//src/hid/disp/display.h **** #ifndef deg2rad
  10:../DaisyExamples/libDaisy//src/hid/disp/display.h **** #define deg2rad(deg) ((deg)*3.141592 / 180.0)
  11:../DaisyExamples/libDaisy//src/hid/disp/display.h **** #endif
  12:../DaisyExamples/libDaisy//src/hid/disp/display.h **** 
  13:../DaisyExamples/libDaisy//src/hid/disp/display.h **** namespace daisy
  14:../DaisyExamples/libDaisy//src/hid/disp/display.h **** {
  15:../DaisyExamples/libDaisy//src/hid/disp/display.h **** /** 
  16:../DaisyExamples/libDaisy//src/hid/disp/display.h ****  * This interface is used as a base class for all types of 1bit-per-pixel
  17:../DaisyExamples/libDaisy//src/hid/disp/display.h ****  * graphics displays.
  18:../DaisyExamples/libDaisy//src/hid/disp/display.h **** */
  19:../DaisyExamples/libDaisy//src/hid/disp/display.h **** class OneBitGraphicsDisplay
  20:../DaisyExamples/libDaisy//src/hid/disp/display.h **** {
  21:../DaisyExamples/libDaisy//src/hid/disp/display.h ****   public:
  22:../DaisyExamples/libDaisy//src/hid/disp/display.h ****     OneBitGraphicsDisplay() {}
  23:../DaisyExamples/libDaisy//src/hid/disp/display.h ****     virtual ~OneBitGraphicsDisplay() {}
  24:../DaisyExamples/libDaisy//src/hid/disp/display.h **** 
  25:../DaisyExamples/libDaisy//src/hid/disp/display.h ****     virtual uint16_t Height() const = 0;
  26:../DaisyExamples/libDaisy//src/hid/disp/display.h ****     virtual uint16_t Width() const  = 0;
  27:../DaisyExamples/libDaisy//src/hid/disp/display.h **** 
  28:../DaisyExamples/libDaisy//src/hid/disp/display.h ****     Rectangle GetBounds() const
  29:../DaisyExamples/libDaisy//src/hid/disp/display.h ****     {
  30:../DaisyExamples/libDaisy//src/hid/disp/display.h ****         return Rectangle(int16_t(Width()), int16_t(Height()));
  31:../DaisyExamples/libDaisy//src/hid/disp/display.h ****     }
  32:../DaisyExamples/libDaisy//src/hid/disp/display.h **** 
  33:../DaisyExamples/libDaisy//src/hid/disp/display.h **** 
  34:../DaisyExamples/libDaisy//src/hid/disp/display.h ****     size_t CurrentX() { return currentX_; };
  35:../DaisyExamples/libDaisy//src/hid/disp/display.h ****     size_t CurrentY() { return currentY_; };
  36:../DaisyExamples/libDaisy//src/hid/disp/display.h **** 
  37:../DaisyExamples/libDaisy//src/hid/disp/display.h ****     /** 
  38:../DaisyExamples/libDaisy//src/hid/disp/display.h ****     Fills the entire display with either on/off.
  39:../DaisyExamples/libDaisy//src/hid/disp/display.h ****     \param on Sets on or off.
  40:../DaisyExamples/libDaisy//src/hid/disp/display.h ****     */
  41:../DaisyExamples/libDaisy//src/hid/disp/display.h ****     virtual void Fill(bool on) = 0;
  42:../DaisyExamples/libDaisy//src/hid/disp/display.h **** 
  43:../DaisyExamples/libDaisy//src/hid/disp/display.h ****     /**
  44:../DaisyExamples/libDaisy//src/hid/disp/display.h ****     Sets the pixel at the specified coordinate to be on/off.
  45:../DaisyExamples/libDaisy//src/hid/disp/display.h ****     \param x   x Coordinate
  46:../DaisyExamples/libDaisy//src/hid/disp/display.h ****     \param y   y coordinate
  47:../DaisyExamples/libDaisy//src/hid/disp/display.h ****     \param on  on or off
  48:../DaisyExamples/libDaisy//src/hid/disp/display.h ****     */
  49:../DaisyExamples/libDaisy//src/hid/disp/display.h ****     virtual void DrawPixel(uint_fast8_t x, uint_fast8_t y, bool on) = 0;
  50:../DaisyExamples/libDaisy//src/hid/disp/display.h **** 
  51:../DaisyExamples/libDaisy//src/hid/disp/display.h ****     /**
  52:../DaisyExamples/libDaisy//src/hid/disp/display.h ****     Draws a line from (x1, y1) to (y1, y2)
  53:../DaisyExamples/libDaisy//src/hid/disp/display.h ****     \param x1  x Coordinate of the starting point
  54:../DaisyExamples/libDaisy//src/hid/disp/display.h ****     \param y1  y Coordinate of the starting point
  55:../DaisyExamples/libDaisy//src/hid/disp/display.h ****     \param x2  x Coordinate of the ending point
  56:../DaisyExamples/libDaisy//src/hid/disp/display.h ****     \param y2  y Coordinate of the ending point
ARM GAS  /var/folders/41/s_9r3f9s4p3_9jgx7wszdkhh0000gn/T//ccURNtC3.s 			page 73


  57:../DaisyExamples/libDaisy//src/hid/disp/display.h ****     \param on  on or off
  58:../DaisyExamples/libDaisy//src/hid/disp/display.h ****     */
  59:../DaisyExamples/libDaisy//src/hid/disp/display.h ****     virtual void DrawLine(uint_fast8_t x1,
  60:../DaisyExamples/libDaisy//src/hid/disp/display.h ****                           uint_fast8_t y1,
  61:../DaisyExamples/libDaisy//src/hid/disp/display.h ****                           uint_fast8_t x2,
  62:../DaisyExamples/libDaisy//src/hid/disp/display.h ****                           uint_fast8_t y2,
  63:../DaisyExamples/libDaisy//src/hid/disp/display.h ****                           bool         on)
  64:../DaisyExamples/libDaisy//src/hid/disp/display.h ****         = 0;
  65:../DaisyExamples/libDaisy//src/hid/disp/display.h **** 
  66:../DaisyExamples/libDaisy//src/hid/disp/display.h ****     /**
  67:../DaisyExamples/libDaisy//src/hid/disp/display.h ****     Draws a rectangle based on two coordinates.
  68:../DaisyExamples/libDaisy//src/hid/disp/display.h ****     \param x1 x Coordinate of the first point
  69:../DaisyExamples/libDaisy//src/hid/disp/display.h ****     \param y1 y Coordinate of the first point
  70:../DaisyExamples/libDaisy//src/hid/disp/display.h ****     \param x2 x Coordinate of the second point
  71:../DaisyExamples/libDaisy//src/hid/disp/display.h ****     \param y2 y Coordinate of the second point
  72:../DaisyExamples/libDaisy//src/hid/disp/display.h ****     \param on on or off
  73:../DaisyExamples/libDaisy//src/hid/disp/display.h ****     \param fill fill the rectangle or draw only the outline
  74:../DaisyExamples/libDaisy//src/hid/disp/display.h ****     */
  75:../DaisyExamples/libDaisy//src/hid/disp/display.h ****     virtual void DrawRect(uint_fast8_t x1,
  76:../DaisyExamples/libDaisy//src/hid/disp/display.h ****                           uint_fast8_t y1,
  77:../DaisyExamples/libDaisy//src/hid/disp/display.h ****                           uint_fast8_t x2,
  78:../DaisyExamples/libDaisy//src/hid/disp/display.h ****                           uint_fast8_t y2,
  79:../DaisyExamples/libDaisy//src/hid/disp/display.h ****                           bool         on,
  80:../DaisyExamples/libDaisy//src/hid/disp/display.h ****                           bool         fill = false)
  81:../DaisyExamples/libDaisy//src/hid/disp/display.h ****         = 0;
  82:../DaisyExamples/libDaisy//src/hid/disp/display.h **** 
  83:../DaisyExamples/libDaisy//src/hid/disp/display.h ****     /**
  84:../DaisyExamples/libDaisy//src/hid/disp/display.h ****     Draws a rectangle.
  85:../DaisyExamples/libDaisy//src/hid/disp/display.h ****     \param rect the rectangle
  86:../DaisyExamples/libDaisy//src/hid/disp/display.h ****     \param on   on or off
  87:../DaisyExamples/libDaisy//src/hid/disp/display.h ****     \param fill fill the rectangle or draw only the outline
  88:../DaisyExamples/libDaisy//src/hid/disp/display.h ****     */
  89:../DaisyExamples/libDaisy//src/hid/disp/display.h ****     void DrawRect(const Rectangle& rect, bool on, bool fill = false)
  90:../DaisyExamples/libDaisy//src/hid/disp/display.h ****     {
  91:../DaisyExamples/libDaisy//src/hid/disp/display.h ****         DrawRect(rect.GetX(),
  92:../DaisyExamples/libDaisy//src/hid/disp/display.h ****                  rect.GetY(),
  93:../DaisyExamples/libDaisy//src/hid/disp/display.h ****                  rect.GetRight(),
  94:../DaisyExamples/libDaisy//src/hid/disp/display.h ****                  rect.GetBottom(),
  95:../DaisyExamples/libDaisy//src/hid/disp/display.h ****                  on,
  96:../DaisyExamples/libDaisy//src/hid/disp/display.h ****                  fill);
  97:../DaisyExamples/libDaisy//src/hid/disp/display.h ****     }
  98:../DaisyExamples/libDaisy//src/hid/disp/display.h **** 
  99:../DaisyExamples/libDaisy//src/hid/disp/display.h ****     /**
 100:../DaisyExamples/libDaisy//src/hid/disp/display.h ****     Draws an arc around the specified coordinate
 101:../DaisyExamples/libDaisy//src/hid/disp/display.h ****     \param x           x Coordinate of the center of the arc
 102:../DaisyExamples/libDaisy//src/hid/disp/display.h ****     \param y           y Coordinate of the center of the arc
 103:../DaisyExamples/libDaisy//src/hid/disp/display.h ****     \param radius      radius of the arc
 104:../DaisyExamples/libDaisy//src/hid/disp/display.h ****     \param start_angle angle where to start the arc
 105:../DaisyExamples/libDaisy//src/hid/disp/display.h ****     \param sweep       total angle of the arc
 106:../DaisyExamples/libDaisy//src/hid/disp/display.h ****     \param on  on or off
 107:../DaisyExamples/libDaisy//src/hid/disp/display.h ****     */
 108:../DaisyExamples/libDaisy//src/hid/disp/display.h ****     virtual void DrawArc(uint_fast8_t x,
 109:../DaisyExamples/libDaisy//src/hid/disp/display.h ****                          uint_fast8_t y,
 110:../DaisyExamples/libDaisy//src/hid/disp/display.h ****                          uint_fast8_t radius,
 111:../DaisyExamples/libDaisy//src/hid/disp/display.h ****                          int_fast16_t start_angle,
 112:../DaisyExamples/libDaisy//src/hid/disp/display.h ****                          int_fast16_t sweep,
 113:../DaisyExamples/libDaisy//src/hid/disp/display.h ****                          bool         on)
ARM GAS  /var/folders/41/s_9r3f9s4p3_9jgx7wszdkhh0000gn/T//ccURNtC3.s 			page 74


 114:../DaisyExamples/libDaisy//src/hid/disp/display.h ****         = 0;
 115:../DaisyExamples/libDaisy//src/hid/disp/display.h **** 
 116:../DaisyExamples/libDaisy//src/hid/disp/display.h ****     /**
 117:../DaisyExamples/libDaisy//src/hid/disp/display.h ****     Draws a circle around the specified coordinate
 118:../DaisyExamples/libDaisy//src/hid/disp/display.h ****     \param x           x Coordinate of the center of the circle
 119:../DaisyExamples/libDaisy//src/hid/disp/display.h ****     \param y           y Coordinate of the center of the circle
 120:../DaisyExamples/libDaisy//src/hid/disp/display.h ****     \param radius      radius of the circle
 121:../DaisyExamples/libDaisy//src/hid/disp/display.h ****     \param on  on or off
 122:../DaisyExamples/libDaisy//src/hid/disp/display.h ****     */
 123:../DaisyExamples/libDaisy//src/hid/disp/display.h ****     void
 124:../DaisyExamples/libDaisy//src/hid/disp/display.h ****     DrawCircle(uint_fast8_t x, uint_fast8_t y, uint_fast8_t radius, bool on)
 125:../DaisyExamples/libDaisy//src/hid/disp/display.h ****     {
 126:../DaisyExamples/libDaisy//src/hid/disp/display.h ****         DrawArc(x, y, radius, 0, 360, on);
 127:../DaisyExamples/libDaisy//src/hid/disp/display.h ****     };
 128:../DaisyExamples/libDaisy//src/hid/disp/display.h **** 
 129:../DaisyExamples/libDaisy//src/hid/disp/display.h ****     /** 
 130:../DaisyExamples/libDaisy//src/hid/disp/display.h ****     Writes the character with the specific FontDef
 131:../DaisyExamples/libDaisy//src/hid/disp/display.h ****     to the display buffer at the current Cursor position.
 132:../DaisyExamples/libDaisy//src/hid/disp/display.h ****     \param ch character to be written
 133:../DaisyExamples/libDaisy//src/hid/disp/display.h ****     \param font font to be written in
 134:../DaisyExamples/libDaisy//src/hid/disp/display.h ****     \param on    on or off
 135:../DaisyExamples/libDaisy//src/hid/disp/display.h ****     \return &
 136:../DaisyExamples/libDaisy//src/hid/disp/display.h ****     */
 137:../DaisyExamples/libDaisy//src/hid/disp/display.h ****     virtual char WriteChar(char ch, FontDef font, bool on) = 0;
 138:../DaisyExamples/libDaisy//src/hid/disp/display.h **** 
 139:../DaisyExamples/libDaisy//src/hid/disp/display.h ****     /** 
 140:../DaisyExamples/libDaisy//src/hid/disp/display.h ****     Similar to WriteChar, except it will handle an entire String.
 141:../DaisyExamples/libDaisy//src/hid/disp/display.h ****     Wrapping does not happen automatically, so the width
 142:../DaisyExamples/libDaisy//src/hid/disp/display.h ****     of the string must be kept within the dimensions of the screen.
 143:../DaisyExamples/libDaisy//src/hid/disp/display.h ****     \param str string to be written
 144:../DaisyExamples/libDaisy//src/hid/disp/display.h ****     \param font font to use
 145:../DaisyExamples/libDaisy//src/hid/disp/display.h ****     \param on  on or off
 146:../DaisyExamples/libDaisy//src/hid/disp/display.h ****     \return &
 147:../DaisyExamples/libDaisy//src/hid/disp/display.h ****     */
 148:../DaisyExamples/libDaisy//src/hid/disp/display.h ****     virtual char WriteString(const char* str, FontDef font, bool on) = 0;
 149:../DaisyExamples/libDaisy//src/hid/disp/display.h **** 
 150:../DaisyExamples/libDaisy//src/hid/disp/display.h ****     /** 
 151:../DaisyExamples/libDaisy//src/hid/disp/display.h ****     Similar to WriteString but justified within a bounding box.
 152:../DaisyExamples/libDaisy//src/hid/disp/display.h ****     \param str          string to be written
 153:../DaisyExamples/libDaisy//src/hid/disp/display.h ****     \param font         font to use
 154:../DaisyExamples/libDaisy//src/hid/disp/display.h ****     \param boundingBox  the bounding box to draw the text in
 155:../DaisyExamples/libDaisy//src/hid/disp/display.h ****     \param alignment    the alignment to use
 156:../DaisyExamples/libDaisy//src/hid/disp/display.h ****     \param on           on or off
 157:../DaisyExamples/libDaisy//src/hid/disp/display.h ****     \return The rectangle that was drawn to
 158:../DaisyExamples/libDaisy//src/hid/disp/display.h ****     */
 159:../DaisyExamples/libDaisy//src/hid/disp/display.h ****     virtual Rectangle WriteStringAligned(const char*    str,
 160:../DaisyExamples/libDaisy//src/hid/disp/display.h ****                                          const FontDef& font,
 161:../DaisyExamples/libDaisy//src/hid/disp/display.h ****                                          Rectangle      boundingBox,
 162:../DaisyExamples/libDaisy//src/hid/disp/display.h ****                                          Alignment      alignment,
 163:../DaisyExamples/libDaisy//src/hid/disp/display.h ****                                          bool           on)
 164:../DaisyExamples/libDaisy//src/hid/disp/display.h ****         = 0;
 165:../DaisyExamples/libDaisy//src/hid/disp/display.h **** 
 166:../DaisyExamples/libDaisy//src/hid/disp/display.h ****     /** 
 167:../DaisyExamples/libDaisy//src/hid/disp/display.h ****     Moves the 'Cursor' position used for WriteChar, and WriteStr to the specified coordinate.
 168:../DaisyExamples/libDaisy//src/hid/disp/display.h ****     \param x x pos
 169:../DaisyExamples/libDaisy//src/hid/disp/display.h ****     \param y y pos
 170:../DaisyExamples/libDaisy//src/hid/disp/display.h ****     */
ARM GAS  /var/folders/41/s_9r3f9s4p3_9jgx7wszdkhh0000gn/T//ccURNtC3.s 			page 75


 171:../DaisyExamples/libDaisy//src/hid/disp/display.h ****     void SetCursor(uint16_t x, uint16_t y)
 172:../DaisyExamples/libDaisy//src/hid/disp/display.h ****     {
 173:../DaisyExamples/libDaisy//src/hid/disp/display.h ****         currentX_ = (x >= Width()) ? Width() - 1 : x;
 2512              		.loc 5 173 33 view .LVU624
 2513 0012 3368     		ldr	r3, [r6]
 2514              	.LVL195:
 2515              		.loc 5 173 33 view .LVU625
 2516              	.LBE1259:
 2517              	.LBE1258:
  31:src/UI/sequencer.cpp **** void Sequencer::DrawStep(int x, int y, Step* step) {
 2518              		.loc 2 31 52 view .LVU626
 2519 0014 0446     		mov	r4, r0
  33:src/UI/sequencer.cpp ****     display_->SetCursor(x + 2, y + 2);
 2520              		.loc 2 33 24 view .LVU627
 2521 0016 1FFA89F9 		uxth	r9, r9
 2522              	.LBB1264:
 2523              	.LBB1260:
 2524              		.loc 5 173 32 view .LVU628
 2525 001a 3046     		mov	r0, r6
 2526              	.LVL196:
 2527              		.loc 5 173 32 view .LVU629
 2528 001c DB68     		ldr	r3, [r3, #12]
 2529              	.LBE1260:
 2530              	.LBE1264:
  33:src/UI/sequencer.cpp ****     display_->SetCursor(x + 2, y + 2);
 2531              		.loc 2 33 24 view .LVU630
 2532 001e AF1C     		adds	r7, r5, #2
  31:src/UI/sequencer.cpp **** void Sequencer::DrawStep(int x, int y, Step* step) {
 2533              		.loc 2 31 52 view .LVU631
 2534 0020 0291     		str	r1, [sp, #8]
  33:src/UI/sequencer.cpp ****     display_->SetCursor(x + 2, y + 2);
 2535              		.loc 2 33 24 view .LVU632
 2536 0022 0392     		str	r2, [sp, #12]
 2537 0024 BFB2     		uxth	r7, r7
 2538              	.LVL197:
 2539              	.LBB1265:
 2540              	.LBI1258:
 171:../DaisyExamples/libDaisy//src/hid/disp/display.h ****     {
 2541              		.loc 5 171 10 is_stmt 1 view .LVU633
 2542              	.LBB1261:
 2543              		.loc 5 173 9 view .LVU634
 2544              		.loc 5 173 32 is_stmt 0 view .LVU635
 2545 0026 9847     		blx	r3
 2546              	.LVL198:
 2547              		.loc 5 173 19 view .LVU636
 2548 0028 8145     		cmp	r9, r0
 2549 002a 06D3     		bcc	.L141
 2550              		.loc 5 173 44 view .LVU637
 2551 002c 3368     		ldr	r3, [r6]
 2552              		.loc 5 173 43 view .LVU638
 2553 002e 3046     		mov	r0, r6
 2554 0030 DB68     		ldr	r3, [r3, #12]
 2555 0032 9847     		blx	r3
 2556              	.LVL199:
 2557              		.loc 5 173 19 view .LVU639
 2558 0034 0138     		subs	r0, r0, #1
 2559 0036 1FFA80F9 		uxth	r9, r0
ARM GAS  /var/folders/41/s_9r3f9s4p3_9jgx7wszdkhh0000gn/T//ccURNtC3.s 			page 76


 2560              	.LVL200:
 2561              	.L141:
 174:../DaisyExamples/libDaisy//src/hid/disp/display.h ****         currentY_ = (y >= Height()) ? Height() - 1 : y;
 2562              		.loc 5 174 34 view .LVU640
 2563 003a 3368     		ldr	r3, [r6]
 2564              		.loc 5 174 33 view .LVU641
 2565 003c 3046     		mov	r0, r6
 173:../DaisyExamples/libDaisy//src/hid/disp/display.h ****         currentY_ = (y >= Height()) ? Height() - 1 : y;
 2566              		.loc 5 173 19 view .LVU642
 2567 003e A6F80490 		strh	r9, [r6, #4]	@ movhi
 2568              		.loc 5 174 9 is_stmt 1 view .LVU643
 2569              		.loc 5 174 33 is_stmt 0 view .LVU644
 2570 0042 9B68     		ldr	r3, [r3, #8]
 2571 0044 9847     		blx	r3
 2572              	.LVL201:
 2573              		.loc 5 174 19 view .LVU645
 2574 0046 8742     		cmp	r7, r0
 2575 0048 C0F09982 		bcc	.L198
 2576              		.loc 5 174 46 view .LVU646
 2577 004c 3368     		ldr	r3, [r6]
 2578              		.loc 5 174 45 view .LVU647
 2579 004e 3046     		mov	r0, r6
 2580 0050 9B68     		ldr	r3, [r3, #8]
 2581 0052 9847     		blx	r3
 2582              	.LVL202:
 2583              		.loc 5 174 19 view .LVU648
 2584 0054 0138     		subs	r0, r0, #1
 2585 0056 80B2     		uxth	r0, r0
 2586              	.L142:
 2587              	.LBE1261:
 2588              	.LBE1265:
  34:src/UI/sequencer.cpp ****     if (step->instrument < 0 || step->note < 0) sprintf(strbuff, "--");
 2589              		.loc 2 34 15 view .LVU649
 2590 0058 D8F80020 		ldr	r2, [r8]
 2591              	.LBB1266:
 2592              	.LBB1262:
 2593              		.loc 5 174 19 view .LVU650
 2594 005c F080     		strh	r0, [r6, #6]	@ movhi
 2595              	.LVL203:
 2596              		.loc 5 174 19 view .LVU651
 2597              	.LBE1262:
 2598              	.LBE1266:
  34:src/UI/sequencer.cpp ****     if (step->instrument < 0 || step->note < 0) sprintf(strbuff, "--");
 2599              		.loc 2 34 5 is_stmt 1 view .LVU652
 2600 005e 002A     		cmp	r2, #0
 2601 0060 12DB     		blt	.L143
  34:src/UI/sequencer.cpp ****     if (step->instrument < 0 || step->note < 0) sprintf(strbuff, "--");
 2602              		.loc 2 34 30 is_stmt 0 discriminator 2 view .LVU653
 2603 0062 D8F80430 		ldr	r3, [r8, #4]
 2604 0066 002B     		cmp	r3, #0
 2605 0068 0EDB     		blt	.L143
  35:src/UI/sequencer.cpp ****     else if (step->instrument < 10) sprintf(strbuff, "0%d", step->instrument);
 2606              		.loc 2 35 10 is_stmt 1 view .LVU654
 2607 006a 092A     		cmp	r2, #9
  35:src/UI/sequencer.cpp ****     else if (step->instrument < 10) sprintf(strbuff, "0%d", step->instrument);
 2608              		.loc 2 35 37 view .LVU655
  35:src/UI/sequencer.cpp ****     else if (step->instrument < 10) sprintf(strbuff, "0%d", step->instrument);
ARM GAS  /var/folders/41/s_9r3f9s4p3_9jgx7wszdkhh0000gn/T//ccURNtC3.s 			page 77


 2609              		.loc 2 35 45 is_stmt 0 view .LVU656
 2610 006c 04F1400A 		add	r10, r4, #64
  35:src/UI/sequencer.cpp ****     else if (step->instrument < 10) sprintf(strbuff, "0%d", step->instrument);
 2611              		.loc 2 35 44 view .LVU657
 2612 0070 D8BF     		it	le
 2613 0072 0349     		ldrle	r1, .L220
  36:src/UI/sequencer.cpp ****     else sprintf(strbuff, "%d", step->instrument);
 2614              		.loc 2 36 10 is_stmt 1 view .LVU658
  36:src/UI/sequencer.cpp ****     else sprintf(strbuff, "%d", step->instrument);
 2615              		.loc 2 36 17 is_stmt 0 view .LVU659
 2616 0074 5046     		mov	r0, r10
 2617 0076 C8BF     		it	gt
 2618 0078 0249     		ldrgt	r1, .L220+4
 2619 007a FFF7FEFF 		bl	sprintf
 2620              	.LVL204:
 2621 007e 0CE0     		b	.L145
 2622              	.L221:
 2623              		.align	2
 2624              	.L220:
 2625 0080 04000000 		.word	.LC23
 2626 0084 20000000 		.word	.LC8
 2627              	.L143:
  34:src/UI/sequencer.cpp ****     if (step->instrument < 0 || step->note < 0) sprintf(strbuff, "--");
 2628              		.loc 2 34 49 is_stmt 1 discriminator 3 view .LVU660
  34:src/UI/sequencer.cpp ****     if (step->instrument < 0 || step->note < 0) sprintf(strbuff, "--");
 2629              		.loc 2 34 56 is_stmt 0 discriminator 3 view .LVU661
 2630 0088 B14B     		ldr	r3, .L222
  34:src/UI/sequencer.cpp ****     if (step->instrument < 0 || step->note < 0) sprintf(strbuff, "--");
 2631              		.loc 2 34 57 discriminator 3 view .LVU662
 2632 008a 04F1400A 		add	r10, r4, #64
  34:src/UI/sequencer.cpp ****     if (step->instrument < 0 || step->note < 0) sprintf(strbuff, "--");
 2633              		.loc 2 34 56 discriminator 3 view .LVU663
 2634 008e 1A88     		ldrh	r2, [r3]	@ unaligned
 2635 0090 9B78     		ldrb	r3, [r3, #2]	@ zero_extendqisi2
 2636 0092 A4F84020 		strh	r2, [r4, #64]	@ unaligned
 2637 0096 8AF80230 		strb	r3, [r10, #2]
 2638              	.L145:
  37:src/UI/sequencer.cpp ****     display_->WriteString(strbuff, Font_4x6, true);
 2639              		.loc 2 37 5 is_stmt 1 view .LVU664
 2640 009a 6068     		ldr	r0, [r4, #4]
  37:src/UI/sequencer.cpp ****     display_->WriteString(strbuff, Font_4x6, true);
 2641              		.loc 2 37 26 is_stmt 0 view .LVU665
 2642 009c 0122     		movs	r2, #1
 2643 009e DFF8BC92 		ldr	r9, .L222+12
 2644 00a2 5146     		mov	r1, r10
  37:src/UI/sequencer.cpp ****     display_->WriteString(strbuff, Font_4x6, true);
 2645              		.loc 2 37 50 view .LVU666
 2646 00a4 0368     		ldr	r3, [r0]
  37:src/UI/sequencer.cpp ****     display_->WriteString(strbuff, Font_4x6, true);
 2647              		.loc 2 37 26 view .LVU667
 2648 00a6 0092     		str	r2, [sp]
 2649 00a8 9E6A     		ldr	r6, [r3, #40]
 2650 00aa 99E80C00 		ldm	r9, {r2, r3}
 2651 00ae B047     		blx	r6
 2652              	.LVL205:
  40:src/UI/sequencer.cpp ****     display_->SetCursor(x + 13, y + 2);
 2653              		.loc 2 40 5 is_stmt 1 view .LVU668
ARM GAS  /var/folders/41/s_9r3f9s4p3_9jgx7wszdkhh0000gn/T//ccURNtC3.s 			page 78


  40:src/UI/sequencer.cpp ****     display_->SetCursor(x + 13, y + 2);
 2654              		.loc 2 40 24 is_stmt 0 view .LVU669
 2655 00b0 039B     		ldr	r3, [sp, #12]
  40:src/UI/sequencer.cpp ****     display_->SetCursor(x + 13, y + 2);
 2656              		.loc 2 40 5 view .LVU670
 2657 00b2 6668     		ldr	r6, [r4, #4]
  40:src/UI/sequencer.cpp ****     display_->SetCursor(x + 13, y + 2);
 2658              		.loc 2 40 24 view .LVU671
 2659 00b4 03F10D0B 		add	fp, r3, #13
 2660              	.LBB1267:
 2661              	.LBB1268:
 173:../DaisyExamples/libDaisy//src/hid/disp/display.h ****         currentY_ = (y >= Height()) ? Height() - 1 : y;
 2662              		.loc 5 173 33 view .LVU672
 2663 00b8 3268     		ldr	r2, [r6]
 173:../DaisyExamples/libDaisy//src/hid/disp/display.h ****         currentY_ = (y >= Height()) ? Height() - 1 : y;
 2664              		.loc 5 173 32 view .LVU673
 2665 00ba 3046     		mov	r0, r6
 2666              	.LBE1268:
 2667              	.LBE1267:
  40:src/UI/sequencer.cpp ****     display_->SetCursor(x + 13, y + 2);
 2668              		.loc 2 40 24 view .LVU674
 2669 00bc 1FFA8BFB 		uxth	fp, fp
 2670              	.LVL206:
 2671              	.LBB1274:
 2672              	.LBI1267:
 171:../DaisyExamples/libDaisy//src/hid/disp/display.h ****     {
 2673              		.loc 5 171 10 is_stmt 1 view .LVU675
 2674              	.LBB1269:
 173:../DaisyExamples/libDaisy//src/hid/disp/display.h ****         currentY_ = (y >= Height()) ? Height() - 1 : y;
 2675              		.loc 5 173 9 view .LVU676
 173:../DaisyExamples/libDaisy//src/hid/disp/display.h ****         currentY_ = (y >= Height()) ? Height() - 1 : y;
 2676              		.loc 5 173 32 is_stmt 0 view .LVU677
 2677 00c0 D268     		ldr	r2, [r2, #12]
 2678 00c2 9047     		blx	r2
 2679              	.LVL207:
 173:../DaisyExamples/libDaisy//src/hid/disp/display.h ****         currentY_ = (y >= Height()) ? Height() - 1 : y;
 2680              		.loc 5 173 19 view .LVU678
 2681 00c4 8345     		cmp	fp, r0
 2682 00c6 06D3     		bcc	.L147
 173:../DaisyExamples/libDaisy//src/hid/disp/display.h ****         currentY_ = (y >= Height()) ? Height() - 1 : y;
 2683              		.loc 5 173 44 view .LVU679
 2684 00c8 3268     		ldr	r2, [r6]
 173:../DaisyExamples/libDaisy//src/hid/disp/display.h ****         currentY_ = (y >= Height()) ? Height() - 1 : y;
 2685              		.loc 5 173 43 view .LVU680
 2686 00ca 3046     		mov	r0, r6
 2687 00cc D268     		ldr	r2, [r2, #12]
 2688 00ce 9047     		blx	r2
 2689              	.LVL208:
 173:../DaisyExamples/libDaisy//src/hid/disp/display.h ****         currentY_ = (y >= Height()) ? Height() - 1 : y;
 2690              		.loc 5 173 19 view .LVU681
 2691 00d0 0138     		subs	r0, r0, #1
 2692 00d2 1FFA80FB 		uxth	fp, r0
 2693              	.LVL209:
 2694              	.L147:
 2695              		.loc 5 174 34 view .LVU682
 2696 00d6 3268     		ldr	r2, [r6]
 2697              		.loc 5 174 33 view .LVU683
ARM GAS  /var/folders/41/s_9r3f9s4p3_9jgx7wszdkhh0000gn/T//ccURNtC3.s 			page 79


 2698 00d8 3046     		mov	r0, r6
 173:../DaisyExamples/libDaisy//src/hid/disp/display.h ****         currentY_ = (y >= Height()) ? Height() - 1 : y;
 2699              		.loc 5 173 19 view .LVU684
 2700 00da A6F804B0 		strh	fp, [r6, #4]	@ movhi
 2701              		.loc 5 174 9 is_stmt 1 view .LVU685
 2702              		.loc 5 174 33 is_stmt 0 view .LVU686
 2703 00de 9268     		ldr	r2, [r2, #8]
 2704 00e0 9047     		blx	r2
 2705              	.LVL210:
 2706              		.loc 5 174 19 view .LVU687
 2707 00e2 8742     		cmp	r7, r0
 2708 00e4 C0F03F82 		bcc	.L199
 2709              		.loc 5 174 46 view .LVU688
 2710 00e8 3268     		ldr	r2, [r6]
 2711              		.loc 5 174 45 view .LVU689
 2712 00ea 3046     		mov	r0, r6
 2713 00ec 9268     		ldr	r2, [r2, #8]
 2714 00ee 9047     		blx	r2
 2715              	.LVL211:
 2716              	.LBE1269:
 2717              	.LBE1274:
  41:src/UI/sequencer.cpp ****     if (step->instrument < 0) sprintf(strbuff, "---");
 2718              		.loc 2 41 5 view .LVU690
 2719 00f0 D8F80030 		ldr	r3, [r8]
 2720              	.LBB1275:
 2721              	.LBB1270:
 2722              		.loc 5 174 19 view .LVU691
 2723 00f4 0138     		subs	r0, r0, #1
 2724              	.LBE1270:
 2725              	.LBE1275:
  41:src/UI/sequencer.cpp ****     if (step->instrument < 0) sprintf(strbuff, "---");
 2726              		.loc 2 41 5 view .LVU692
 2727 00f6 002B     		cmp	r3, #0
 2728              	.LBB1276:
 2729              	.LBB1271:
 2730              		.loc 5 174 19 view .LVU693
 2731 00f8 80B2     		uxth	r0, r0
 2732 00fa F080     		strh	r0, [r6, #6]	@ movhi
 2733              	.LVL212:
 2734              		.loc 5 174 19 view .LVU694
 2735              	.LBE1271:
 2736              	.LBE1276:
  41:src/UI/sequencer.cpp ****     if (step->instrument < 0) sprintf(strbuff, "---");
 2737              		.loc 2 41 5 is_stmt 1 view .LVU695
 2738 00fc C0F23A82 		blt	.L205
 2739              	.L149:
  42:src/UI/sequencer.cpp ****     else GetNoteString(strbuff, step->note);
 2740              		.loc 2 42 10 view .LVU696
  42:src/UI/sequencer.cpp ****     else GetNoteString(strbuff, step->note);
 2741              		.loc 2 42 23 is_stmt 0 view .LVU697
 2742 0100 D8F80420 		ldr	r2, [r8, #4]
 2743 0104 5146     		mov	r1, r10
 2744 0106 2046     		mov	r0, r4
 2745 0108 FFF7FEFF 		bl	_ZN9Sequencer13GetNoteStringEPci
 2746              	.LVL213:
 2747              	.L150:
  43:src/UI/sequencer.cpp ****     display_->WriteString(strbuff, Font_4x6, true);
ARM GAS  /var/folders/41/s_9r3f9s4p3_9jgx7wszdkhh0000gn/T//ccURNtC3.s 			page 80


 2748              		.loc 2 43 5 is_stmt 1 view .LVU698
 2749 010c 6068     		ldr	r0, [r4, #4]
